
app.elf:     file format elf32-littleriscv
app.elf
architecture: riscv:rv32, flags 0x00000112:
EXEC_P, HAS_SYMS, D_PAGED
start address 0x0000065c

Program Header:
0x70000003 off    0x0000afb6 vaddr 0x00000000 paddr 0x00000000 align 2**0
         filesz 0x00000020 memsz 0x00000000 flags r--
    LOAD off    0x00001000 vaddr 0x00000000 paddr 0x00000000 align 2**12
         filesz 0x00000020 memsz 0x00000020 flags r-x
    LOAD off    0x00001020 vaddr 0x00000020 paddr 0x00000020 align 2**12
         filesz 0x000087cc memsz 0x000087cc flags r-x
    LOAD off    0x000097ec vaddr 0x000087ec paddr 0x00009fa4 align 2**12
         filesz 0x000017b8 memsz 0x000017b8 flags rw-
    LOAD off    0x0000075c vaddr 0x0000b75c paddr 0x0000b75c align 2**12
         filesz 0x00000000 memsz 0x000003e4 flags rw-

Sections:
Idx Name          Size      VMA       LMA       File off  Algn
  0 .entry        00000020  00000000  00000000  00001000  2**5
                  CONTENTS, ALLOC, LOAD, READONLY, CODE
  1 .exceptions   000002f4  00000020  00000020  00001020  2**2
                  CONTENTS, ALLOC, LOAD, READONLY, CODE
  2 .text         0000843c  00000314  00000314  00001314  2**2
                  CONTENTS, ALLOC, LOAD, READONLY, CODE
  3 .rodata       0000009c  00008750  00008750  00009750  2**2
                  CONTENTS, ALLOC, LOAD, READONLY, DATA
  4 .rwdata       000017b8  000087ec  00009fa4  000097ec  2**2
                  CONTENTS, ALLOC, LOAD, DATA
  5 .bss          000003e4  0000b75c  0000b75c  0000b75c  2**2
                  ALLOC
  6 .onchip_memory2_0 00000000  0000bb40  0000bb40  0000afa4  2**0
                  CONTENTS
  7 .comment      00000012  00000000  00000000  0000afa4  2**0
                  CONTENTS, READONLY
  8 .riscv.attributes 00000020  00000000  00000000  0000afb6  2**0
                  CONTENTS, READONLY
  9 .debug_aranges 000005f8  00000000  00000000  0000afd8  2**3
                  CONTENTS, READONLY, DEBUGGING, OCTETS
 10 .debug_info   0000911c  00000000  00000000  0000b5d0  2**0
                  CONTENTS, READONLY, DEBUGGING, OCTETS
 11 .debug_abbrev 00003484  00000000  00000000  000146ec  2**0
                  CONTENTS, READONLY, DEBUGGING, OCTETS
 12 .debug_line   00004d01  00000000  00000000  00017b70  2**0
                  CONTENTS, READONLY, DEBUGGING, OCTETS
 13 .debug_frame  000013dc  00000000  00000000  0001c874  2**2
                  CONTENTS, READONLY, DEBUGGING, OCTETS
 14 .debug_str    00001bb6  00000000  00000000  0001dc50  2**0
                  CONTENTS, READONLY, DEBUGGING, OCTETS
 15 .debug_line_str 000010fc  00000000  00000000  0001f806  2**0
                  CONTENTS, READONLY, DEBUGGING, OCTETS
 16 .debug_ranges 00000020  00000000  00000000  00020908  2**3
                  CONTENTS, READONLY, DEBUGGING, OCTETS
 17 .debug_rnglists 0000005f  00000000  00000000  00020928  2**0
                  CONTENTS, READONLY, DEBUGGING, OCTETS
SYMBOL TABLE:
00000000 l    d  .entry	00000000 .entry
00000020 l    d  .exceptions	00000000 .exceptions
00000314 l    d  .text	00000000 .text
00008750 l    d  .rodata	00000000 .rodata
000087ec l    d  .rwdata	00000000 .rwdata
0000b75c l    d  .bss	00000000 .bss
0000bb40 l    d  .onchip_memory2_0	00000000 .onchip_memory2_0
00000000 l    d  .comment	00000000 .comment
00000000 l    d  .riscv.attributes	00000000 .riscv.attributes
00000000 l    d  .debug_aranges	00000000 .debug_aranges
00000000 l    d  .debug_info	00000000 .debug_info
00000000 l    d  .debug_abbrev	00000000 .debug_abbrev
00000000 l    d  .debug_line	00000000 .debug_line
00000000 l    d  .debug_frame	00000000 .debug_frame
00000000 l    d  .debug_str	00000000 .debug_str
00000000 l    d  .debug_line_str	00000000 .debug_line_str
00000000 l    d  .debug_ranges	00000000 .debug_ranges
00000000 l    d  .debug_rnglists	00000000 .debug_rnglists
00000000 l    df *ABS*	00000000 crt0.S.obj
00000704 l       .text	00000000 alt_after_alt_main
00000000 l    df *ABS*	00000000 machine_trap.S.obj
00000020 l       .exceptions	00000000 save_registers
00000000 l    df *ABS*	00000000 alt_irq_handler.c
00000000 l    df *ABS*	00000000 main.c
0000b7cc l     O .bss	00000004 i2c
00000314 l     F .text	000000a8 adxl_write
000003bc l     F .text	00000140 adxl_read_xyz
000004fc l     F .text	00000054 clamp_u32
00000000 l    df *ABS*	00000000 alt_load.c
00000708 l     F .text	00000064 alt_load_section
00000000 l    df *ABS*	00000000 alt_main.c
00000000 l    df *ABS*	00000000 alt_usleep.c
00000000 l    df *ABS*	00000000 alt_sys_init.c
000087f0 l     O .rwdata	00000038 i2c_0
00008828 l     O .rwdata	00001060 jtag_uart_0
00000000 l    df *ABS*	00000000 altera_avalon_i2c.c
0000096c l     F .text	00000138 optional_irq_callback
00000af0 l     F .text	00000094 alt_avalon_i2c_irq
00000000 l    df *ABS*	00000000 altera_avalon_jtag_uart_fd.c
00000000 l    df *ABS*	00000000 altera_avalon_jtag_uart_init.c
00002abc l     F .text	00000238 altera_avalon_jtag_uart_irq
00002cf4 l     F .text	000000bc altera_avalon_jtag_uart_timeout
00000000 l    df *ABS*	00000000 altera_avalon_jtag_uart_ioctl.c
00000000 l    df *ABS*	00000000 altera_avalon_jtag_uart_read.c
00000000 l    df *ABS*	00000000 altera_avalon_jtag_uart_write.c
00000000 l    df *ABS*	00000000 alt_alarm_start.c
00000000 l    df *ABS*	00000000 alt_busy_sleep.c
00000000 l    df *ABS*	00000000 alt_dcache_flush_all.c
00000000 l    df *ABS*	00000000 alt_dev.c
00003590 l     F .text	0000002c alt_dev_null_write
00000000 l    df *ABS*	00000000 alt_dev_llist_insert.c
000035f4 l     F .text	00000044 alt_get_errno
00000000 l    df *ABS*	00000000 alt_do_ctors.c
00000000 l    df *ABS*	00000000 alt_do_dtors.c
00000000 l    df *ABS*	00000000 alt_errno.c
00000000 l    df *ABS*	00000000 alt_find_dev.c
00000000 l    df *ABS*	00000000 alt_icache_flush_all.c
00000000 l    df *ABS*	00000000 alt_iic.c
00000000 l    df *ABS*	00000000 alt_iic_isr_register.c
00000000 l    df *ABS*	00000000 alt_io_redirect.c
00003aac l     F .text	000000dc alt_open_fd
00000000 l    df *ABS*	00000000 alt_printf.c
00000000 l    df *ABS*	00000000 alt_putchar.c
00000000 l    df *ABS*	00000000 alt_release_fd.c
00000000 l    df *ABS*	00000000 alt_tick.c
00000000 l    df *ABS*	00000000 intel_niosv_irq.c
00000000 l    df *ABS*	00000000 mtimer.c
00000000 l    df *ABS*	00000000 libc_a-atexit.o
00000000 l    df *ABS*	00000000 libc_a-exit.o
00000000 l    df *ABS*	00000000 libc_a-findfp.o
00004550 l     F .text	0000001c stdio_exit_handler
0000456c l     F .text	00000070 cleanup_stdio
000045dc l     F .text	00000040 __fp_lock
0000461c l     F .text	00000040 __fp_unlock
0000465c l     F .text	00000190 global_stdio_init.part.0
00000000 l    df *ABS*	00000000 libc_a-fwalk.o
00000000 l    df *ABS*	00000000 libc_a-putchar.o
00000000 l    df *ABS*	00000000 libc_a-setvbuf.o
00000000 l    df *ABS*	00000000 libc_a-stdio.o
00000000 l    df *ABS*	00000000 libc_a-closer.o
00000000 l    df *ABS*	00000000 libc_a-reent.o
00000000 l    df *ABS*	00000000 libc_a-lseekr.o
00000000 l    df *ABS*	00000000 libc_a-readr.o
00000000 l    df *ABS*	00000000 libc_a-writer.o
00000000 l    df *ABS*	00000000 libc_a-lock.o
00000000 l    df *ABS*	00000000 libc_a-sysclose.o
00000000 l    df *ABS*	00000000 libc_a-sysopen.o
00000000 l    df *ABS*	00000000 libc_a-stack_protector.o
00000000 l    df *ABS*	00000000 libc_a-memset.o
00000000 l    df *ABS*	00000000 libc_a-memcpy.o
00000000 l    df *ABS*	00000000 libc_a-strlen.o
00000000 l    df *ABS*	00000000 libc_a-__atexit.o
00000000 l    df *ABS*	00000000 libc_a-__call_atexit.o
00005800 l     F .text	00000018 register_fini
00000000 l    df *ABS*	00000000 libc_a-freer.o
00000000 l    df *ABS*	00000000 libc_a-malloc.o
00000000 l    df *ABS*	00000000 libc_a-mallocr.o
00000000 l    df *ABS*	00000000 libc_a-mlock.o
00000000 l    df *ABS*	00000000 libc_a-fclose.o
00000000 l    df *ABS*	00000000 libc_a-fflush.o
00000000 l    df *ABS*	00000000 libc_a-makebuf.o
00000000 l    df *ABS*	00000000 libc_a-putc.o
00000000 l    df *ABS*	00000000 libc_a-wbuf.o
00000000 l    df *ABS*	00000000 libc_a-wsetup.o
00000000 l    df *ABS*	00000000 libc_a-signal.o
00000000 l    df *ABS*	00000000 libc_a-fstatr.o
00000000 l    df *ABS*	00000000 libc_a-isattyr.o
00000000 l    df *ABS*	00000000 libc_a-openr.o
00000000 l    df *ABS*	00000000 libc_a-signalr.o
00000000 l    df *ABS*	00000000 libc_a-sbrkr.o
00000000 l    df *ABS*	00000000 libc_a-fini.o
00000000 l    df *ABS*	00000000 libc_a-syswrite.o
00000000 l    df *ABS*	00000000 div.o
00000000 l    df *ABS*	00000000 alt_close.c
00007940 l     F .text	00000044 alt_get_errno
00000000 l    df *ABS*	00000000 alt_exit.c
00000000 l    df *ABS*	00000000 alt_fstat.c
00007aa4 l     F .text	00000044 alt_get_errno
00000000 l    df *ABS*	00000000 alt_getpid.c
00000000 l    df *ABS*	00000000 alt_isatty.c
00007bc8 l     F .text	00000044 alt_get_errno
00000000 l    df *ABS*	00000000 alt_kill.c
00007d08 l     F .text	00000044 alt_get_errno
00000000 l    df *ABS*	00000000 alt_lseek.c
00007e40 l     F .text	00000044 alt_get_errno
00000000 l    df *ABS*	00000000 alt_open.c
00007f64 l     F .text	00000044 alt_get_errno
00007fa8 l     F .text	000000e8 alt_file_locked
00000000 l    df *ABS*	00000000 alt_read.c
000081f4 l     F .text	00000044 alt_get_errno
00000000 l    df *ABS*	00000000 alt_sbrk.c
00009fa0 l     O .rwdata	00000004 heap_end
00000000 l    df *ABS*	00000000 alt_write.c
000083f4 l     F .text	00000044 alt_get_errno
00000000 l    df *ABS*	00000000 alt_find_file.c
00000000 l    df *ABS*	00000000 alt_get_fd.c
00000000 l    df *ABS*	00000000 libc_a-sysfstat.o
0000528c g     F .text	0000000c .hidden __stack_chk_fail_local
00004af0 g     F .text	00000014 putchar
000076a4 g     F .text	00000058 _isatty_r
000007e0 g     F .text	00000088 alt_main
00007ba8 g     F .text	00000020 _getpid
0000b7d0 g     O .bss	00000080 alt_irq
00005044 g     F .text	00000064 _lseek_r
00009fa4 g       *ABS*	00000000 __flash_rwdata_start
0000bb40 g       *ABS*	00000000 __alt_heap_start
00007760 g     F .text	00000060 _kill_r
0000a768 g       *ABS*	00000000 __global_pointer$
0000b7b0 g     O .bss	00000001 __lock___atexit_recursive_mutex
00007160 g     F .text	0000009c _signal_r
00004e88 g     F .text	00000078 __sseek
00004944 g     F .text	00000070 __sinit
00006e54 g     F .text	00000160 __swbuf_r
000087ec g       *ABS*	00000000 __tls_base
00001288 g     F .text	000000bc alt_avalon_i2c_rx_read
00006460 g     F .text	0000000c __malloc_unlock
000026d8 g     F .text	00000048 alt_avalon_i2c_enabled_ints_get
0000b798 g     O .bss	00000001 __lock___arc4random_mutex
00000fdc g     F .text	00000090 alt_avalon_i2c_master_config_speed_get
000000c0 g     F .exceptions	00000028 is_ecc_handler_present
00001e18 g     F .text	00000224 alt_avalon_i2c_master_transmit_using_interrupts
0000b7b8 g     O .bss	00000004 __stack_chk_guard
00009f94 g     O .rwdata	00000004 __atexit_recursive_mutex
00005178 g     F .text	00000004 __retarget_lock_close
00000000 g     F .entry	00000004 __reset
0000b790 g     O .bss	00000004 __stdio_exit_handler
00000020 g       *ABS*	00000000 __flash_exceptions_start
00007644 g     F .text	00000060 _fstat_r
0000b794 g     O .bss	00000004 errno
00004df8 g     F .text	00000008 __seofread
0000b768 g     O .bss	00000004 alt_argv
00000868 g     F .text	00000034 usleep
00002720 g     F .text	0000004c alt_avalon_i2c_rx_fifo_threshold_get
00001184 g     F .text	0000004c alt_avalon_i2c_is_busy
000098b0 g     O .rwdata	00000180 alt_fd_list
00004ae8 g     F .text	00000008 _putchar_r
00000f00 g     F .text	000000dc alt_avalon_i2c_master_config_set
000037a0 g     F .text	00000120 alt_find_dev
00005390 g     F .text	000001a4 memcpy
00004b04 g     F .text	00000298 setvbuf
000043e4 g     F .text	000000ac alt_niosv_timer_sc_isr
00003b88 g     F .text	000000fc alt_io_redirect
00001c00 g     F .text	00000218 alt_avalon_i2c_master_transmit
00008750 g       *ABS*	00000000 __fini_array_end
00007894 g     F .text	00000048 .hidden __hidden___udivsi3
00002f1c g     F .text	0000022c altera_avalon_jtag_uart_read
00005c60 g     F .text	0000000c malloc
00000000 g       *ABS*	00000000 __alt_mem_onchip_memory2_0
00007894 g     F .text	00000048 .hidden __udivsi3
000071fc g     F .text	000000c4 _raise_r
00007ae8 g     F .text	000000c0 _fstat
000001fc g     F .exceptions	00000118 handle_trap
00000d28 g     F .text	000000b0 alt_avalon_i2c_enable
0000b7c8 g     O .bss	00000004 __malloc_top_pad
000077c0 g     F .text	00000004 _getpid_r
0000b770 g     O .bss	00000004 __dso_handle
000025a4 g     F .text	0000009c alt_avalon_i2c_int_disable
000072c0 g     F .text	000000e0 __sigtramp_r
000077c4 g     F .text	00000058 _sbrk_r
000050a8 g     F .text	00000064 _read_r
00009f80 g     O .rwdata	00000004 alt_max_fd
0000646c g     F .text	00000170 _fclose_r
00006914 g     F .text	000000d0 fflush
0000b7c4 g     O .bss	00000004 __malloc_max_sbrked_mem
0000203c g     F .text	00000274 alt_avalon_i2c_master_receive
00005298 g     F .text	0000001c __stack_chk_init
0000b7a4 g     O .bss	00000001 __lock___env_recursive_mutex
00007c0c g     F .text	000000fc _isatty
00002640 g     F .text	00000098 alt_avalon_i2c_int_enable
0000bb40 g       *ABS*	00000000 __bss_end
00003930 g     F .text	0000017c alt_iic_isr_register
00004024 g     F .text	00000158 alt_tick
000024c0 g     F .text	00000060 alt_avalon_i2c_int_status_get
00008090 g     F .text	00000164 _open
00008340 g     F .text	000000b4 _sbrk
000051f4 g     F .text	00000098 __stack_chk_fail
000087ec g       *ABS*	00000000 __tbss_start
00004490 g     F .text	0000007c alt_niosv_mtimecmp_interrupt_init
000049cc g     F .text	00000034 __fp_lock_all
00003f8c g     F .text	00000098 alt_alarm_stop
00000b84 g     F .text	00000050 alt_avalon_i2c_register_callback
00000bd4 g     F .text	00000110 alt_avalon_i2c_init
00000108 g     F .exceptions	000000f4 alt_irq_handler
00009888 g     O .rwdata	00000028 alt_dev_null
0000781c g     F .text	0000005c __libc_fini_array
0000425c g     F .text	00000080 alt_niosv_mtime_get
00004f60 g     F .text	000000e4 _reclaim_reent
00003574 g     F .text	0000001c alt_dcache_flush_all
000000e8 g     F .exceptions	00000020 break_operation
0000b7a8 g     O .bss	00000001 __lock___malloc_recursive_mutex
00009fa4 g       *ABS*	00000000 __ram_rwdata_end
0000b850 g     O .bss	00000138 __sf
00009f78 g     O .rwdata	00000008 alt_dev_list
00007878 g     F .text	00000014 write
00006c54 g     F .text	000000fc _putc_r
00001624 g     F .text	00000050 alt_avalon_i2c_check_arblost
00004238 g     F .text	00000024 alt_timestamp_freq
00002564 g     F .text	00000040 alt_avalon_i2c_int_clear
000087ec g       *ABS*	00000000 __ram_rodata_end
00008738 g     F .text	00000010 fstat
00009f68 g     O .rwdata	00000008 alt_avalon_i2c_list
000078dc g     F .text	00000010 .hidden __umodsi3
0000bb40 g       *ABS*	00000000 end
000035bc g     F .text	00000038 alt_dev_reg
0000519c g     F .text	00000004 __retarget_lock_release_recursive
00005190 g     F .text	00000008 __retarget_lock_try_acquire_recursive
000029fc g     F .text	000000c0 altera_avalon_jtag_uart_init
00000ce4 g     F .text	00000044 alt_avalon_i2c_open
00020000 g       *ABS*	00000000 __alt_stack_pointer
000017fc g     F .text	000000e8 alt_avalon_i2c_master_tx
00003148 g     F .text	0000023c altera_avalon_jtag_uart_write
000049b4 g     F .text	0000000c __sfp_lock_acquire
00005958 g     F .text	00000308 _free_r
00003c84 g     F .text	00000260 alt_printf
000056ac g     F .text	00000154 __call_exitprocs
0000b988 g     O .bss	00000190 __atexit0
00000aa4 g     F .text	0000004c alt_avalon_i2c_register_optional_irq_handler
00009f98 g     O .rwdata	00000004 __malloc_sbrk_base
0000065c g     F .text	000000ac _start
0000b778 g     O .bss	00000004 _alt_tick_rate
00005188 g     F .text	00000008 __retarget_lock_try_acquire
000022b0 g     F .text	00000210 alt_avalon_i2c_master_receive_using_interrupts
00007e84 g     F .text	000000e0 _lseek
0000276c g     F .text	00000068 alt_avalon_i2c_rx_fifo_threshold_set
0000b780 g     O .bss	00000008 _alt_nticks
00007460 g     F .text	000000a4 signal
00004358 g     F .text	0000008c alt_niosv_mtimecmp_get
000008d4 g     F .text	00000098 alt_sys_init
000076fc g     F .text	00000064 _open_r
000087ec g       *ABS*	00000000 __tdata_source
000055c0 g     F .text	000000ec __register_exitproc
00001a24 g     F .text	000001dc alt_avalon_i2c_master_tx_rx
00002db0 g     F .text	0000006c altera_avalon_jtag_uart_close
000087ec g       *ABS*	00000000 __ram_rwdata_start
00008750 g       *ABS*	00000000 __ram_rodata_start
0000bb18 g     O .bss	00000028 __malloc_current_mallinfo
0000b788 g     O .bss	00000008 alt_niosv_timestamp_offset
0000b760 g     O .bss	00000004 alt_niosv_timer_interrupt_handler
00002888 g     F .text	00000064 altera_avalon_jtag_uart_read_fd
00008678 g     F .text	000000c0 alt_get_fd
000034ec g     F .text	00000088 alt_busy_sleep
00004f08 g     F .text	00000058 _close_r
000011d0 g     F .text	000000b8 alt_avalon_i2c_rx_read_available
00002950 g     F .text	00000054 altera_avalon_jtag_uart_close_fd
0000bb40 g       *ABS*	00000000 __alt_stack_base
000029a4 g     F .text	00000058 altera_avalon_jtag_uart_ioctl_fd
0000517c g     F .text	00000004 __retarget_lock_close_recursive
00006fc4 g     F .text	00000140 __swsetup_r
000047ec g     F .text	00000158 __sfp
00009b60 g     O .rwdata	00000408 __malloc_av_
0000b7bc g     O .bss	00000004 __atexit
00004d9c g     F .text	0000005c __sread
0000853c g     F .text	0000013c alt_find_file
00003638 g     F .text	000000a8 alt_dev_llist_insert
00006454 g     F .text	0000000c __malloc_lock
00008750 g       *ABS*	00000000 __fini_array_start
00001674 g     F .text	00000188 alt_avalon_i2c_interrupt_transaction_status
000015d4 g     F .text	00000050 alt_avalon_i2c_check_nack
00006834 g     F .text	000000e0 _fflush_r
00005184 g     F .text	00000004 __retarget_lock_acquire_recursive
0000b75c g       *ABS*	00000000 __bss_start
000087ec g       *ABS*	00000000 __tdata_start
000087ec g       *ABS*	00000000 __tdata_end
000052b4 g     F .text	000000dc memset
00000550 g     F .text	0000010c main
000015a4 g     F .text	00000030 alt_avalon_i2c_master_target_set
0000b76c g     O .bss	00000004 alt_envp
0000b7c0 g     O .bss	00000004 __malloc_max_total_mem
000028ec g     F .text	00000064 altera_avalon_jtag_uart_write_fd
00005174 g     F .text	00000004 __retarget_lock_init_recursive
00006fb4 g     F .text	00000010 __swbuf
00002520 g     F .text	00000044 alt_avalon_i2c_int_raw_status_get
00004f00 g     F .text	00000008 __sclose
00020000 g       *ABS*	00000000 __alt_heap_limit
000065dc g     F .text	0000000c fclose
000041a0 g     F .text	00000040 alt_timestamp_start
00008750 g       *ABS*	00000000 __init_array_end
00005c78 g     F .text	000007dc _malloc_r
00009f84 g     O .rwdata	00000004 alt_errno
00007504 g     F .text	0000005c _init_signal
00006d50 g     F .text	00000104 putc
0000788c g     F .text	00000084 .hidden __divsi3
00005818 g     F .text	00000140 _malloc_trim_r
00008750 g       *ABS*	00000000 __flash_rodata_start
00005170 g     F .text	00000004 __retarget_lock_init
0000089c g     F .text	00000038 alt_irq_init
00003f18 g     F .text	00000074 alt_release_fd
0000450c g     F .text	00000014 atexit
0000510c g     F .text	00000064 _write_r
00009f90 g     O .rwdata	00000004 _impure_ptr
0000b764 g     O .bss	00000004 alt_argc
000065e8 g     F .text	0000024c __sflush_r
00003740 g     F .text	00000060 _do_dtors
00004a34 g     F .text	000000b4 _fwalk_sglue
00001570 g     F .text	00000034 alt_avalon_i2c_master_target_get
00001474 g     F .text	000000fc alt_avalon_i2c_send_address
00004a00 g     F .text	00000034 __fp_unlock_all
00009f70 g     O .rwdata	00000008 alt_fs_list
00000020 g       *ABS*	00000000 __ram_exceptions_start
000041e0 g     F .text	00000058 alt_timestamp
00006b7c g     F .text	000000d8 __swhatbuf_r
00002820 g     F .text	00000068 alt_avalon_i2c_tfr_cmd_fifo_threshold_set
000038dc g     F .text	00000054 alt_ic_isr_register
00000dd8 g     F .text	00000054 alt_avalon_i2c_disable
00009a30 g     O .rwdata	0000000c __sglue
00000020 g     F .exceptions	00000000 trap_vector
00008438 g     F .text	00000104 _write
00009fa4 g       *ABS*	00000000 _edata
0000bb40 g       *ABS*	00000000 _end
00000314 g       *ABS*	00000000 __ram_exceptions_end
0000b7ac g     O .bss	00000001 __lock___at_quick_exit_mutex
00002e1c g     F .text	00000100 altera_avalon_jtag_uart_ioctl
0000417c g     F .text	00000024 intel_niosv_irq_init
00000e2c g     F .text	000000d4 alt_avalon_i2c_master_config_get
00004e00 g     F .text	00000088 __swrite
00009f9c g     O .rwdata	00000004 __malloc_trim_threshold
00004520 g     F .text	00000030 exit
00007910 g     F .text	00000030 .hidden __modsi3
00007d4c g     F .text	000000f4 _kill
00009a40 g     O .rwdata	00000120 _impure_data
00020000 g       *ABS*	00000000 __alt_data_end
000087ec g       *ABS*	00000000 __tbss_end
000049c0 g     F .text	0000000c __sfp_lock_release
0000106c g     F .text	00000118 alt_avalon_i2c_master_config_speed_set
00008238 g     F .text	00000108 _read
00008748 g       *ABS*	00000000 __init_array_start
00005180 g     F .text	00000004 __retarget_lock_acquire
00001344 g     F .text	00000130 alt_avalon_i2c_cmd_write
00005198 g     F .text	00000004 __retarget_lock_release
00007a64 g     F .text	00000040 _exit
00003384 g     F .text	00000168 alt_alarm_start
0000b79c g     O .bss	00000001 __lock___dd_hash_mutex
000069e4 g     F .text	00000198 __smakebuf_r
0000b7a0 g     O .bss	00000001 __lock___tz_mutex
00005534 g     F .text	0000008c strlen
00007104 g     F .text	0000005c _init_signal_r
000051ac g     F .text	00000048 open
00003ee4 g     F .text	00000034 alt_putchar
000038c0 g     F .text	0000001c alt_icache_flush_all
000042dc g     F .text	0000007c alt_niosv_mtimecmp_set
00009f88 g     O .rwdata	00000008 alt_alarm_list
000036e0 g     F .text	00000060 _do_ctors
00007560 g     F .text	000000e4 __sigtramp
000051a0 g     F .text	0000000c close
000027d4 g     F .text	0000004c alt_avalon_i2c_tfr_cmd_fifo_threshold_get
0000076c g     F .text	00000074 alt_load
000018e4 g     F .text	00000140 alt_avalon_i2c_master_rx
0000b75c g     O .bss	00000004 alt_niosv_software_interrupt_handler
0000b7b4 g     O .bss	00000001 __lock___sfp_recursive_mutex
000073a0 g     F .text	000000c0 raise
00007984 g     F .text	000000e0 _close
00005c6c g     F .text	0000000c free



Disassembly of section .entry:

00000000 <__reset>:
 * Jump to the _start entry point in the .text section if reset code
 * is allowed or if optimizing for RTL simulation.
 */

    /* Jump to the _start entry point in the .text section. */
    tail _start
   0:	65c0006f          	j	65c <_start>
	...

Disassembly of section .exceptions:

00000020 <trap_vector>:
    /* Save caller-saved registers on the stack */

#if __riscv_flen == 32 // rv32if
    addi sp, sp, -36 * 4
#elif ALT_CPU_NUM_GPR == 32 // rv32i
	addi sp, sp, -16 * 4
  20:	fc010113          	add	sp,sp,-64
#else // rv32e (16-bit)
	addi sp, sp, -10 * 4
#endif

    /* rv32e (16-bit), rv32i and rv32if */
    sw ra,  0 * 4(sp)
  24:	00112023          	sw	ra,0(sp)
    sw t0,  1 * 4(sp)
  28:	00512223          	sw	t0,4(sp)
    sw t1,  2 * 4(sp)
  2c:	00612423          	sw	t1,8(sp)
    sw t2,  3 * 4(sp)
  30:	00712623          	sw	t2,12(sp)
    sw a0,  4 * 4(sp)
  34:	00a12823          	sw	a0,16(sp)
    sw a1,  5 * 4(sp)
  38:	00b12a23          	sw	a1,20(sp)
    sw a2,  6 * 4(sp)
  3c:	00c12c23          	sw	a2,24(sp)
    sw a3,  7 * 4(sp)
  40:	00d12e23          	sw	a3,28(sp)
    sw a4,  8 * 4(sp)
  44:	02e12023          	sw	a4,32(sp)
    sw a5,  9 * 4(sp)
  48:	02f12223          	sw	a5,36(sp)

    /* rv32i and rv32if */
#if ALT_CPU_NUM_GPR == 32 
    sw a6, 10 * 4(sp)
  4c:	03012423          	sw	a6,40(sp)
    sw a7, 11 * 4(sp)
  50:	03112623          	sw	a7,44(sp)
    sw t3, 12 * 4(sp)
  54:	03c12823          	sw	t3,48(sp)
    sw t4, 13 * 4(sp)
  58:	03d12a23          	sw	t4,52(sp)
    sw t5, 14 * 4(sp)
  5c:	03e12c23          	sw	t5,56(sp)
    sw t6, 15 * 4(sp)
  60:	03f12e23          	sw	t6,60(sp)
    fsw fa6, 34 * 4(sp)
    fsw fa7, 35 * 4(sp)
#endif
   
    /* Call handle_trap to dispatch the correct handler, if available */
    csrr a0, mcause
  64:	34202573          	csrr	a0,mcause
    csrr a1, mepc
  68:	341025f3          	csrr	a1,mepc
    csrr a2, mtval
  6c:	34302673          	csrr	a2,mtval
    jal handle_trap
  70:	18c000ef          	jal	1fc <handle_trap>
    csrw mepc, a0
  74:	34151073          	csrw	mepc,a0

    /* Restore caller-saved registers */

    /* rv32e (16-bit), rv32i and rv32if */
    lw ra,  0 * 4(sp)
  78:	00012083          	lw	ra,0(sp)
    lw t0,  1 * 4(sp)
  7c:	00412283          	lw	t0,4(sp)
    lw t1,  2 * 4(sp)
  80:	00812303          	lw	t1,8(sp)
    lw t2,  3 * 4(sp)
  84:	00c12383          	lw	t2,12(sp)
    lw a0,  4 * 4(sp)
  88:	01012503          	lw	a0,16(sp)
    lw a1,  5 * 4(sp)
  8c:	01412583          	lw	a1,20(sp)
    lw a2,  6 * 4(sp)
  90:	01812603          	lw	a2,24(sp)
    lw a3,  7 * 4(sp)
  94:	01c12683          	lw	a3,28(sp)
    lw a4,  8 * 4(sp)
  98:	02012703          	lw	a4,32(sp)
    lw a5,  9 * 4(sp)
  9c:	02412783          	lw	a5,36(sp)

    /* rv32i and rv32if */
#if ALT_CPU_NUM_GPR == 32	
    lw a6, 10 * 4(sp)
  a0:	02812803          	lw	a6,40(sp)
    lw a7, 11 * 4(sp)
  a4:	02c12883          	lw	a7,44(sp)
    lw t3, 12 * 4(sp)
  a8:	03012e03          	lw	t3,48(sp)
    lw t4, 13 * 4(sp)
  ac:	03412e83          	lw	t4,52(sp)
    lw t5, 14 * 4(sp)
  b0:	03812f03          	lw	t5,56(sp)
    lw t6, 15 * 4(sp)
  b4:	03c12f83          	lw	t6,60(sp)
#endif

#if __riscv_flen == 32 // rv32if
    addi sp, sp, 36 * 4
#elif ALT_CPU_NUM_GPR == 32 // rv32i
	addi sp, sp, 16 * 4
  b8:	04010113          	add	sp,sp,64
    lw s0, 0(sp)
    lw s1, 4(sp)
    addi sp, sp, 8
#endif

    mret
  bc:	30200073          	mret

000000c0 <is_ecc_handler_present>:
    }

    return epc;
}

alt_u32 is_ecc_handler_present (alt_u32 e_code) {
  c0:	fd010113          	add	sp,sp,-48
  c4:	02812623          	sw	s0,44(sp)
  c8:	03010413          	add	s0,sp,48
  cc:	fca42e23          	sw	a0,-36(s0)
#ifdef ALT_CPU_ECC_PRESENT
    alt_u32 present = (e_code == NIOSV_ECC_EXCEPTION && alt_ecc_exception_handler);
#else
    alt_u32 present = 0;
  d0:	fe042623          	sw	zero,-20(s0)
#endif
    return present;
  d4:	fec42783          	lw	a5,-20(s0)
} 
  d8:	00078513          	mv	a0,a5
  dc:	02c12403          	lw	s0,44(sp)
  e0:	03010113          	add	sp,sp,48
  e4:	00008067          	ret

000000e8 <break_operation>:

void break_operation (void)
{
  e8:	ff010113          	add	sp,sp,-16
  ec:	00812623          	sw	s0,12(sp)
  f0:	01010413          	add	s0,sp,16
#ifdef ALT_CPU_HAS_DEBUG_STUB
            NIOSV_EBREAK();
  f4:	00100073          	ebreak
#else  // ALT_CPU_HAS_DEBUG_STUB
            while(1)
                ;
#endif // ALT_CPU_HAS_DEBUG_STUB  
}
  f8:	00000013          	nop
  fc:	00c12403          	lw	s0,12(sp)
 100:	01010113          	add	sp,sp,16
 104:	00008067          	ret

00000108 <alt_irq_handler>:
 * This means that if there is never a call to alt_irq_register() then
 * this function will not get linked in to the executable. This is acceptable
 * since if no handler is ever registered, then an interrupt can never occur.
 */
void alt_irq_handler (void)
{
 108:	fd010113          	add	sp,sp,-48
 10c:	02112623          	sw	ra,44(sp)
 110:	02812423          	sw	s0,40(sp)
 114:	03010413          	add	s0,sp,48
    alt_u32 i;

    /*
     * Notify the operating system that we are at interrupt level.
     */  
    ALT_OS_INT_ENTER();
 118:	00000013          	nop
{
#if ALT_HAS_IRQ_SUPPORT
    alt_u32 active;
    alt_u32 enabled;

    NIOSV_READ_CSR(NIOSV_MIP_CSR, active);
 11c:	344027f3          	csrr	a5,mip
 120:	fef42023          	sw	a5,-32(s0)
    NIOSV_READ_CSR(NIOSV_MIE_CSR, enabled);
 124:	304027f3          	csrr	a5,mie
 128:	fef42223          	sw	a5,-28(s0)

    // Since this is used by alt_irq_handler, we want to only process the upper 16-bits
    // --> the interrupt lines connected via Platform Designer...
    return (active & enabled) >> 16;
 12c:	fe042703          	lw	a4,-32(s0)
 130:	fe442783          	lw	a5,-28(s0)
 134:	00f777b3          	and	a5,a4,a5
 138:	0107d793          	srl	a5,a5,0x10
     * reduced by finding out which interrupts are pending as late as possible.
     * Consider the case where the high priority interupt is asserted during
     * the interrupt entry sequence for a lower priority interrupt to see why
     * this is the case.
     */
    active = alt_irq_pending();
 13c:	fcf42a23          	sw	a5,-44(s0)

    do
    {
        i = 0;
 140:	fc042e23          	sw	zero,-36(s0)
        mask = 1;
 144:	00100793          	li	a5,1
 148:	fcf42c23          	sw	a5,-40(s0)
         * called to clear the interrupt condition.
         */

        do
        {
            if (active & mask)
 14c:	fd442703          	lw	a4,-44(s0)
 150:	fd842783          	lw	a5,-40(s0)
 154:	00f777b3          	and	a5,a4,a5
 158:	06078263          	beqz	a5,1bc <alt_irq_handler+0xb4>
            {
                alt_irq[i].handler(alt_irq[i].context); 
 15c:	0000b7b7          	lui	a5,0xb
 160:	7d078713          	add	a4,a5,2000 # b7d0 <alt_irq>
 164:	fdc42783          	lw	a5,-36(s0)
 168:	00379793          	sll	a5,a5,0x3
 16c:	00f707b3          	add	a5,a4,a5
 170:	0007a703          	lw	a4,0(a5)
 174:	0000b7b7          	lui	a5,0xb
 178:	7d078693          	add	a3,a5,2000 # b7d0 <alt_irq>
 17c:	fdc42783          	lw	a5,-36(s0)
 180:	00379793          	sll	a5,a5,0x3
 184:	00f687b3          	add	a5,a3,a5
 188:	0047a783          	lw	a5,4(a5)
 18c:	00078513          	mv	a0,a5
 190:	000700e7          	jalr	a4
                break;
 194:	00000013          	nop
    NIOSV_READ_CSR(NIOSV_MIP_CSR, active);
 198:	344027f3          	csrr	a5,mip
 19c:	fef42423          	sw	a5,-24(s0)
    NIOSV_READ_CSR(NIOSV_MIE_CSR, enabled);
 1a0:	304027f3          	csrr	a5,mie
 1a4:	fef42623          	sw	a5,-20(s0)
    return (active & enabled) >> 16;
 1a8:	fe842703          	lw	a4,-24(s0)
 1ac:	fec42783          	lw	a5,-20(s0)
 1b0:	00f777b3          	and	a5,a4,a5
 1b4:	0107d793          	srl	a5,a5,0x10
 1b8:	0200006f          	j	1d8 <alt_irq_handler+0xd0>
            }
            
            mask <<= 1;
 1bc:	fd842783          	lw	a5,-40(s0)
 1c0:	00179793          	sll	a5,a5,0x1
 1c4:	fcf42c23          	sw	a5,-40(s0)
            i++;
 1c8:	fdc42783          	lw	a5,-36(s0)
 1cc:	00178793          	add	a5,a5,1
 1d0:	fcf42e23          	sw	a5,-36(s0)
            if (active & mask)
 1d4:	f79ff06f          	j	14c <alt_irq_handler+0x44>
            
        } while (1);

        active = alt_irq_pending();
 1d8:	fcf42a23          	sw	a5,-44(s0)
    
    } while (active);
 1dc:	fd442783          	lw	a5,-44(s0)
 1e0:	f60790e3          	bnez	a5,140 <alt_irq_handler+0x38>

    /*
     * Notify the operating system that interrupt processing is complete.
     */ 

    ALT_OS_INT_EXIT();
 1e4:	00000013          	nop
}
 1e8:	00000013          	nop
 1ec:	02c12083          	lw	ra,44(sp)
 1f0:	02812403          	lw	s0,40(sp)
 1f4:	03010113          	add	sp,sp,48
 1f8:	00008067          	ret

000001fc <handle_trap>:
{
 1fc:	fd010113          	add	sp,sp,-48
 200:	02112623          	sw	ra,44(sp)
 204:	02812423          	sw	s0,40(sp)
 208:	03010413          	add	s0,sp,48
 20c:	fca42e23          	sw	a0,-36(s0)
 210:	fcb42c23          	sw	a1,-40(s0)
 214:	fcc42a23          	sw	a2,-44(s0)
    is_irq = (cause & NIOSV_MCAUSE_INTERRUPT_MASK);
 218:	fdc42703          	lw	a4,-36(s0)
 21c:	800007b7          	lui	a5,0x80000
 220:	00f777b3          	and	a5,a4,a5
 224:	fef42423          	sw	a5,-24(s0)
    exception_code = (cause & ~NIOSV_MCAUSE_INTERRUPT_MASK);
 228:	fdc42703          	lw	a4,-36(s0)
 22c:	800007b7          	lui	a5,0x80000
 230:	fff78793          	add	a5,a5,-1 # 7fffffff <__alt_data_end+0x7ffdffff>
 234:	00f777b3          	and	a5,a4,a5
 238:	fef42623          	sw	a5,-20(s0)
    if (is_irq) {
 23c:	fe842783          	lw	a5,-24(s0)
 240:	08078863          	beqz	a5,2d0 <handle_trap+0xd4>
        switch (exception_code) {
 244:	fec42703          	lw	a4,-20(s0)
 248:	00300793          	li	a5,3
 24c:	04f70063          	beq	a4,a5,28c <handle_trap+0x90>
 250:	fec42703          	lw	a4,-20(s0)
 254:	00700793          	li	a5,7
 258:	06f71263          	bne	a4,a5,2bc <handle_trap+0xc0>
                if (alt_niosv_timer_interrupt_handler) {
 25c:	0000b7b7          	lui	a5,0xb
 260:	7607a783          	lw	a5,1888(a5) # b760 <alt_niosv_timer_interrupt_handler>
 264:	08078263          	beqz	a5,2e8 <handle_trap+0xec>
                    ALT_OS_INT_ENTER();
 268:	00000013          	nop
                    alt_niosv_timer_interrupt_handler(cause, epc, tval);
 26c:	0000b7b7          	lui	a5,0xb
 270:	7607a783          	lw	a5,1888(a5) # b760 <alt_niosv_timer_interrupt_handler>
 274:	fd442603          	lw	a2,-44(s0)
 278:	fd842583          	lw	a1,-40(s0)
 27c:	fdc42503          	lw	a0,-36(s0)
 280:	000780e7          	jalr	a5
                    ALT_OS_INT_EXIT();
 284:	00000013          	nop
                break;
 288:	0600006f          	j	2e8 <handle_trap+0xec>
                if (alt_niosv_software_interrupt_handler) {
 28c:	0000b7b7          	lui	a5,0xb
 290:	75c7a783          	lw	a5,1884(a5) # b75c <alt_niosv_software_interrupt_handler>
 294:	04078e63          	beqz	a5,2f0 <handle_trap+0xf4>
                    ALT_OS_INT_ENTER();
 298:	00000013          	nop
                    alt_niosv_software_interrupt_handler(cause, epc, tval);
 29c:	0000b7b7          	lui	a5,0xb
 2a0:	75c7a783          	lw	a5,1884(a5) # b75c <alt_niosv_software_interrupt_handler>
 2a4:	fd442603          	lw	a2,-44(s0)
 2a8:	fd842583          	lw	a1,-40(s0)
 2ac:	fdc42503          	lw	a0,-36(s0)
 2b0:	000780e7          	jalr	a5
                    ALT_OS_INT_EXIT();
 2b4:	00000013          	nop
                break;
 2b8:	0380006f          	j	2f0 <handle_trap+0xf4>
                if (exception_code >= 16) {
 2bc:	fec42703          	lw	a4,-20(s0)
 2c0:	00f00793          	li	a5,15
 2c4:	02e7fa63          	bgeu	a5,a4,2f8 <handle_trap+0xfc>
                    alt_irq_handler();
 2c8:	e41ff0ef          	jal	108 <alt_irq_handler>
                break;
 2cc:	02c0006f          	j	2f8 <handle_trap+0xfc>
        if (!is_ecc_handler_present(exception_code)) {
 2d0:	fec42503          	lw	a0,-20(s0)
 2d4:	dedff0ef          	jal	c0 <is_ecc_handler_present>
 2d8:	00050793          	mv	a5,a0
 2dc:	02079063          	bnez	a5,2fc <handle_trap+0x100>
             break_operation();
 2e0:	e09ff0ef          	jal	e8 <break_operation>
 2e4:	0180006f          	j	2fc <handle_trap+0x100>
                break;
 2e8:	00000013          	nop
 2ec:	0100006f          	j	2fc <handle_trap+0x100>
                break;
 2f0:	00000013          	nop
 2f4:	0080006f          	j	2fc <handle_trap+0x100>
                break;
 2f8:	00000013          	nop
    return epc;
 2fc:	fd842783          	lw	a5,-40(s0)
}
 300:	00078513          	mv	a0,a5
 304:	02c12083          	lw	ra,44(sp)
 308:	02812403          	lw	s0,40(sp)
 30c:	03010113          	add	sp,sp,48
 310:	00008067          	ret

Disassembly of section .text:

00000314 <adxl_write>:
#define ADXL_ADDR 0x53

static ALT_AVALON_I2C_DEV_t *i2c = NULL;

static void adxl_write(uint8_t reg, uint8_t val)
{
     314:	fd010113          	add	sp,sp,-48
     318:	02112623          	sw	ra,44(sp)
     31c:	02812423          	sw	s0,40(sp)
     320:	03010413          	add	s0,sp,48
     324:	00050793          	mv	a5,a0
     328:	00058713          	mv	a4,a1
     32c:	fcf40fa3          	sb	a5,-33(s0)
     330:	00070793          	mv	a5,a4
     334:	fcf40f23          	sb	a5,-34(s0)
     338:	0000b7b7          	lui	a5,0xb
     33c:	7b87a703          	lw	a4,1976(a5) # b7b8 <__stack_chk_guard>
     340:	fee42623          	sw	a4,-20(s0)
     344:	00000713          	li	a4,0
    uint8_t tx[2] = { reg, val };
     348:	fdf44783          	lbu	a5,-33(s0)
     34c:	fef40423          	sb	a5,-24(s0)
     350:	fde44783          	lbu	a5,-34(s0)
     354:	fef404a3          	sb	a5,-23(s0)
    alt_avalon_i2c_master_target_set(i2c, ADXL_ADDR);
     358:	0000b7b7          	lui	a5,0xb
     35c:	7cc7a783          	lw	a5,1996(a5) # b7cc <i2c>
     360:	05300593          	li	a1,83
     364:	00078513          	mv	a0,a5
     368:	23c010ef          	jal	15a4 <alt_avalon_i2c_master_target_set>
    alt_avalon_i2c_master_tx(i2c, tx, 2, ALT_AVALON_I2C_NO_INTERRUPTS);
     36c:	0000b7b7          	lui	a5,0xb
     370:	7cc7a783          	lw	a5,1996(a5) # b7cc <i2c>
     374:	fe840713          	add	a4,s0,-24
     378:	00000693          	li	a3,0
     37c:	00200613          	li	a2,2
     380:	00070593          	mv	a1,a4
     384:	00078513          	mv	a0,a5
     388:	474010ef          	jal	17fc <alt_avalon_i2c_master_tx>
}
     38c:	00000013          	nop
     390:	0000b7b7          	lui	a5,0xb
     394:	fec42703          	lw	a4,-20(s0)
     398:	7b87a783          	lw	a5,1976(a5) # b7b8 <__stack_chk_guard>
     39c:	00f747b3          	xor	a5,a4,a5
     3a0:	00000713          	li	a4,0
     3a4:	00078463          	beqz	a5,3ac <adxl_write+0x98>
     3a8:	64d040ef          	jal	51f4 <__stack_chk_fail>
     3ac:	02c12083          	lw	ra,44(sp)
     3b0:	02812403          	lw	s0,40(sp)
     3b4:	03010113          	add	sp,sp,48
     3b8:	00008067          	ret

000003bc <adxl_read_xyz>:

static void adxl_read_xyz(int16_t *x, int16_t *y, int16_t *z)
{
     3bc:	fd010113          	add	sp,sp,-48
     3c0:	02112623          	sw	ra,44(sp)
     3c4:	02812423          	sw	s0,40(sp)
     3c8:	03010413          	add	s0,sp,48
     3cc:	fca42e23          	sw	a0,-36(s0)
     3d0:	fcb42c23          	sw	a1,-40(s0)
     3d4:	fcc42a23          	sw	a2,-44(s0)
     3d8:	0000b7b7          	lui	a5,0xb
     3dc:	7b87a703          	lw	a4,1976(a5) # b7b8 <__stack_chk_guard>
     3e0:	fee42623          	sw	a4,-20(s0)
     3e4:	00000713          	li	a4,0
    uint8_t tx = 0x32; // DATAX0
     3e8:	03200793          	li	a5,50
     3ec:	fef401a3          	sb	a5,-29(s0)
    uint8_t rx[6];

    alt_avalon_i2c_master_target_set(i2c, ADXL_ADDR);
     3f0:	0000b7b7          	lui	a5,0xb
     3f4:	7cc7a783          	lw	a5,1996(a5) # b7cc <i2c>
     3f8:	05300593          	li	a1,83
     3fc:	00078513          	mv	a0,a5
     400:	1a4010ef          	jal	15a4 <alt_avalon_i2c_master_target_set>
    alt_avalon_i2c_master_tx_rx(i2c, &tx, 1, rx, 6, ALT_AVALON_I2C_NO_INTERRUPTS);
     404:	0000b7b7          	lui	a5,0xb
     408:	7cc7a503          	lw	a0,1996(a5) # b7cc <i2c>
     40c:	fe440693          	add	a3,s0,-28
     410:	fe340593          	add	a1,s0,-29
     414:	00000793          	li	a5,0
     418:	00600713          	li	a4,6
     41c:	00100613          	li	a2,1
     420:	604010ef          	jal	1a24 <alt_avalon_i2c_master_tx_rx>

    *x = (int16_t)((rx[1] << 8) | rx[0]);
     424:	fe544783          	lbu	a5,-27(s0)
     428:	01079793          	sll	a5,a5,0x10
     42c:	4107d793          	sra	a5,a5,0x10
     430:	00879793          	sll	a5,a5,0x8
     434:	01079713          	sll	a4,a5,0x10
     438:	41075713          	sra	a4,a4,0x10
     43c:	fe444783          	lbu	a5,-28(s0)
     440:	01079793          	sll	a5,a5,0x10
     444:	4107d793          	sra	a5,a5,0x10
     448:	00f767b3          	or	a5,a4,a5
     44c:	01079713          	sll	a4,a5,0x10
     450:	41075713          	sra	a4,a4,0x10
     454:	fdc42783          	lw	a5,-36(s0)
     458:	00e79023          	sh	a4,0(a5)
    *y = (int16_t)((rx[3] << 8) | rx[2]);
     45c:	fe744783          	lbu	a5,-25(s0)
     460:	01079793          	sll	a5,a5,0x10
     464:	4107d793          	sra	a5,a5,0x10
     468:	00879793          	sll	a5,a5,0x8
     46c:	01079713          	sll	a4,a5,0x10
     470:	41075713          	sra	a4,a4,0x10
     474:	fe644783          	lbu	a5,-26(s0)
     478:	01079793          	sll	a5,a5,0x10
     47c:	4107d793          	sra	a5,a5,0x10
     480:	00f767b3          	or	a5,a4,a5
     484:	01079713          	sll	a4,a5,0x10
     488:	41075713          	sra	a4,a4,0x10
     48c:	fd842783          	lw	a5,-40(s0)
     490:	00e79023          	sh	a4,0(a5)
    *z = (int16_t)((rx[5] << 8) | rx[4]);
     494:	fe944783          	lbu	a5,-23(s0)
     498:	01079793          	sll	a5,a5,0x10
     49c:	4107d793          	sra	a5,a5,0x10
     4a0:	00879793          	sll	a5,a5,0x8
     4a4:	01079713          	sll	a4,a5,0x10
     4a8:	41075713          	sra	a4,a4,0x10
     4ac:	fe844783          	lbu	a5,-24(s0)
     4b0:	01079793          	sll	a5,a5,0x10
     4b4:	4107d793          	sra	a5,a5,0x10
     4b8:	00f767b3          	or	a5,a4,a5
     4bc:	01079713          	sll	a4,a5,0x10
     4c0:	41075713          	sra	a4,a4,0x10
     4c4:	fd442783          	lw	a5,-44(s0)
     4c8:	00e79023          	sh	a4,0(a5)
}
     4cc:	00000013          	nop
     4d0:	0000b7b7          	lui	a5,0xb
     4d4:	fec42703          	lw	a4,-20(s0)
     4d8:	7b87a783          	lw	a5,1976(a5) # b7b8 <__stack_chk_guard>
     4dc:	00f747b3          	xor	a5,a4,a5
     4e0:	00000713          	li	a4,0
     4e4:	00078463          	beqz	a5,4ec <adxl_read_xyz+0x130>
     4e8:	50d040ef          	jal	51f4 <__stack_chk_fail>
     4ec:	02c12083          	lw	ra,44(sp)
     4f0:	02812403          	lw	s0,40(sp)
     4f4:	03010113          	add	sp,sp,48
     4f8:	00008067          	ret

000004fc <clamp_u32>:

static uint32_t clamp_u32(int v, int lo, int hi)
{
     4fc:	fe010113          	add	sp,sp,-32
     500:	00812e23          	sw	s0,28(sp)
     504:	02010413          	add	s0,sp,32
     508:	fea42623          	sw	a0,-20(s0)
     50c:	feb42423          	sw	a1,-24(s0)
     510:	fec42223          	sw	a2,-28(s0)
    if (v < lo) v = lo;
     514:	fec42703          	lw	a4,-20(s0)
     518:	fe842783          	lw	a5,-24(s0)
     51c:	00f75663          	bge	a4,a5,528 <clamp_u32+0x2c>
     520:	fe842783          	lw	a5,-24(s0)
     524:	fef42623          	sw	a5,-20(s0)
    if (v > hi) v = hi;
     528:	fec42703          	lw	a4,-20(s0)
     52c:	fe442783          	lw	a5,-28(s0)
     530:	00e7d663          	bge	a5,a4,53c <clamp_u32+0x40>
     534:	fe442783          	lw	a5,-28(s0)
     538:	fef42623          	sw	a5,-20(s0)
    return (uint32_t)v;
     53c:	fec42783          	lw	a5,-20(s0)
}
     540:	00078513          	mv	a0,a5
     544:	01c12403          	lw	s0,28(sp)
     548:	02010113          	add	sp,sp,32
     54c:	00008067          	ret

00000550 <main>:

int main(void)
{
     550:	fd010113          	add	sp,sp,-48
     554:	02112623          	sw	ra,44(sp)
     558:	02812423          	sw	s0,40(sp)
     55c:	03010413          	add	s0,sp,48
     560:	0000b7b7          	lui	a5,0xb
     564:	7b87a703          	lw	a4,1976(a5) # b7b8 <__stack_chk_guard>
     568:	fee42623          	sw	a4,-20(s0)
     56c:	00000713          	li	a4,0
    i2c = alt_avalon_i2c_open(I2C_0_NAME);
     570:	000087b7          	lui	a5,0x8
     574:	75078513          	add	a0,a5,1872 # 8750 <__fini_array_end>
     578:	76c000ef          	jal	ce4 <alt_avalon_i2c_open>
     57c:	00050713          	mv	a4,a0
     580:	0000b7b7          	lui	a5,0xb
     584:	7ce7a623          	sw	a4,1996(a5) # b7cc <i2c>
    if (!i2c) {
     588:	0000b7b7          	lui	a5,0xb
     58c:	7cc7a783          	lw	a5,1996(a5) # b7cc <i2c>
     590:	02079263          	bnez	a5,5b4 <main+0x64>
        IOWR_ALTERA_AVALON_PIO_DATA(PIO_0_BASE, 0x003);
     594:	00300793          	li	a5,3
     598:	fef42423          	sw	a5,-24(s0)
     59c:	000307b7          	lui	a5,0x30
     5a0:	08078793          	add	a5,a5,128 # 30080 <__alt_data_end+0x10080>
     5a4:	fe842703          	lw	a4,-24(s0)
     5a8:	00e7a023          	sw	a4,0(a5)
        while (1);
     5ac:	00000013          	nop
     5b0:	ffdff06f          	j	5ac <main+0x5c>
    }

    // Activer la mesure (POWER_CTL.Measure = 1)
    adxl_write(0x2D, 0x08);
     5b4:	00800593          	li	a1,8
     5b8:	02d00513          	li	a0,45
     5bc:	d59ff0ef          	jal	314 <adxl_write>
    // “Bulle” sur 10 LEDs : on utilise l’axe X (inclinaison gauche/droite)
    // tu peux changer pour Y si tu préfères.
    while (1)
    {
        int16_t x, y, z;
        adxl_read_xyz(&x, &y, &z);
     5c0:	fda40693          	add	a3,s0,-38
     5c4:	fd840713          	add	a4,s0,-40
     5c8:	fd640793          	add	a5,s0,-42
     5cc:	00068613          	mv	a2,a3
     5d0:	00070593          	mv	a1,a4
     5d4:	00078513          	mv	a0,a5
     5d8:	de5ff0ef          	jal	3bc <adxl_read_xyz>

        // Mapping simple : x ~ [-256..+256] -> index [0..9]
        int idx = (y + 256) * 10 / 512;   // <-- on utilise Y
     5dc:	fd841783          	lh	a5,-40(s0)
     5e0:	10078713          	add	a4,a5,256
     5e4:	00070793          	mv	a5,a4
     5e8:	00279793          	sll	a5,a5,0x2
     5ec:	00e787b3          	add	a5,a5,a4
     5f0:	00179793          	sll	a5,a5,0x1
     5f4:	41f7d713          	sra	a4,a5,0x1f
     5f8:	1ff77713          	and	a4,a4,511
     5fc:	00f707b3          	add	a5,a4,a5
     600:	4097d793          	sra	a5,a5,0x9
     604:	fcf42e23          	sw	a5,-36(s0)
        idx = (int)clamp_u32(idx, 0, 9);
     608:	00900613          	li	a2,9
     60c:	00000593          	li	a1,0
     610:	fdc42503          	lw	a0,-36(s0)
     614:	ee9ff0ef          	jal	4fc <clamp_u32>
     618:	00050793          	mv	a5,a0
     61c:	fcf42e23          	sw	a5,-36(s0)

        uint32_t leds = (1u << idx);
     620:	fdc42783          	lw	a5,-36(s0)
     624:	00100713          	li	a4,1
     628:	00f717b3          	sll	a5,a4,a5
     62c:	fef42023          	sw	a5,-32(s0)

        // Si tes LEDs sont active-low, décommente la ligne suivante :
        // leds = (~leds) & 0x3FF;

        IOWR_ALTERA_AVALON_PIO_DATA(PIO_0_BASE, leds);
     630:	fe042783          	lw	a5,-32(s0)
     634:	fef42223          	sw	a5,-28(s0)
     638:	000307b7          	lui	a5,0x30
     63c:	08078793          	add	a5,a5,128 # 30080 <__alt_data_end+0x10080>
     640:	fe442703          	lw	a4,-28(s0)
     644:	00e7a023          	sw	a4,0(a5)

        usleep(50000); // 50 ms
     648:	0000c7b7          	lui	a5,0xc
     64c:	35078513          	add	a0,a5,848 # c350 <__alt_heap_start+0x810>
     650:	218000ef          	jal	868 <usleep>
    {
     654:	00000013          	nop
     658:	f69ff06f          	j	5c0 <main+0x70>

0000065c <_start>:
    .type _start, @function
_start:
#if ALT_CPU_HAS_CSR_SUPPORT
    /* assume that we are in machine mode on startup */
    /* setup trap to catch anything that goes wrong early in the boot process */
    la t0, trap_vector
     65c:	00000297          	auipc	t0,0x0
     660:	9c428293          	add	t0,t0,-1596 # 20 <trap_vector>
    csrw mtvec, t0
     664:	30529073          	csrw	mtvec,t0

    /* disable all interrupt */
    li t0, 0x88
     668:	08800293          	li	t0,136
    csrc mstatus, t0
     66c:	3002b073          	csrc	mstatus,t0
    csrw mie, zero
     670:	30401073          	csrw	mie,zero
    csrw mip, zero
     674:	34401073          	csrw	mip,zero
#endif /* Initialize Data Cache */
#endif /* ALT_SIM_OPTIMIZE */

    .option push
    .option norelax
    la gp, __global_pointer$
     678:	0000a197          	auipc	gp,0xa
     67c:	0f018193          	add	gp,gp,240 # a768 <__global_pointer$>

    /*
     * Now that the caches are initialized, set up the stack pointer and global pointer.
     * The values provided by the linker are assumed to be correctly aligned.
     */
    la sp, __alt_stack_pointer
     680:	00020117          	auipc	sp,0x20
     684:	98010113          	add	sp,sp,-1664 # 20000 <__alt_data_end>
    /* Log that the BSS is about to be cleared. */
#ifdef ALT_LOG_ENABLE
    ALT_LOG_PUTS(alt_log_msg_bss)
#endif /* ALT_LOG_ENABLE */

    la t1, __bss_start
     688:	0000b317          	auipc	t1,0xb
     68c:	0d430313          	add	t1,t1,212 # b75c <alt_niosv_software_interrupt_handler>
    la t2, __bss_end
     690:	0000b397          	auipc	t2,0xb
     694:	4b038393          	add	t2,t2,1200 # bb40 <__alt_heap_start>
0:
    sw zero, (t1)
     698:	00032023          	sw	zero,0(t1)
    addi t1, t1, 4
     69c:	00430313          	add	t1,t1,4
    bltu t1, t2, 0b
     6a0:	fe736ce3          	bltu	t1,t2,698 <_start+0x3c>
/*
 * The alt_load() facility is normally used when there is no bootloader.
 * It copies some sections into RAM so it acts like a mini-bootloader.
 */
#ifdef CALL_ALT_LOAD
    call alt_load
     6a4:	0c8000ef          	jal	76c <alt_load>
 */
#ifndef ALT_SIM_OPTIMIZE
.globl __tbss_start
.globl __tbss_end

    la t1, __tbss_start
     6a8:	00008317          	auipc	t1,0x8
     6ac:	14430313          	add	t1,t1,324 # 87ec <__ram_rodata_end>
    la t2, __tbss_end
     6b0:	00008397          	auipc	t2,0x8
     6b4:	13c38393          	add	t2,t2,316 # 87ec <__ram_rodata_end>
    
    // Check if we need to skip this (if .tbss is empty)
    bgeu t1, t2, 1f
     6b8:	00737863          	bgeu	t1,t2,6c8 <_start+0x6c>
0:
    sw zero, (t1)
     6bc:	00032023          	sw	zero,0(t1)
    addi t1, t1, 4
     6c0:	00430313          	add	t1,t1,4
    bltu t1, t2, 0b
     6c4:	fe736ce3          	bltu	t1,t2,6bc <_start+0x60>
// Copy tdata to tdata golden source location
.globl __tdata_start
.globl __tdata_end
.globl __tdata_source

    la t0, __tdata_start
     6c8:	00008297          	auipc	t0,0x8
     6cc:	12428293          	add	t0,t0,292 # 87ec <__ram_rodata_end>
    la t1, __tdata_end
     6d0:	00008317          	auipc	t1,0x8
     6d4:	11c30313          	add	t1,t1,284 # 87ec <__ram_rodata_end>
    la t2, __tdata_source
     6d8:	00008397          	auipc	t2,0x8
     6dc:	11438393          	add	t2,t2,276 # 87ec <__ram_rodata_end>

    // Check if we need to skip this (if .tdata is empty)
    bgeu t0, t1, 1f
     6e0:	0062fc63          	bgeu	t0,t1,6f8 <_start+0x9c>
0:
    lw s1, (t0)
     6e4:	0002a483          	lw	s1,0(t0)
    sw s1, (t2)
     6e8:	0093a023          	sw	s1,0(t2)
    addi t0, t0, 4
     6ec:	00428293          	add	t0,t0,4
    addi t2, t2, 4
     6f0:	00438393          	add	t2,t2,4
    bltu t0, t1, 0b
     6f4:	fe62e8e3          	bltu	t0,t1,6e4 <_start+0x88>
1:

// Assign thread pointer register (tp) to main thread tls base
.globl __tls_base
    la tp, __tls_base
     6f8:	00008217          	auipc	tp,0x8
     6fc:	0f420213          	add	tp,tp,244 # 87ec <__ram_rodata_end>
#ifdef ALT_LOG_ENABLE
    ALT_LOG_PUTS(alt_log_msg_alt_main)
#endif /* ALT_LOG_ENABLE */

    /* Call the C entry point. It should never return. */
    call alt_main
     700:	0e0000ef          	jal	7e0 <alt_main>

00000704 <alt_after_alt_main>:

    /* Wait in infinite loop in case alt_main does return. */
alt_after_alt_main:
    j alt_after_alt_main
     704:	0000006f          	j	704 <alt_after_alt_main>

00000708 <alt_load_section>:
     708:	fe010113          	add	sp,sp,-32
     70c:	00812e23          	sw	s0,28(sp)
 */  

void alt_load (void)
{
  /* 
   * Copy the .rwdata section. 
     710:	02010413          	add	s0,sp,32
     714:	fea42623          	sw	a0,-20(s0)
     718:	feb42423          	sw	a1,-24(s0)
     71c:	fec42223          	sw	a2,-28(s0)
   */
     720:	fe842703          	lw	a4,-24(s0)
     724:	fec42783          	lw	a5,-20(s0)
     728:	02f70a63          	beq	a4,a5,75c <alt_load_section+0x54>

  alt_load_section (&__flash_rwdata_start, 
     72c:	0240006f          	j	750 <alt_load_section+0x48>
		               &__ram_rwdata_start,
		               &__ram_rwdata_end);
     730:	fec42703          	lw	a4,-20(s0)
     734:	00470793          	add	a5,a4,4
     738:	fef42623          	sw	a5,-20(s0)
     73c:	fe842783          	lw	a5,-24(s0)
     740:	00478693          	add	a3,a5,4
     744:	fed42423          	sw	a3,-24(s0)
     748:	00072703          	lw	a4,0(a4)
     74c:	00e7a023          	sw	a4,0(a5)
  alt_load_section (&__flash_rwdata_start, 
     750:	fe842703          	lw	a4,-24(s0)
     754:	fe442783          	lw	a5,-28(s0)
     758:	fcf71ce3          	bne	a4,a5,730 <alt_load_section+0x28>

  /*
   * Copy the exception handler.
     75c:	00000013          	nop
     760:	01c12403          	lw	s0,28(sp)
     764:	02010113          	add	sp,sp,32
     768:	00008067          	ret

0000076c <alt_load>:
{
     76c:	ff010113          	add	sp,sp,-16
     770:	00112623          	sw	ra,12(sp)
     774:	00812423          	sw	s0,8(sp)
     778:	01010413          	add	s0,sp,16
  alt_load_section (&__flash_rwdata_start, 
     77c:	0000a7b7          	lui	a5,0xa
     780:	fa478613          	add	a2,a5,-92 # 9fa4 <__flash_rwdata_start>
     784:	000087b7          	lui	a5,0x8
     788:	7ec78593          	add	a1,a5,2028 # 87ec <__ram_rodata_end>
     78c:	0000a7b7          	lui	a5,0xa
     790:	fa478513          	add	a0,a5,-92 # 9fa4 <__flash_rwdata_start>
     794:	f75ff0ef          	jal	708 <alt_load_section>
   */

  alt_load_section (&__flash_exceptions_start, 
     798:	31400613          	li	a2,788
     79c:	02000593          	li	a1,32
     7a0:	02000513          	li	a0,32
     7a4:	f65ff0ef          	jal	708 <alt_load_section>

  /*
   * Copy the .rodata section.
   */

  alt_load_section (&__flash_rodata_start, 
     7a8:	000087b7          	lui	a5,0x8
     7ac:	7ec78613          	add	a2,a5,2028 # 87ec <__ram_rodata_end>
     7b0:	000087b7          	lui	a5,0x8
     7b4:	75078593          	add	a1,a5,1872 # 8750 <__fini_array_end>
     7b8:	000087b7          	lui	a5,0x8
     7bc:	75078513          	add	a0,a5,1872 # 8750 <__fini_array_end>
     7c0:	f49ff0ef          	jal	708 <alt_load_section>
  
  /*
   * Now ensure that the caches are in synch.
   */
  
  alt_dcache_flush_all();
     7c4:	5b1020ef          	jal	3574 <alt_dcache_flush_all>
  alt_icache_flush_all();
     7c8:	0f8030ef          	jal	38c0 <alt_icache_flush_all>
}
     7cc:	00000013          	nop
     7d0:	00c12083          	lw	ra,12(sp)
     7d4:	00812403          	lw	s0,8(sp)
     7d8:	01010113          	add	sp,sp,16
     7dc:	00008067          	ret

000007e0 <alt_main>:
 * devices/filesystems/components in the system; and call the entry point for
 * the users application, i.e. main().
 */

void alt_main (void)
{
     7e0:	fe010113          	add	sp,sp,-32
     7e4:	00112e23          	sw	ra,28(sp)
     7e8:	00812c23          	sw	s0,24(sp)
     7ec:	02010413          	add	s0,sp,32
#endif

  /* ALT LOG - please see HAL/sys/alt_log_printf.h for details */
  ALT_LOG_PRINT_BOOT("[alt_main.c] Entering alt_main, calling alt_irq_init.\r\n");
  /* Initialize the interrupt controller. */
  alt_irq_init (NULL);
     7f0:	00000513          	li	a0,0
     7f4:	0a8000ef          	jal	89c <alt_irq_init>

  /* Initialize the operating system */
  ALT_LOG_PRINT_BOOT("[alt_main.c] Done alt_irq_init, calling alt_os_init.\r\n");
  ALT_OS_INIT();
     7f8:	00000013          	nop
  ALT_LOG_PRINT_BOOT("[alt_main.c] Done OS Init, calling alt_sem_create.\r\n");
  ALT_SEM_CREATE (&alt_fd_list_lock, 1);

  /* Initialize the device drivers/software components. */
  ALT_LOG_PRINT_BOOT("[alt_main.c] Calling alt_sys_init.\r\n");
  alt_sys_init();
     7fc:	0d8000ef          	jal	8d4 <alt_sys_init>
   * devices be present (not equal to /dev/null) and if direct drivers
   * aren't being used.
   */

    ALT_LOG_PRINT_BOOT("[alt_main.c] Redirecting IO.\r\n");
    alt_io_redirect(ALT_STDOUT, ALT_STDIN, ALT_STDERR);
     800:	000087b7          	lui	a5,0x8
     804:	75c78613          	add	a2,a5,1884 # 875c <__fini_array_end+0xc>
     808:	000087b7          	lui	a5,0x8
     80c:	75c78593          	add	a1,a5,1884 # 875c <__fini_array_end+0xc>
     810:	000087b7          	lui	a5,0x8
     814:	75c78513          	add	a0,a5,1884 # 875c <__fini_array_end+0xc>
     818:	370030ef          	jal	3b88 <alt_io_redirect>
  /* 
   * Call the C++ constructors 
   */

  ALT_LOG_PRINT_BOOT("[alt_main.c] Calling C++ constructors.\r\n");
  _do_ctors ();
     81c:	6c5020ef          	jal	36e0 <_do_ctors>
   * redefined as _exit()). This is in the interest of reducing code footprint,
   * in that the atexit() overhead is removed when it's not needed.
   */

  ALT_LOG_PRINT_BOOT("[alt_main.c] Calling atexit.\r\n");
  atexit (_do_dtors);
     820:	000037b7          	lui	a5,0x3
     824:	74078513          	add	a0,a5,1856 # 3740 <_do_dtors>
     828:	4e5030ef          	jal	450c <atexit>
  ALT_LOG_PRINT_BOOT("[alt_main.c] Calling main.\r\n");

#ifdef ALT_NO_EXIT
  main (alt_argc, alt_argv, alt_envp);
#else
  result = main (alt_argc, alt_argv, alt_envp);
     82c:	0000b7b7          	lui	a5,0xb
     830:	7647a703          	lw	a4,1892(a5) # b764 <alt_argc>
     834:	0000b7b7          	lui	a5,0xb
     838:	7687a683          	lw	a3,1896(a5) # b768 <alt_argv>
     83c:	0000b7b7          	lui	a5,0xb
     840:	76c7a783          	lw	a5,1900(a5) # b76c <alt_envp>
     844:	00078613          	mv	a2,a5
     848:	00068593          	mv	a1,a3
     84c:	00070513          	mv	a0,a4
     850:	d01ff0ef          	jal	550 <main>
     854:	fea42623          	sw	a0,-20(s0)
  close(STDOUT_FILENO);
     858:	00100513          	li	a0,1
     85c:	145040ef          	jal	51a0 <close>
  exit (result);
     860:	fec42503          	lw	a0,-20(s0)
     864:	4bd030ef          	jal	4520 <exit>

00000868 <usleep>:
#if defined (__GNUC__) && __GNUC__ >= 4
int ALT_USLEEP (useconds_t us)
#else
unsigned int ALT_USLEEP (unsigned int us)
#endif
{
     868:	fe010113          	add	sp,sp,-32
     86c:	00112e23          	sw	ra,28(sp)
     870:	00812c23          	sw	s0,24(sp)
     874:	02010413          	add	s0,sp,32
     878:	fea42623          	sw	a0,-20(s0)
  return alt_busy_sleep(us);
     87c:	fec42503          	lw	a0,-20(s0)
     880:	46d020ef          	jal	34ec <alt_busy_sleep>
     884:	00050793          	mv	a5,a0
}
     888:	00078513          	mv	a0,a5
     88c:	01c12083          	lw	ra,28(sp)
     890:	01812403          	lw	s0,24(sp)
     894:	02010113          	add	sp,sp,32
     898:	00008067          	ret

0000089c <alt_irq_init>:
 * The "base" parameter is ignored and only
 * present for backwards-compatibility.
 */

void alt_irq_init ( const void* base )
{
     89c:	fe010113          	add	sp,sp,-32
     8a0:	00112e23          	sw	ra,28(sp)
     8a4:	00812c23          	sw	s0,24(sp)
     8a8:	02010413          	add	s0,sp,32
     8ac:	fea42623          	sw	a0,-20(s0)
    INTEL_NIOSV_M_IRQ_INIT ( INTEL_NIOSV_M_0, intel_niosv_m_0);
     8b0:	0cd030ef          	jal	417c <intel_niosv_irq_init>
    NIOSV_SET_CSR(NIOSV_MSTATUS_CSR, NIOSV_MSTATUS_MIE_MASK);
     8b4:	00800793          	li	a5,8
     8b8:	3007a073          	csrs	mstatus,a5
}
     8bc:	00000013          	nop
    alt_irq_cpu_enable_interrupts();
}
     8c0:	00000013          	nop
     8c4:	01c12083          	lw	ra,28(sp)
     8c8:	01812403          	lw	s0,24(sp)
     8cc:	02010113          	add	sp,sp,32
     8d0:	00008067          	ret

000008d4 <alt_sys_init>:
 * Initialize the non-interrupt controller devices.
 * Called after alt_irq_init().
 */

void alt_sys_init( void )
{
     8d4:	fe010113          	add	sp,sp,-32
     8d8:	00112e23          	sw	ra,28(sp)
     8dc:	00812c23          	sw	s0,24(sp)
     8e0:	02010413          	add	s0,sp,32
    ALTERA_AVALON_I2C_INIT ( I2C_0, i2c_0);
     8e4:	000087b7          	lui	a5,0x8
     8e8:	7f078513          	add	a0,a5,2032 # 87f0 <i2c_0>
     8ec:	2e8000ef          	jal	bd4 <alt_avalon_i2c_init>
    ALTERA_AVALON_JTAG_UART_INIT ( JTAG_UART_0, jtag_uart_0);
     8f0:	00000613          	li	a2,0
     8f4:	00000593          	li	a1,0
     8f8:	000097b7          	lui	a5,0x9
     8fc:	85078513          	add	a0,a5,-1968 # 8850 <jtag_uart_0+0x28>
     900:	0fc020ef          	jal	29fc <altera_avalon_jtag_uart_init>
     904:	000097b7          	lui	a5,0x9
     908:	82878513          	add	a0,a5,-2008 # 8828 <jtag_uart_0>
     90c:	4b1020ef          	jal	35bc <alt_dev_reg>
     910:	3e800793          	li	a5,1000
     914:	fef42623          	sw	a5,-20(s0)
 * in order to initialise the value of the clock frequency.
 */

static ALT_INLINE int ALT_ALWAYS_INLINE alt_sysclk_init (alt_u32 nticks)
{
  if (! _alt_tick_rate)
     918:	0000b7b7          	lui	a5,0xb
     91c:	7787a783          	lw	a5,1912(a5) # b778 <_alt_tick_rate>
     920:	00079a63          	bnez	a5,934 <alt_sys_init+0x60>
  {
    _alt_tick_rate = nticks;
     924:	0000b7b7          	lui	a5,0xb
     928:	fec42703          	lw	a4,-20(s0)
     92c:	76e7ac23          	sw	a4,1912(a5) # b778 <_alt_tick_rate>
    return 0;
     930:	0080006f          	j	938 <alt_sys_init+0x64>
  }
  else
  {
    return -1;
     934:	00000013          	nop
     938:	000047b7          	lui	a5,0x4
     93c:	3e478793          	add	a5,a5,996 # 43e4 <alt_niosv_timer_sc_isr>
     940:	fef42423          	sw	a5,-24(s0)
alt_u64 alt_niosv_mtimecmp_get();
void alt_niosv_mtimecmp_interrupt_init();
extern alt_niosv_timer_isr_t alt_niosv_timer_interrupt_handler;

static ALT_INLINE void ALT_ALWAYS_INLINE alt_niosv_register_mtimecmp_interrupt_handle(alt_niosv_timer_isr_t handle) {
    alt_niosv_timer_interrupt_handler = handle;
     944:	0000b7b7          	lui	a5,0xb
     948:	fe842703          	lw	a4,-24(s0)
     94c:	76e7a023          	sw	a4,1888(a5) # b760 <alt_niosv_timer_interrupt_handler>
}
     950:	00000013          	nop
    INTEL_NIOSV_M_INIT ( INTEL_NIOSV_M_0, intel_niosv_m_0);
     954:	33d030ef          	jal	4490 <alt_niosv_mtimecmp_interrupt_init>
}
     958:	00000013          	nop
     95c:	01c12083          	lw	ra,28(sp)
     960:	01812403          	lw	s0,24(sp)
     964:	02010113          	add	sp,sp,32
     968:	00008067          	ret

0000096c <optional_irq_callback>:

/* for all functions in this file, see the altera_avalon_i2c.h file for more complete function descriptions. */

/* optional irq callback */
static void optional_irq_callback(void * context)
{
     96c:	fc010113          	add	sp,sp,-64
     970:	02112e23          	sw	ra,60(sp)
     974:	02812c23          	sw	s0,56(sp)
     978:	04010413          	add	s0,sp,64
     97c:	fca42623          	sw	a0,-52(s0)
     980:	0000b7b7          	lui	a5,0xb
     984:	7b87a703          	lw	a4,1976(a5) # b7b8 <__stack_chk_guard>
     988:	fee42623          	sw	a4,-20(s0)
     98c:	00000713          	li	a4,0
   int timeout=100000;
     990:	000187b7          	lui	a5,0x18
     994:	6a078793          	add	a5,a5,1696 # 186a0 <__alt_heap_start+0xcb60>
     998:	fef42023          	sw	a5,-32(s0)
   alt_u32 bytes_read;

   ALT_AVALON_I2C_DEV_t *i2c_dev = context;
     99c:	fcc42783          	lw	a5,-52(s0)
     9a0:	fef42223          	sw	a5,-28(s0)
   IRQ_DATA_t *irq = i2c_dev->callback_context;
     9a4:	fe442783          	lw	a5,-28(s0)
     9a8:	01c7a783          	lw	a5,28(a5)
     9ac:	fef42423          	sw	a5,-24(s0)

   if (irq->irq_busy==2)  /*receive request*/
     9b0:	fe842783          	lw	a5,-24(s0)
     9b4:	0087a703          	lw	a4,8(a5)
     9b8:	00200793          	li	a5,2
     9bc:	08f71a63          	bne	a4,a5,a50 <optional_irq_callback+0xe4>
   {
       alt_avalon_i2c_rx_read_available(i2c_dev, irq->buffer, irq->size, &bytes_read);
     9c0:	fe842783          	lw	a5,-24(s0)
     9c4:	0007a703          	lw	a4,0(a5)
     9c8:	fe842783          	lw	a5,-24(s0)
     9cc:	0047a783          	lw	a5,4(a5)
     9d0:	fdc40693          	add	a3,s0,-36
     9d4:	00078613          	mv	a2,a5
     9d8:	00070593          	mv	a1,a4
     9dc:	fe442503          	lw	a0,-28(s0)
     9e0:	7f0000ef          	jal	11d0 <alt_avalon_i2c_rx_read_available>
       irq->size-=bytes_read;
     9e4:	fe842783          	lw	a5,-24(s0)
     9e8:	0047a703          	lw	a4,4(a5)
     9ec:	fdc42783          	lw	a5,-36(s0)
     9f0:	40f70733          	sub	a4,a4,a5
     9f4:	fe842783          	lw	a5,-24(s0)
     9f8:	00e7a223          	sw	a4,4(a5)
       irq->buffer+=bytes_read;
     9fc:	fe842783          	lw	a5,-24(s0)
     a00:	0007a703          	lw	a4,0(a5)
     a04:	fdc42783          	lw	a5,-36(s0)
     a08:	00f70733          	add	a4,a4,a5
     a0c:	fe842783          	lw	a5,-24(s0)
     a10:	00e7a023          	sw	a4,0(a5)
       if (irq->size > 0)
     a14:	fe842783          	lw	a5,-24(s0)
     a18:	0047a783          	lw	a5,4(a5)
     a1c:	02078a63          	beqz	a5,a50 <optional_irq_callback+0xe4>
       {
         /* clear ISR register content */
         alt_avalon_i2c_int_clear(i2c_dev,ALT_AVALON_I2C_ISR_ALL_CLEARABLE_INTS_MSK);
     a20:	01c00593          	li	a1,28
     a24:	fe442503          	lw	a0,-28(s0)
     a28:	33d010ef          	jal	2564 <alt_avalon_i2c_int_clear>
         /* re-enable the RX_READY interrupt */
         alt_avalon_i2c_int_enable(i2c_dev,ALT_AVALON_I2C_ISER_RX_READY_EN_MSK);
     a2c:	00200593          	li	a1,2
     a30:	fe442503          	lw	a0,-28(s0)
     a34:	40d010ef          	jal	2640 <alt_avalon_i2c_int_enable>
     a38:	0400006f          	j	a78 <optional_irq_callback+0x10c>
    /*for a write, this code will only be reached after the cmd fifo is*/
    /*empty (sent).  For a read this code will only be reached after all*/
    /*bytes have been received.*/
    while (alt_avalon_i2c_is_busy(i2c_dev)) 
    { 
      if (--timeout == 0)
     a3c:	fe042783          	lw	a5,-32(s0)
     a40:	fff78793          	add	a5,a5,-1
     a44:	fef42023          	sw	a5,-32(s0)
     a48:	fe042783          	lw	a5,-32(s0)
     a4c:	00078c63          	beqz	a5,a64 <optional_irq_callback+0xf8>
    while (alt_avalon_i2c_is_busy(i2c_dev)) 
     a50:	fe442503          	lw	a0,-28(s0)
     a54:	730000ef          	jal	1184 <alt_avalon_i2c_is_busy>
     a58:	00050793          	mv	a5,a0
     a5c:	fe0790e3          	bnez	a5,a3c <optional_irq_callback+0xd0>
     a60:	0080006f          	j	a68 <optional_irq_callback+0xfc>
      {
         break;
     a64:	00000013          	nop
      }
    }

    /*disable the ip.  The ip is disabled and enabled for each transaction.*/
    alt_avalon_i2c_disable(i2c_dev);
     a68:	fe442503          	lw	a0,-28(s0)
     a6c:	36c000ef          	jal	dd8 <alt_avalon_i2c_disable>

    irq->irq_busy=0;
     a70:	fe842783          	lw	a5,-24(s0)
     a74:	0007a423          	sw	zero,8(a5)
}
     a78:	0000b7b7          	lui	a5,0xb
     a7c:	fec42703          	lw	a4,-20(s0)
     a80:	7b87a783          	lw	a5,1976(a5) # b7b8 <__stack_chk_guard>
     a84:	00f747b3          	xor	a5,a4,a5
     a88:	00000713          	li	a4,0
     a8c:	00078463          	beqz	a5,a94 <optional_irq_callback+0x128>
     a90:	764040ef          	jal	51f4 <__stack_chk_fail>
     a94:	03c12083          	lw	ra,60(sp)
     a98:	03812403          	lw	s0,56(sp)
     a9c:	04010113          	add	sp,sp,64
     aa0:	00008067          	ret

00000aa4 <alt_avalon_i2c_register_optional_irq_handler>:

void alt_avalon_i2c_register_optional_irq_handler(ALT_AVALON_I2C_DEV_t *i2c_dev,IRQ_DATA_t * irq_data)
{
     aa4:	fe010113          	add	sp,sp,-32
     aa8:	00112e23          	sw	ra,28(sp)
     aac:	00812c23          	sw	s0,24(sp)
     ab0:	02010413          	add	s0,sp,32
     ab4:	fea42623          	sw	a0,-20(s0)
     ab8:	feb42423          	sw	a1,-24(s0)
   irq_data->irq_busy=0;
     abc:	fe842783          	lw	a5,-24(s0)
     ac0:	0007a423          	sw	zero,8(a5)
   alt_avalon_i2c_register_callback(i2c_dev,optional_irq_callback,0,irq_data);
     ac4:	fe842683          	lw	a3,-24(s0)
     ac8:	00000613          	li	a2,0
     acc:	000017b7          	lui	a5,0x1
     ad0:	96c78593          	add	a1,a5,-1684 # 96c <optional_irq_callback>
     ad4:	fec42503          	lw	a0,-20(s0)
     ad8:	0ac000ef          	jal	b84 <alt_avalon_i2c_register_callback>
}
     adc:	00000013          	nop
     ae0:	01c12083          	lw	ra,28(sp)
     ae4:	01812403          	lw	s0,24(sp)
     ae8:	02010113          	add	sp,sp,32
     aec:	00008067          	ret

00000af0 <alt_avalon_i2c_irq>:
ALT_LLIST_HEAD(alt_avalon_i2c_list);

/* Interrupt handler for the AVALON_I2C module. */
/* Interrupts are not re-enabled in this handler */
static void alt_avalon_i2c_irq(void *context)
{
     af0:	fd010113          	add	sp,sp,-48
     af4:	02112623          	sw	ra,44(sp)
     af8:	02812423          	sw	s0,40(sp)
     afc:	03010413          	add	s0,sp,48
     b00:	fca42e23          	sw	a0,-36(s0)
    ALT_AVALON_I2C_DEV_t *dev = (ALT_AVALON_I2C_DEV_t *) context;
     b04:	fdc42783          	lw	a5,-36(s0)
     b08:	fef42023          	sw	a5,-32(s0)
    alt_irq_context cpu_sr;
     
    /*disable i2c interrupts*/
    alt_avalon_i2c_int_disable(dev,ALT_AVALON_I2C_ISR_ALLINTS_MSK);
     b0c:	01f00593          	li	a1,31
     b10:	fe042503          	lw	a0,-32(s0)
     b14:	291010ef          	jal	25a4 <alt_avalon_i2c_int_disable>
    
    /* clear irq status */
    alt_avalon_i2c_int_clear(dev,ALT_AVALON_I2C_ISR_ALL_CLEARABLE_INTS_MSK);
     b18:	01c00593          	li	a1,28
     b1c:	fe042503          	lw	a0,-32(s0)
     b20:	245010ef          	jal	2564 <alt_avalon_i2c_int_clear>
    * Other interrupts are explicitly disabled if callbacks
    * are registered because there is no guarantee that they are 
    * pre-emption-safe. This allows the driver to support 
    * interrupt pre-emption.
    */
    if(dev->callback) 
     b24:	fe042783          	lw	a5,-32(s0)
     b28:	0187a783          	lw	a5,24(a5)
     b2c:	04078263          	beqz	a5,b70 <alt_avalon_i2c_irq+0x80>
    NIOSV_READ_AND_CLR_CSR(NIOSV_MSTATUS_CSR, context, NIOSV_MSTATUS_MIE_MASK);
     b30:	00800793          	li	a5,8
     b34:	3007b7f3          	csrrc	a5,mstatus,a5
     b38:	fef42623          	sw	a5,-20(s0)
    return context;
     b3c:	fec42783          	lw	a5,-20(s0)
    {
        cpu_sr = alt_irq_disable_all();
     b40:	fef42223          	sw	a5,-28(s0)
        dev->callback(dev);
     b44:	fe042783          	lw	a5,-32(s0)
     b48:	0187a783          	lw	a5,24(a5)
     b4c:	fe042503          	lw	a0,-32(s0)
     b50:	000780e7          	jalr	a5
     b54:	fe442783          	lw	a5,-28(s0)
     b58:	fef42423          	sw	a5,-24(s0)
    NIOSV_SET_CSR(NIOSV_MSTATUS_CSR, context & NIOSV_MSTATUS_MIE_MASK);
     b5c:	fe842783          	lw	a5,-24(s0)
     b60:	0087f793          	and	a5,a5,8
     b64:	3007a073          	csrs	mstatus,a5
}
     b68:	00000013          	nop
        alt_irq_enable_all(cpu_sr);
    }

    return;
     b6c:	00000013          	nop
     b70:	00000013          	nop
}
     b74:	02c12083          	lw	ra,44(sp)
     b78:	02812403          	lw	s0,40(sp)
     b7c:	03010113          	add	sp,sp,48
     b80:	00008067          	ret

00000b84 <alt_avalon_i2c_register_callback>:
void alt_avalon_i2c_register_callback(
    ALT_AVALON_I2C_DEV_t *dev,
    alt_avalon_i2c_callback callback,
    alt_u32 control,
    void *context)
{
     b84:	fe010113          	add	sp,sp,-32
     b88:	00812e23          	sw	s0,28(sp)
     b8c:	02010413          	add	s0,sp,32
     b90:	fea42623          	sw	a0,-20(s0)
     b94:	feb42423          	sw	a1,-24(s0)
     b98:	fec42223          	sw	a2,-28(s0)
     b9c:	fed42023          	sw	a3,-32(s0)
    dev->callback         = callback;
     ba0:	fec42783          	lw	a5,-20(s0)
     ba4:	fe842703          	lw	a4,-24(s0)
     ba8:	00e7ac23          	sw	a4,24(a5)
    dev->callback_context = context;
     bac:	fec42783          	lw	a5,-20(s0)
     bb0:	fe042703          	lw	a4,-32(s0)
     bb4:	00e7ae23          	sw	a4,28(a5)
    dev->control          = control;
     bb8:	fec42783          	lw	a5,-20(s0)
     bbc:	fe442703          	lw	a4,-28(s0)
     bc0:	02e7a023          	sw	a4,32(a5)

    return ;
     bc4:	00000013          	nop
}
     bc8:	01c12403          	lw	s0,28(sp)
     bcc:	02010113          	add	sp,sp,32
     bd0:	00008067          	ret

00000bd4 <alt_avalon_i2c_init>:

 /* Initializes the I2C Module. This routine is called
 * from the ALT_AVALON_I2C_INIT macro and is called automatically
 * by alt_sys_init.c */
void alt_avalon_i2c_init (ALT_AVALON_I2C_DEV_t *dev)
{
     bd4:	fc010113          	add	sp,sp,-64
     bd8:	02112e23          	sw	ra,60(sp)
     bdc:	02812c23          	sw	s0,56(sp)
     be0:	04010413          	add	s0,sp,64
     be4:	fca42623          	sw	a0,-52(s0)
     be8:	0000b7b7          	lui	a5,0xb
     bec:	7b87a703          	lw	a4,1976(a5) # b7b8 <__stack_chk_guard>
     bf0:	fee42623          	sw	a4,-20(s0)
     bf4:	00000713          	li	a4,0
    extern alt_llist alt_avalon_i2c_list;
    ALT_AVALON_I2C_MASTER_CONFIG_t cfg;
    int error;

    /* disable ip */
    alt_avalon_i2c_disable(dev);
     bf8:	fcc42503          	lw	a0,-52(s0)
     bfc:	1dc000ef          	jal	dd8 <alt_avalon_i2c_disable>

    /* Disable interrupts */
    alt_avalon_i2c_int_disable(dev,ALT_AVALON_I2C_ISR_ALLINTS_MSK);
     c00:	01f00593          	li	a1,31
     c04:	fcc42503          	lw	a0,-52(s0)
     c08:	19d010ef          	jal	25a4 <alt_avalon_i2c_int_disable>

    /* clear ISR register content */
    alt_avalon_i2c_int_clear(dev,ALT_AVALON_I2C_ISR_ALL_CLEARABLE_INTS_MSK);
     c0c:	01c00593          	li	a1,28
     c10:	fcc42503          	lw	a0,-52(s0)
     c14:	151010ef          	jal	2564 <alt_avalon_i2c_int_clear>
    
    /* set the cmd fifo threshold */
    alt_avalon_i2c_tfr_cmd_fifo_threshold_set(dev,ALT_AVALON_I2C_TFR_CMD_FIFO_NOT_FULL);
     c18:	00300593          	li	a1,3
     c1c:	fcc42503          	lw	a0,-52(s0)
     c20:	401010ef          	jal	2820 <alt_avalon_i2c_tfr_cmd_fifo_threshold_set>
    
    /* set the tx fifo threshold */
    alt_avalon_i2c_rx_fifo_threshold_set(dev,ALT_AVALON_I2C_RX_DATA_FIFO_FULL);
     c24:	00300593          	li	a1,3
     c28:	fcc42503          	lw	a0,-52(s0)
     c2c:	341010ef          	jal	276c <alt_avalon_i2c_rx_fifo_threshold_set>
    
    /* set the default bus speed */
    cfg.speed_mode = ALT_AVALON_I2C_SPEED_STANDARD;
     c30:	fe042023          	sw	zero,-32(s0)
    
    /*set the address mode */
    cfg.addr_mode = ALT_AVALON_I2C_ADDR_MODE_7_BIT;
     c34:	fc042e23          	sw	zero,-36(s0)
    
    /* set the bus speed */
    alt_avalon_i2c_master_config_speed_set(dev,&cfg,ALT_AVALON_I2C_SS_MAX_HZ);
     c38:	fdc40713          	add	a4,s0,-36
     c3c:	000187b7          	lui	a5,0x18
     c40:	6a078613          	add	a2,a5,1696 # 186a0 <__alt_heap_start+0xcb60>
     c44:	00070593          	mv	a1,a4
     c48:	fcc42503          	lw	a0,-52(s0)
     c4c:	420000ef          	jal	106c <alt_avalon_i2c_master_config_speed_set>
    
    /* write the cfg information */
    alt_avalon_i2c_master_config_set(dev,&cfg);
     c50:	fdc40793          	add	a5,s0,-36
     c54:	00078593          	mv	a1,a5
     c58:	fcc42503          	lw	a0,-52(s0)
     c5c:	2a4000ef          	jal	f00 <alt_avalon_i2c_master_config_set>
    
    /* Register this instance of the i2c controller with HAL */
    alt_dev_llist_insert((alt_dev_llist*) dev, &alt_avalon_i2c_list);
     c60:	0000a7b7          	lui	a5,0xa
     c64:	f6878593          	add	a1,a5,-152 # 9f68 <alt_avalon_i2c_list>
     c68:	fcc42503          	lw	a0,-52(s0)
     c6c:	1cd020ef          	jal	3638 <alt_dev_llist_insert>
 * HAL.
 */

static ALT_INLINE int ALT_ALWAYS_INLINE alt_no_error (void)
{
  return 0;
     c70:	00000793          	li	a5,0

    /*
     * Creating semaphores used to protect access to the registers 
     * when running in a multi-threaded environment.
     */
    error = ALT_SEM_CREATE (&dev->regs_lock, 1);
     c74:	fcf42c23          	sw	a5,-40(s0)

    if (!error)
     c78:	fd842783          	lw	a5,-40(s0)
     c7c:	02079663          	bnez	a5,ca8 <alt_avalon_i2c_init+0xd4>
    {        
        /* Install IRQ handler */
        alt_ic_isr_register(dev->irq_controller_ID, dev->irq_ID, alt_avalon_i2c_irq, dev, 0x0);
     c80:	fcc42783          	lw	a5,-52(s0)
     c84:	0107a503          	lw	a0,16(a5)
     c88:	fcc42783          	lw	a5,-52(s0)
     c8c:	0147a583          	lw	a1,20(a5)
     c90:	00000713          	li	a4,0
     c94:	fcc42683          	lw	a3,-52(s0)
     c98:	000017b7          	lui	a5,0x1
     c9c:	af078613          	add	a2,a5,-1296 # af0 <alt_avalon_i2c_irq>
     ca0:	43d020ef          	jal	38dc <alt_ic_isr_register>
    else
    {
        alt_printf("failed to create semaphores\n");
    }

    return;
     ca4:	0140006f          	j	cb8 <alt_avalon_i2c_init+0xe4>
        alt_printf("failed to create semaphores\n");
     ca8:	000087b7          	lui	a5,0x8
     cac:	79078513          	add	a0,a5,1936 # 8790 <__fini_array_end+0x40>
     cb0:	7d5020ef          	jal	3c84 <alt_printf>
    return;
     cb4:	00000013          	nop

}
     cb8:	0000b7b7          	lui	a5,0xb
     cbc:	fec42703          	lw	a4,-20(s0)
     cc0:	7b87a783          	lw	a5,1976(a5) # b7b8 <__stack_chk_guard>
     cc4:	00f747b3          	xor	a5,a4,a5
     cc8:	00000713          	li	a4,0
     ccc:	00078463          	beqz	a5,cd4 <alt_avalon_i2c_init+0x100>
     cd0:	524040ef          	jal	51f4 <__stack_chk_fail>
     cd4:	03c12083          	lw	ra,60(sp)
     cd8:	03812403          	lw	s0,56(sp)
     cdc:	04010113          	add	sp,sp,64
     ce0:	00008067          	ret

00000ce4 <alt_avalon_i2c_open>:

/*  Retrieve a pointer to the i2c instance */
ALT_AVALON_I2C_DEV_t* alt_avalon_i2c_open(const char* name)
{
     ce4:	fd010113          	add	sp,sp,-48
     ce8:	02112623          	sw	ra,44(sp)
     cec:	02812423          	sw	s0,40(sp)
     cf0:	03010413          	add	s0,sp,48
     cf4:	fca42e23          	sw	a0,-36(s0)
    ALT_AVALON_I2C_DEV_t* dev = NULL;
     cf8:	fe042623          	sw	zero,-20(s0)

    dev = (ALT_AVALON_I2C_DEV_t*) alt_find_dev (name, &alt_avalon_i2c_list);
     cfc:	0000a7b7          	lui	a5,0xa
     d00:	f6878593          	add	a1,a5,-152 # 9f68 <alt_avalon_i2c_list>
     d04:	fdc42503          	lw	a0,-36(s0)
     d08:	299020ef          	jal	37a0 <alt_find_dev>
     d0c:	fea42623          	sw	a0,-20(s0)

    return dev;
     d10:	fec42783          	lw	a5,-20(s0)
}
     d14:	00078513          	mv	a0,a5
     d18:	02c12083          	lw	ra,44(sp)
     d1c:	02812403          	lw	s0,40(sp)
     d20:	03010113          	add	sp,sp,48
     d24:	00008067          	ret

00000d28 <alt_avalon_i2c_enable>:

/* enable the avalon i2c ip */
ALT_AVALON_I2C_STATUS_CODE alt_avalon_i2c_enable(ALT_AVALON_I2C_DEV_t *i2c_dev)
{
     d28:	fc010113          	add	sp,sp,-64
     d2c:	02812e23          	sw	s0,60(sp)
     d30:	04010413          	add	s0,sp,64
     d34:	fca42623          	sw	a0,-52(s0)
   IRQ_DATA_t *irq_data = i2c_dev->callback_context;
     d38:	fcc42783          	lw	a5,-52(s0)
     d3c:	01c7a783          	lw	a5,28(a5)
     d40:	fcf42e23          	sw	a5,-36(s0)
   alt_u32 enable_status;
       
   /*if the ip is already enabled, return a busy status*/
   enable_status = (IORD_ALT_AVALON_I2C_CTRL(i2c_dev->i2c_base) & ALT_AVALON_I2C_CTRL_EN_MSK) >> ALT_AVALON_I2C_CTRL_EN_OFST;
     d44:	fcc42783          	lw	a5,-52(s0)
     d48:	00c7a783          	lw	a5,12(a5)
     d4c:	00878793          	add	a5,a5,8
     d50:	0007a783          	lw	a5,0(a5)
     d54:	fef42023          	sw	a5,-32(s0)
     d58:	fe042783          	lw	a5,-32(s0)
     d5c:	0017f793          	and	a5,a5,1
     d60:	fef42223          	sw	a5,-28(s0)
   if (enable_status)
     d64:	fe442783          	lw	a5,-28(s0)
     d68:	00078663          	beqz	a5,d74 <alt_avalon_i2c_enable+0x4c>
   {
     return ALT_AVALON_I2C_BUSY;
     d6c:	ff900793          	li	a5,-7
     d70:	0580006f          	j	dc8 <alt_avalon_i2c_enable+0xa0>
   }
   
   /*if the optional irq callback is registered ensure irq_busy is 0*/
   if (i2c_dev->callback == optional_irq_callback)
     d74:	fcc42783          	lw	a5,-52(s0)
     d78:	0187a703          	lw	a4,24(a5)
     d7c:	000017b7          	lui	a5,0x1
     d80:	96c78793          	add	a5,a5,-1684 # 96c <optional_irq_callback>
     d84:	00f71663          	bne	a4,a5,d90 <alt_avalon_i2c_enable+0x68>
   {
     irq_data->irq_busy=0;
     d88:	fdc42783          	lw	a5,-36(s0)
     d8c:	0007a423          	sw	zero,8(a5)
   }
   
   /* enable ip */
   IORMW_ALT_AVALON_I2C_CTRL(i2c_dev->i2c_base,ALT_AVALON_I2C_CTRL_EN_MSK,ALT_AVALON_I2C_CTRL_EN_MSK);
     d90:	fcc42783          	lw	a5,-52(s0)
     d94:	00c7a783          	lw	a5,12(a5)
     d98:	00878793          	add	a5,a5,8
     d9c:	0007a783          	lw	a5,0(a5)
     da0:	fef42423          	sw	a5,-24(s0)
     da4:	fe842783          	lw	a5,-24(s0)
     da8:	0017e793          	or	a5,a5,1
     dac:	fef42623          	sw	a5,-20(s0)
     db0:	fcc42783          	lw	a5,-52(s0)
     db4:	00c7a783          	lw	a5,12(a5)
     db8:	00878793          	add	a5,a5,8
     dbc:	fec42703          	lw	a4,-20(s0)
     dc0:	00e7a023          	sw	a4,0(a5)

   return ALT_AVALON_I2C_SUCCESS;
     dc4:	00000793          	li	a5,0
}
     dc8:	00078513          	mv	a0,a5
     dcc:	03c12403          	lw	s0,60(sp)
     dd0:	04010113          	add	sp,sp,64
     dd4:	00008067          	ret

00000dd8 <alt_avalon_i2c_disable>:

/* disable the avalon i2c ip */
void alt_avalon_i2c_disable(ALT_AVALON_I2C_DEV_t *i2c_dev)
{
     dd8:	fd010113          	add	sp,sp,-48
     ddc:	02812623          	sw	s0,44(sp)
     de0:	03010413          	add	s0,sp,48
     de4:	fca42e23          	sw	a0,-36(s0)
   /* disable ip */
   IORMW_ALT_AVALON_I2C_CTRL(i2c_dev->i2c_base,0,ALT_AVALON_I2C_CTRL_EN_MSK);
     de8:	fdc42783          	lw	a5,-36(s0)
     dec:	00c7a783          	lw	a5,12(a5)
     df0:	00878793          	add	a5,a5,8
     df4:	0007a783          	lw	a5,0(a5)
     df8:	fef42423          	sw	a5,-24(s0)
     dfc:	fe842783          	lw	a5,-24(s0)
     e00:	ffe7f793          	and	a5,a5,-2
     e04:	fef42623          	sw	a5,-20(s0)
     e08:	fdc42783          	lw	a5,-36(s0)
     e0c:	00c7a783          	lw	a5,12(a5)
     e10:	00878793          	add	a5,a5,8
     e14:	fec42703          	lw	a4,-20(s0)
     e18:	00e7a023          	sw	a4,0(a5)

}
     e1c:	00000013          	nop
     e20:	02c12403          	lw	s0,44(sp)
     e24:	03010113          	add	sp,sp,48
     e28:	00008067          	ret

00000e2c <alt_avalon_i2c_master_config_get>:

/* populate the the master config structure from the register values */
void alt_avalon_i2c_master_config_get(ALT_AVALON_I2C_DEV_t *i2c_dev,
                                          ALT_AVALON_I2C_MASTER_CONFIG_t* cfg)
{
     e2c:	fd010113          	add	sp,sp,-48
     e30:	02812623          	sw	s0,44(sp)
     e34:	03010413          	add	s0,sp,48
     e38:	fca42e23          	sw	a0,-36(s0)
     e3c:	fcb42c23          	sw	a1,-40(s0)

    cfg->addr_mode = i2c_dev->address_mode;
     e40:	fdc42783          	lw	a5,-36(s0)
     e44:	0347a703          	lw	a4,52(a5)
     e48:	fd842783          	lw	a5,-40(s0)
     e4c:	00e7a023          	sw	a4,0(a5)
    cfg->speed_mode = (IORD_ALT_AVALON_I2C_CTRL(i2c_dev->i2c_base) & ALT_AVALON_I2C_CTRL_BUS_SPEED_MSK) >> ALT_AVALON_I2C_CTRL_BUS_SPEED_OFST;    
     e50:	fdc42783          	lw	a5,-36(s0)
     e54:	00c7a783          	lw	a5,12(a5)
     e58:	00878793          	add	a5,a5,8
     e5c:	0007a783          	lw	a5,0(a5)
     e60:	fef42023          	sw	a5,-32(s0)
     e64:	fe042783          	lw	a5,-32(s0)
     e68:	0017d793          	srl	a5,a5,0x1
     e6c:	0017f713          	and	a4,a5,1
     e70:	fd842783          	lw	a5,-40(s0)
     e74:	00e7a223          	sw	a4,4(a5)

    cfg->scl_hcnt = (IORD_ALT_AVALON_I2C_SCL_HIGH(i2c_dev->i2c_base) & ALT_AVALON_I2C_SCL_HIGH_COUNT_PERIOD_MSK) >> ALT_AVALON_I2C_SCL_HIGH_COUNT_PERIOD_OFST;    
     e78:	fdc42783          	lw	a5,-36(s0)
     e7c:	00c7a783          	lw	a5,12(a5)
     e80:	02478793          	add	a5,a5,36
     e84:	0007a783          	lw	a5,0(a5)
     e88:	fef42223          	sw	a5,-28(s0)
     e8c:	fe442783          	lw	a5,-28(s0)
     e90:	01079713          	sll	a4,a5,0x10
     e94:	01075713          	srl	a4,a4,0x10
     e98:	fd842783          	lw	a5,-40(s0)
     e9c:	00e79423          	sh	a4,8(a5)
    cfg->scl_lcnt = (IORD_ALT_AVALON_I2C_SCL_LOW(i2c_dev->i2c_base) & ALT_AVALON_I2C_SCL_LOW_COUNT_PERIOD_MSK) >> ALT_AVALON_I2C_SCL_LOW_COUNT_PERIOD_OFST;    
     ea0:	fdc42783          	lw	a5,-36(s0)
     ea4:	00c7a783          	lw	a5,12(a5)
     ea8:	02078793          	add	a5,a5,32
     eac:	0007a783          	lw	a5,0(a5)
     eb0:	fef42423          	sw	a5,-24(s0)
     eb4:	fe842783          	lw	a5,-24(s0)
     eb8:	01079713          	sll	a4,a5,0x10
     ebc:	01075713          	srl	a4,a4,0x10
     ec0:	fd842783          	lw	a5,-40(s0)
     ec4:	00e79523          	sh	a4,10(a5)
    cfg->sda_cnt = (IORD_ALT_AVALON_I2C_SDA_HOLD(i2c_dev->i2c_base) & ALT_AVALON_I2C_SDA_HOLD_COUNT_PERIOD_MSK) >> ALT_AVALON_I2C_SDA_HOLD_COUNT_PERIOD_OFST;    
     ec8:	fdc42783          	lw	a5,-36(s0)
     ecc:	00c7a783          	lw	a5,12(a5)
     ed0:	02878793          	add	a5,a5,40
     ed4:	0007a783          	lw	a5,0(a5)
     ed8:	fef42623          	sw	a5,-20(s0)
     edc:	fec42783          	lw	a5,-20(s0)
     ee0:	01079713          	sll	a4,a5,0x10
     ee4:	01075713          	srl	a4,a4,0x10
     ee8:	fd842783          	lw	a5,-40(s0)
     eec:	00e79623          	sh	a4,12(a5)
}
     ef0:	00000013          	nop
     ef4:	02c12403          	lw	s0,44(sp)
     ef8:	03010113          	add	sp,sp,48
     efc:	00008067          	ret

00000f00 <alt_avalon_i2c_master_config_set>:

/* set the registers from the master config structure */
void alt_avalon_i2c_master_config_set(ALT_AVALON_I2C_DEV_t *i2c_dev,
                                          const ALT_AVALON_I2C_MASTER_CONFIG_t* cfg)
{
     f00:	fc010113          	add	sp,sp,-64
     f04:	02812e23          	sw	s0,60(sp)
     f08:	04010413          	add	s0,sp,64
     f0c:	fca42623          	sw	a0,-52(s0)
     f10:	fcb42423          	sw	a1,-56(s0)
    i2c_dev->address_mode   =   cfg->addr_mode;
     f14:	fc842783          	lw	a5,-56(s0)
     f18:	0007a703          	lw	a4,0(a5)
     f1c:	fcc42783          	lw	a5,-52(s0)
     f20:	02e7aa23          	sw	a4,52(a5)
    IORMW_ALT_AVALON_I2C_CTRL(i2c_dev->i2c_base,(cfg->speed_mode) << ALT_AVALON_I2C_CTRL_BUS_SPEED_OFST,ALT_AVALON_I2C_CTRL_BUS_SPEED_MSK);
     f24:	fcc42783          	lw	a5,-52(s0)
     f28:	00c7a783          	lw	a5,12(a5)
     f2c:	00878793          	add	a5,a5,8
     f30:	0007a783          	lw	a5,0(a5)
     f34:	fcf42e23          	sw	a5,-36(s0)
     f38:	fdc42783          	lw	a5,-36(s0)
     f3c:	ffd7f713          	and	a4,a5,-3
     f40:	fc842783          	lw	a5,-56(s0)
     f44:	0047a783          	lw	a5,4(a5)
     f48:	00179793          	sll	a5,a5,0x1
     f4c:	0027f793          	and	a5,a5,2
     f50:	00f767b3          	or	a5,a4,a5
     f54:	fef42023          	sw	a5,-32(s0)
     f58:	fcc42783          	lw	a5,-52(s0)
     f5c:	00c7a783          	lw	a5,12(a5)
     f60:	00878793          	add	a5,a5,8
     f64:	fe042703          	lw	a4,-32(s0)
     f68:	00e7a023          	sw	a4,0(a5)

    IOWR_ALT_AVALON_I2C_SCL_HIGH(i2c_dev->i2c_base,cfg->scl_hcnt);
     f6c:	fc842783          	lw	a5,-56(s0)
     f70:	0087d783          	lhu	a5,8(a5)
     f74:	fef42223          	sw	a5,-28(s0)
     f78:	fcc42783          	lw	a5,-52(s0)
     f7c:	00c7a783          	lw	a5,12(a5)
     f80:	02478793          	add	a5,a5,36
     f84:	fe442703          	lw	a4,-28(s0)
     f88:	00e7a023          	sw	a4,0(a5)
    IOWR_ALT_AVALON_I2C_SCL_LOW(i2c_dev->i2c_base,cfg->scl_lcnt);
     f8c:	fc842783          	lw	a5,-56(s0)
     f90:	00a7d783          	lhu	a5,10(a5)
     f94:	fef42423          	sw	a5,-24(s0)
     f98:	fcc42783          	lw	a5,-52(s0)
     f9c:	00c7a783          	lw	a5,12(a5)
     fa0:	02078793          	add	a5,a5,32
     fa4:	fe842703          	lw	a4,-24(s0)
     fa8:	00e7a023          	sw	a4,0(a5)
    IOWR_ALT_AVALON_I2C_SDA_HOLD(i2c_dev->i2c_base,cfg->sda_cnt);
     fac:	fc842783          	lw	a5,-56(s0)
     fb0:	00c7d783          	lhu	a5,12(a5)
     fb4:	fef42623          	sw	a5,-20(s0)
     fb8:	fcc42783          	lw	a5,-52(s0)
     fbc:	00c7a783          	lw	a5,12(a5)
     fc0:	02878793          	add	a5,a5,40
     fc4:	fec42703          	lw	a4,-20(s0)
     fc8:	00e7a023          	sw	a4,0(a5)
}
     fcc:	00000013          	nop
     fd0:	03c12403          	lw	s0,60(sp)
     fd4:	04010113          	add	sp,sp,64
     fd8:	00008067          	ret

00000fdc <alt_avalon_i2c_master_config_speed_get>:
 * I2C master configuration.
*/
ALT_AVALON_I2C_STATUS_CODE alt_avalon_i2c_master_config_speed_get(ALT_AVALON_I2C_DEV_t *i2c_dev,
                                                const ALT_AVALON_I2C_MASTER_CONFIG_t* cfg,
                                                alt_u32 * speed_in_hz)
{
     fdc:	fe010113          	add	sp,sp,-32
     fe0:	00112e23          	sw	ra,28(sp)
     fe4:	00812c23          	sw	s0,24(sp)
     fe8:	02010413          	add	s0,sp,32
     fec:	fea42623          	sw	a0,-20(s0)
     ff0:	feb42423          	sw	a1,-24(s0)
     ff4:	fec42223          	sw	a2,-28(s0)

   if ((cfg->scl_lcnt == 0) || (cfg->scl_hcnt == 0))
     ff8:	fe842783          	lw	a5,-24(s0)
     ffc:	00a7d783          	lhu	a5,10(a5)
    1000:	00078863          	beqz	a5,1010 <alt_avalon_i2c_master_config_speed_get+0x34>
    1004:	fe842783          	lw	a5,-24(s0)
    1008:	0087d783          	lhu	a5,8(a5)
    100c:	00079663          	bnez	a5,1018 <alt_avalon_i2c_master_config_speed_get+0x3c>
   {
       return ALT_AVALON_I2C_BAD_ARG;
    1010:	ffd00793          	li	a5,-3
    1014:	0440006f          	j	1058 <alt_avalon_i2c_master_config_speed_get+0x7c>
   }
    
   *speed_in_hz = (i2c_dev->ip_freq_in_hz) / (cfg->scl_lcnt + cfg->scl_hcnt);
    1018:	fec42783          	lw	a5,-20(s0)
    101c:	0307a703          	lw	a4,48(a5)
    1020:	fe842783          	lw	a5,-24(s0)
    1024:	00a7d783          	lhu	a5,10(a5)
    1028:	00078693          	mv	a3,a5
    102c:	fe842783          	lw	a5,-24(s0)
    1030:	0087d783          	lhu	a5,8(a5)
    1034:	00f687b3          	add	a5,a3,a5
    1038:	00078593          	mv	a1,a5
    103c:	00070513          	mv	a0,a4
    1040:	055060ef          	jal	7894 <__hidden___udivsi3>
    1044:	00050793          	mv	a5,a0
    1048:	00078713          	mv	a4,a5
    104c:	fe442783          	lw	a5,-28(s0)
    1050:	00e7a023          	sw	a4,0(a5)

   return ALT_AVALON_I2C_SUCCESS;
    1054:	00000793          	li	a5,0
}
    1058:	00078513          	mv	a0,a5
    105c:	01c12083          	lw	ra,28(sp)
    1060:	01812403          	lw	s0,24(sp)
    1064:	02010113          	add	sp,sp,32
    1068:	00008067          	ret

0000106c <alt_avalon_i2c_master_config_speed_set>:
/*This is a utility function that computes parameters for the I2C master
 * configuration that best matches the speed requested. */
 ALT_AVALON_I2C_STATUS_CODE alt_avalon_i2c_master_config_speed_set(ALT_AVALON_I2C_DEV_t *i2c_dev,
                                                ALT_AVALON_I2C_MASTER_CONFIG_t * cfg,
                                                alt_u32 speed_in_hz)
{
    106c:	fd010113          	add	sp,sp,-48
    1070:	02112623          	sw	ra,44(sp)
    1074:	02812423          	sw	s0,40(sp)
    1078:	03010413          	add	s0,sp,48
    107c:	fca42e23          	sw	a0,-36(s0)
    1080:	fcb42c23          	sw	a1,-40(s0)
    1084:	fcc42a23          	sw	a2,-44(s0)
    alt_u32 scl_lcnt,scl_hcnt;

    /* If speed is not standard or fast return range error */
    if ((speed_in_hz > ALT_AVALON_I2C_FS_MAX_HZ) || (speed_in_hz < ALT_AVALON_I2C_SS_MIN_HZ) || (speed_in_hz == 0))
    1088:	fd442703          	lw	a4,-44(s0)
    108c:	000627b7          	lui	a5,0x62
    1090:	a8078793          	add	a5,a5,-1408 # 61a80 <__alt_data_end+0x41a80>
    1094:	00e7ea63          	bltu	a5,a4,10a8 <alt_avalon_i2c_master_config_speed_set+0x3c>
    1098:	fd442783          	lw	a5,-44(s0)
    109c:	00078663          	beqz	a5,10a8 <alt_avalon_i2c_master_config_speed_set+0x3c>
    10a0:	fd442783          	lw	a5,-44(s0)
    10a4:	00079663          	bnez	a5,10b0 <alt_avalon_i2c_master_config_speed_set+0x44>
    {
        return ALT_AVALON_I2C_RANGE;
    10a8:	ffc00793          	li	a5,-4
    10ac:	0c40006f          	j	1170 <alt_avalon_i2c_master_config_speed_set+0x104>
    }

     /* <lcount> = <internal clock> / 2 * <speed, Hz> */
    scl_lcnt = (i2c_dev->ip_freq_in_hz) / (speed_in_hz << 1);
    10b0:	fdc42783          	lw	a5,-36(s0)
    10b4:	0307a703          	lw	a4,48(a5)
    10b8:	fd442783          	lw	a5,-44(s0)
    10bc:	00179793          	sll	a5,a5,0x1
    10c0:	00078593          	mv	a1,a5
    10c4:	00070513          	mv	a0,a4
    10c8:	7cc060ef          	jal	7894 <__hidden___udivsi3>
    10cc:	00050793          	mv	a5,a0
    10d0:	fef42423          	sw	a5,-24(s0)

    /* adjust h/l by predetermined amount */
    scl_hcnt = scl_lcnt + ALT_AVALON_I2C_DIFF_LCNT_HCNT;
    10d4:	fe842783          	lw	a5,-24(s0)
    10d8:	03c78793          	add	a5,a5,60
    10dc:	fef42623          	sw	a5,-20(s0)
    scl_lcnt = scl_lcnt - ALT_AVALON_I2C_DIFF_LCNT_HCNT;
    10e0:	fe842783          	lw	a5,-24(s0)
    10e4:	fc478793          	add	a5,a5,-60
    10e8:	fef42423          	sw	a5,-24(s0)

    if (speed_in_hz > ALT_AVALON_I2C_FS_MIN_HZ)
    10ec:	fd442703          	lw	a4,-44(s0)
    10f0:	000187b7          	lui	a5,0x18
    10f4:	6a078793          	add	a5,a5,1696 # 186a0 <__alt_heap_start+0xcb60>
    10f8:	00e7fa63          	bgeu	a5,a4,110c <alt_avalon_i2c_master_config_speed_set+0xa0>
    {
       cfg->speed_mode = ALT_AVALON_I2C_SPEED_FAST;
    10fc:	fd842783          	lw	a5,-40(s0)
    1100:	00100713          	li	a4,1
    1104:	00e7a223          	sw	a4,4(a5)
    1108:	00c0006f          	j	1114 <alt_avalon_i2c_master_config_speed_set+0xa8>
    }
    else 
    {
       cfg->speed_mode = ALT_AVALON_I2C_SPEED_STANDARD;    
    110c:	fd842783          	lw	a5,-40(s0)
    1110:	0007a223          	sw	zero,4(a5)
    }

    cfg->scl_lcnt = scl_lcnt;
    1114:	fe842783          	lw	a5,-24(s0)
    1118:	01079713          	sll	a4,a5,0x10
    111c:	01075713          	srl	a4,a4,0x10
    1120:	fd842783          	lw	a5,-40(s0)
    1124:	00e79523          	sh	a4,10(a5)
    cfg->scl_hcnt = scl_hcnt;
    1128:	fec42783          	lw	a5,-20(s0)
    112c:	01079713          	sll	a4,a5,0x10
    1130:	01075713          	srl	a4,a4,0x10
    1134:	fd842783          	lw	a5,-40(s0)
    1138:	00e79423          	sh	a4,8(a5)
    cfg->sda_cnt  = scl_lcnt - (scl_lcnt / 2);
    113c:	fe842783          	lw	a5,-24(s0)
    1140:	01079713          	sll	a4,a5,0x10
    1144:	01075713          	srl	a4,a4,0x10
    1148:	fe842783          	lw	a5,-24(s0)
    114c:	0017d793          	srl	a5,a5,0x1
    1150:	01079793          	sll	a5,a5,0x10
    1154:	0107d793          	srl	a5,a5,0x10
    1158:	40f707b3          	sub	a5,a4,a5
    115c:	01079713          	sll	a4,a5,0x10
    1160:	01075713          	srl	a4,a4,0x10
    1164:	fd842783          	lw	a5,-40(s0)
    1168:	00e79623          	sh	a4,12(a5)

    return ALT_AVALON_I2C_SUCCESS;
    116c:	00000793          	li	a5,0

}
    1170:	00078513          	mv	a0,a5
    1174:	02c12083          	lw	ra,44(sp)
    1178:	02812403          	lw	s0,40(sp)
    117c:	03010113          	add	sp,sp,48
    1180:	00008067          	ret

00001184 <alt_avalon_i2c_is_busy>:

/*Returns ALT_AVALON_I2C_TRUE if the I2C controller is busy. The I2C controller is busy if
 * not in the IDLE state */
ALT_AVALON_I2C_STATUS_CODE alt_avalon_i2c_is_busy(ALT_AVALON_I2C_DEV_t *i2c_dev)
{
    1184:	fd010113          	add	sp,sp,-48
    1188:	02812623          	sw	s0,44(sp)
    118c:	03010413          	add	s0,sp,48
    1190:	fca42e23          	sw	a0,-36(s0)

    if (IORD_ALT_AVALON_I2C_STATUS(i2c_dev->i2c_base) & ALT_AVALON_I2C_STATUS_CORE_STATUS_MSK)
    1194:	fdc42783          	lw	a5,-36(s0)
    1198:	00c7a783          	lw	a5,12(a5)
    119c:	01478793          	add	a5,a5,20
    11a0:	0007a783          	lw	a5,0(a5)
    11a4:	fef42623          	sw	a5,-20(s0)
    11a8:	fec42783          	lw	a5,-20(s0)
    11ac:	0017f793          	and	a5,a5,1
    11b0:	00078663          	beqz	a5,11bc <alt_avalon_i2c_is_busy+0x38>
    {
       return ALT_AVALON_I2C_TRUE;
    11b4:	00100793          	li	a5,1
    11b8:	0080006f          	j	11c0 <alt_avalon_i2c_is_busy+0x3c>
    }

    return ALT_AVALON_I2C_FALSE;
    11bc:	00000793          	li	a5,0
}
    11c0:	00078513          	mv	a0,a5
    11c4:	02c12403          	lw	s0,44(sp)
    11c8:	03010113          	add	sp,sp,48
    11cc:	00008067          	ret

000011d0 <alt_avalon_i2c_rx_read_available>:

/*Read all available bytes from the receive FIFO up to max_bytes_to_read.  If max_bytes_to_read = 0 then read all available */
void alt_avalon_i2c_rx_read_available(ALT_AVALON_I2C_DEV_t *i2c_dev, alt_u8 *buffer, alt_u32 max_bytes_to_read, alt_u32 *bytes_read)
{
    11d0:	fd010113          	add	sp,sp,-48
    11d4:	02812623          	sw	s0,44(sp)
    11d8:	03010413          	add	s0,sp,48
    11dc:	fca42e23          	sw	a0,-36(s0)
    11e0:	fcb42c23          	sw	a1,-40(s0)
    11e4:	fcc42a23          	sw	a2,-44(s0)
    11e8:	fcd42823          	sw	a3,-48(s0)
    *bytes_read = 0;
    11ec:	fd042783          	lw	a5,-48(s0)
    11f0:	0007a023          	sw	zero,0(a5)
    
    while (IORD_ALT_AVALON_I2C_RX_DATA_FIFO_LVL(i2c_dev->i2c_base))
    11f4:	0600006f          	j	1254 <alt_avalon_i2c_rx_read_available+0x84>
    {
       buffer[*bytes_read] = (alt_u8)IORD_ALT_AVALON_I2C_RX_DATA(i2c_dev->i2c_base);
    11f8:	fdc42783          	lw	a5,-36(s0)
    11fc:	00c7a783          	lw	a5,12(a5)
    1200:	00478793          	add	a5,a5,4
    1204:	0007a783          	lw	a5,0(a5)
    1208:	fef42623          	sw	a5,-20(s0)
    120c:	fec42683          	lw	a3,-20(s0)
    1210:	fd042783          	lw	a5,-48(s0)
    1214:	0007a783          	lw	a5,0(a5)
    1218:	fd842703          	lw	a4,-40(s0)
    121c:	00f707b3          	add	a5,a4,a5
    1220:	0ff6f713          	zext.b	a4,a3
    1224:	00e78023          	sb	a4,0(a5)
       *bytes_read+=1; 
    1228:	fd042783          	lw	a5,-48(s0)
    122c:	0007a783          	lw	a5,0(a5)
    1230:	00178713          	add	a4,a5,1
    1234:	fd042783          	lw	a5,-48(s0)
    1238:	00e7a023          	sw	a4,0(a5)
       if ((*bytes_read == max_bytes_to_read) && (max_bytes_to_read != 0)) break;       
    123c:	fd042783          	lw	a5,-48(s0)
    1240:	0007a783          	lw	a5,0(a5)
    1244:	fd442703          	lw	a4,-44(s0)
    1248:	00f71663          	bne	a4,a5,1254 <alt_avalon_i2c_rx_read_available+0x84>
    124c:	fd442783          	lw	a5,-44(s0)
    1250:	02079263          	bnez	a5,1274 <alt_avalon_i2c_rx_read_available+0xa4>
    while (IORD_ALT_AVALON_I2C_RX_DATA_FIFO_LVL(i2c_dev->i2c_base))
    1254:	fdc42783          	lw	a5,-36(s0)
    1258:	00c7a783          	lw	a5,12(a5)
    125c:	01c78793          	add	a5,a5,28
    1260:	0007a783          	lw	a5,0(a5)
    1264:	fef42423          	sw	a5,-24(s0)
    1268:	fe842783          	lw	a5,-24(s0)
    126c:	f80796e3          	bnez	a5,11f8 <alt_avalon_i2c_rx_read_available+0x28>
    }
}
    1270:	0080006f          	j	1278 <alt_avalon_i2c_rx_read_available+0xa8>
       if ((*bytes_read == max_bytes_to_read) && (max_bytes_to_read != 0)) break;       
    1274:	00000013          	nop
}
    1278:	00000013          	nop
    127c:	02c12403          	lw	s0,44(sp)
    1280:	03010113          	add	sp,sp,48
    1284:	00008067          	ret

00001288 <alt_avalon_i2c_rx_read>:

/*when a byte is available, reads a single data byte from the receive FIFO. */
ALT_AVALON_I2C_STATUS_CODE alt_avalon_i2c_rx_read(ALT_AVALON_I2C_DEV_t *i2c_dev, alt_u8 *val)
{
    1288:	fd010113          	add	sp,sp,-48
    128c:	02112623          	sw	ra,44(sp)
    1290:	02812423          	sw	s0,40(sp)
    1294:	03010413          	add	s0,sp,48
    1298:	fca42e23          	sw	a0,-36(s0)
    129c:	fcb42c23          	sw	a1,-40(s0)
    alt_u32 status = ALT_AVALON_I2C_SUCCESS;
    12a0:	fe042023          	sw	zero,-32(s0)
    alt_u32 timeout = 100000;
    12a4:	000187b7          	lui	a5,0x18
    12a8:	6a078793          	add	a5,a5,1696 # 186a0 <__alt_heap_start+0xcb60>
    12ac:	fef42223          	sw	a5,-28(s0)


    while (IORD_ALT_AVALON_I2C_RX_DATA_FIFO_LVL(i2c_dev->i2c_base) == 0)
    12b0:	03c0006f          	j	12ec <alt_avalon_i2c_rx_read+0x64>
    {
      if (timeout<10) alt_busy_sleep(10000);
    12b4:	fe442703          	lw	a4,-28(s0)
    12b8:	00900793          	li	a5,9
    12bc:	00e7e863          	bltu	a5,a4,12cc <alt_avalon_i2c_rx_read+0x44>
    12c0:	000027b7          	lui	a5,0x2
    12c4:	71078513          	add	a0,a5,1808 # 2710 <alt_avalon_i2c_enabled_ints_get+0x38>
    12c8:	224020ef          	jal	34ec <alt_busy_sleep>
      if (--timeout == 0)
    12cc:	fe442783          	lw	a5,-28(s0)
    12d0:	fff78793          	add	a5,a5,-1
    12d4:	fef42223          	sw	a5,-28(s0)
    12d8:	fe442783          	lw	a5,-28(s0)
    12dc:	00079863          	bnez	a5,12ec <alt_avalon_i2c_rx_read+0x64>
      {
        status = ALT_AVALON_I2C_TIMEOUT;
    12e0:	ffe00793          	li	a5,-2
    12e4:	fef42023          	sw	a5,-32(s0)
        break;
    12e8:	0200006f          	j	1308 <alt_avalon_i2c_rx_read+0x80>
    while (IORD_ALT_AVALON_I2C_RX_DATA_FIFO_LVL(i2c_dev->i2c_base) == 0)
    12ec:	fdc42783          	lw	a5,-36(s0)
    12f0:	00c7a783          	lw	a5,12(a5)
    12f4:	01c78793          	add	a5,a5,28
    12f8:	0007a783          	lw	a5,0(a5)
    12fc:	fef42423          	sw	a5,-24(s0)
    1300:	fe842783          	lw	a5,-24(s0)
    1304:	fa0788e3          	beqz	a5,12b4 <alt_avalon_i2c_rx_read+0x2c>
      }
    }

    *val = (alt_u8)IORD_ALT_AVALON_I2C_RX_DATA(i2c_dev->i2c_base);
    1308:	fdc42783          	lw	a5,-36(s0)
    130c:	00c7a783          	lw	a5,12(a5)
    1310:	00478793          	add	a5,a5,4
    1314:	0007a783          	lw	a5,0(a5)
    1318:	fef42623          	sw	a5,-20(s0)
    131c:	fec42783          	lw	a5,-20(s0)
    1320:	0ff7f713          	zext.b	a4,a5
    1324:	fd842783          	lw	a5,-40(s0)
    1328:	00e78023          	sb	a4,0(a5)
        
    return status;
    132c:	fe042783          	lw	a5,-32(s0)
}
    1330:	00078513          	mv	a0,a5
    1334:	02c12083          	lw	ra,44(sp)
    1338:	02812403          	lw	s0,40(sp)
    133c:	03010113          	add	sp,sp,48
    1340:	00008067          	ret

00001344 <alt_avalon_i2c_cmd_write>:
/* When space is available, writes the Transfer Command FIFO. */
ALT_AVALON_I2C_STATUS_CODE alt_avalon_i2c_cmd_write(ALT_AVALON_I2C_DEV_t *i2c_dev, 
                                                      alt_u8 val,
                                                      alt_u8 issue_restart,
                                                      alt_u8 issue_stop)
{
    1344:	fc010113          	add	sp,sp,-64
    1348:	02112e23          	sw	ra,60(sp)
    134c:	02812c23          	sw	s0,56(sp)
    1350:	04010413          	add	s0,sp,64
    1354:	fca42623          	sw	a0,-52(s0)
    1358:	00058793          	mv	a5,a1
    135c:	00068713          	mv	a4,a3
    1360:	fcf405a3          	sb	a5,-53(s0)
    1364:	00060793          	mv	a5,a2
    1368:	fcf40523          	sb	a5,-54(s0)
    136c:	00070793          	mv	a5,a4
    1370:	fcf404a3          	sb	a5,-55(s0)
    1374:	0000b7b7          	lui	a5,0xb
    1378:	7b87a703          	lw	a4,1976(a5) # b7b8 <__stack_chk_guard>
    137c:	fee42623          	sw	a4,-20(s0)
    1380:	00000713          	li	a4,0
    alt_u32 timeout = 10000;
    1384:	000027b7          	lui	a5,0x2
    1388:	71078793          	add	a5,a5,1808 # 2710 <alt_avalon_i2c_enabled_ints_get+0x38>
    138c:	fef42023          	sw	a5,-32(s0)
    ALT_AVALON_I2C_STATUS_CODE status = ALT_AVALON_I2C_SUCCESS;
    1390:	fc042e23          	sw	zero,-36(s0)


    while ((IORD_ALT_AVALON_I2C_ISR(i2c_dev->i2c_base) & ALT_AVALON_I2C_ISR_TX_READY_MSK)==0) 
    1394:	0380006f          	j	13cc <alt_avalon_i2c_cmd_write+0x88>
    {
      if (timeout<10) alt_busy_sleep(10000);    
    1398:	fe042703          	lw	a4,-32(s0)
    139c:	00900793          	li	a5,9
    13a0:	00e7e863          	bltu	a5,a4,13b0 <alt_avalon_i2c_cmd_write+0x6c>
    13a4:	000027b7          	lui	a5,0x2
    13a8:	71078513          	add	a0,a5,1808 # 2710 <alt_avalon_i2c_enabled_ints_get+0x38>
    13ac:	140020ef          	jal	34ec <alt_busy_sleep>
      if (--timeout == 0)
    13b0:	fe042783          	lw	a5,-32(s0)
    13b4:	fff78793          	add	a5,a5,-1
    13b8:	fef42023          	sw	a5,-32(s0)
    13bc:	fe042783          	lw	a5,-32(s0)
    13c0:	00079663          	bnez	a5,13cc <alt_avalon_i2c_cmd_write+0x88>
      {
        return ALT_AVALON_I2C_TIMEOUT;
    13c4:	ffe00793          	li	a5,-2
    13c8:	0780006f          	j	1440 <alt_avalon_i2c_cmd_write+0xfc>
    while ((IORD_ALT_AVALON_I2C_ISR(i2c_dev->i2c_base) & ALT_AVALON_I2C_ISR_TX_READY_MSK)==0) 
    13cc:	fcc42783          	lw	a5,-52(s0)
    13d0:	00c7a783          	lw	a5,12(a5)
    13d4:	01078793          	add	a5,a5,16
    13d8:	0007a783          	lw	a5,0(a5)
    13dc:	fef42223          	sw	a5,-28(s0)
    13e0:	fe442783          	lw	a5,-28(s0)
    13e4:	0017f793          	and	a5,a5,1
    13e8:	fa0788e3          	beqz	a5,1398 <alt_avalon_i2c_cmd_write+0x54>
      }
    }

    IOWR_ALT_AVALON_I2C_TFR_CMD(i2c_dev->i2c_base,val |
    13ec:	fcb44703          	lbu	a4,-53(s0)
    13f0:	fca44783          	lbu	a5,-54(s0)
    13f4:	00979793          	sll	a5,a5,0x9
    13f8:	00f76733          	or	a4,a4,a5
    13fc:	fc944783          	lbu	a5,-55(s0)
    1400:	00879793          	sll	a5,a5,0x8
    1404:	00f767b3          	or	a5,a4,a5
    1408:	fef42423          	sw	a5,-24(s0)
    140c:	fcc42783          	lw	a5,-52(s0)
    1410:	00c7a783          	lw	a5,12(a5)
    1414:	fe842703          	lw	a4,-24(s0)
    1418:	00e7a023          	sw	a4,0(a5)
                                     (issue_restart << ALT_AVALON_I2C_TFR_CMD_STA_OFST) |
                                     (issue_stop << ALT_AVALON_I2C_TFR_CMD_STO_OFST));


    /*check for nack error*/
    alt_avalon_i2c_check_nack(i2c_dev,&status);
    141c:	fdc40793          	add	a5,s0,-36
    1420:	00078593          	mv	a1,a5
    1424:	fcc42503          	lw	a0,-52(s0)
    1428:	1ac000ef          	jal	15d4 <alt_avalon_i2c_check_nack>
    
    /*check for arb lost*/
    alt_avalon_i2c_check_arblost(i2c_dev,&status);
    142c:	fdc40793          	add	a5,s0,-36
    1430:	00078593          	mv	a1,a5
    1434:	fcc42503          	lw	a0,-52(s0)
    1438:	1ec000ef          	jal	1624 <alt_avalon_i2c_check_arblost>
    
    return status;
    143c:	fdc42783          	lw	a5,-36(s0)
}
    1440:	00078713          	mv	a4,a5
    1444:	0000b7b7          	lui	a5,0xb
    1448:	fec42683          	lw	a3,-20(s0)
    144c:	7b87a783          	lw	a5,1976(a5) # b7b8 <__stack_chk_guard>
    1450:	00f6c7b3          	xor	a5,a3,a5
    1454:	00000693          	li	a3,0
    1458:	00078463          	beqz	a5,1460 <alt_avalon_i2c_cmd_write+0x11c>
    145c:	599030ef          	jal	51f4 <__stack_chk_fail>
    1460:	00070513          	mv	a0,a4
    1464:	03c12083          	lw	ra,60(sp)
    1468:	03812403          	lw	s0,56(sp)
    146c:	04010113          	add	sp,sp,64
    1470:	00008067          	ret

00001474 <alt_avalon_i2c_send_address>:

/*send 7 or 10 bit i2c address to cmd fifo*/
ALT_AVALON_I2C_STATUS_CODE alt_avalon_i2c_send_address(ALT_AVALON_I2C_DEV_t *i2c_dev,
                                                       const alt_u32 rw_bit,
                                                       const alt_u8 issue_restart)
{
    1474:	fd010113          	add	sp,sp,-48
    1478:	02112623          	sw	ra,44(sp)
    147c:	02812423          	sw	s0,40(sp)
    1480:	03010413          	add	s0,sp,48
    1484:	fca42e23          	sw	a0,-36(s0)
    1488:	fcb42c23          	sw	a1,-40(s0)
    148c:	00060793          	mv	a5,a2
    1490:	fcf40ba3          	sb	a5,-41(s0)
    alt_u32 status;
        
    if (i2c_dev->address_mode == ALT_AVALON_I2C_ADDR_MODE_10_BIT)
    1494:	fdc42783          	lw	a5,-36(s0)
    1498:	0347a703          	lw	a4,52(a5)
    149c:	00100793          	li	a5,1
    14a0:	06f71c63          	bne	a4,a5,1518 <alt_avalon_i2c_send_address+0xa4>
    {
       status = alt_avalon_i2c_cmd_write(i2c_dev,(((i2c_dev->master_target_address | TARGET_ADDR_MASK_10BIT) >> 7) & 0xfe) | rw_bit,issue_restart,ALT_AVALON_I2C_NO_STOP);
    14a4:	fdc42783          	lw	a5,-36(s0)
    14a8:	0247a783          	lw	a5,36(a5)
    14ac:	0077d793          	srl	a5,a5,0x7
    14b0:	0ff7f793          	zext.b	a5,a5
    14b4:	00e7f793          	and	a5,a5,14
    14b8:	0ff7f713          	zext.b	a4,a5
    14bc:	fd842783          	lw	a5,-40(s0)
    14c0:	0ff7f793          	zext.b	a5,a5
    14c4:	00f767b3          	or	a5,a4,a5
    14c8:	0ff7f793          	zext.b	a5,a5
    14cc:	ff07e793          	or	a5,a5,-16
    14d0:	0ff7f793          	zext.b	a5,a5
    14d4:	fd744703          	lbu	a4,-41(s0)
    14d8:	00000693          	li	a3,0
    14dc:	00070613          	mv	a2,a4
    14e0:	00078593          	mv	a1,a5
    14e4:	fdc42503          	lw	a0,-36(s0)
    14e8:	e5dff0ef          	jal	1344 <alt_avalon_i2c_cmd_write>
    14ec:	fea42623          	sw	a0,-20(s0)
       status = alt_avalon_i2c_cmd_write(i2c_dev,i2c_dev->master_target_address & 0xff,ALT_AVALON_I2C_NO_RESTART,ALT_AVALON_I2C_NO_STOP);      
    14f0:	fdc42783          	lw	a5,-36(s0)
    14f4:	0247a783          	lw	a5,36(a5)
    14f8:	0ff7f793          	zext.b	a5,a5
    14fc:	00000693          	li	a3,0
    1500:	00000613          	li	a2,0
    1504:	00078593          	mv	a1,a5
    1508:	fdc42503          	lw	a0,-36(s0)
    150c:	e39ff0ef          	jal	1344 <alt_avalon_i2c_cmd_write>
    1510:	fea42623          	sw	a0,-20(s0)
    1514:	0440006f          	j	1558 <alt_avalon_i2c_send_address+0xe4>
    }
    else
    {
       status = alt_avalon_i2c_cmd_write(i2c_dev,(i2c_dev->master_target_address << 1) | rw_bit,issue_restart,ALT_AVALON_I2C_NO_STOP);
    1518:	fdc42783          	lw	a5,-36(s0)
    151c:	0247a783          	lw	a5,36(a5)
    1520:	0ff7f793          	zext.b	a5,a5
    1524:	00179793          	sll	a5,a5,0x1
    1528:	0ff7f713          	zext.b	a4,a5
    152c:	fd842783          	lw	a5,-40(s0)
    1530:	0ff7f793          	zext.b	a5,a5
    1534:	00f767b3          	or	a5,a4,a5
    1538:	0ff7f793          	zext.b	a5,a5
    153c:	fd744703          	lbu	a4,-41(s0)
    1540:	00000693          	li	a3,0
    1544:	00070613          	mv	a2,a4
    1548:	00078593          	mv	a1,a5
    154c:	fdc42503          	lw	a0,-36(s0)
    1550:	df5ff0ef          	jal	1344 <alt_avalon_i2c_cmd_write>
    1554:	fea42623          	sw	a0,-20(s0)
    }
    
    return status;
    1558:	fec42783          	lw	a5,-20(s0)
}
    155c:	00078513          	mv	a0,a5
    1560:	02c12083          	lw	ra,44(sp)
    1564:	02812403          	lw	s0,40(sp)
    1568:	03010113          	add	sp,sp,48
    156c:	00008067          	ret

00001570 <alt_avalon_i2c_master_target_get>:

/* This function returns the current target address. */
void alt_avalon_i2c_master_target_get(ALT_AVALON_I2C_DEV_t * i2c_dev, alt_u32 * target_addr)
{
    1570:	fe010113          	add	sp,sp,-32
    1574:	00812e23          	sw	s0,28(sp)
    1578:	02010413          	add	s0,sp,32
    157c:	fea42623          	sw	a0,-20(s0)
    1580:	feb42423          	sw	a1,-24(s0)
    *target_addr=i2c_dev->master_target_address;
    1584:	fec42783          	lw	a5,-20(s0)
    1588:	0247a703          	lw	a4,36(a5)
    158c:	fe842783          	lw	a5,-24(s0)
    1590:	00e7a023          	sw	a4,0(a5)
}
    1594:	00000013          	nop
    1598:	01c12403          	lw	s0,28(sp)
    159c:	02010113          	add	sp,sp,32
    15a0:	00008067          	ret

000015a4 <alt_avalon_i2c_master_target_set>:

/* This function updates the target address for any upcoming I2C bus IO. */
void alt_avalon_i2c_master_target_set(ALT_AVALON_I2C_DEV_t * i2c_dev, alt_u32 target_addr)
{
    15a4:	fe010113          	add	sp,sp,-32
    15a8:	00812e23          	sw	s0,28(sp)
    15ac:	02010413          	add	s0,sp,32
    15b0:	fea42623          	sw	a0,-20(s0)
    15b4:	feb42423          	sw	a1,-24(s0)
    i2c_dev->master_target_address=target_addr;
    15b8:	fec42783          	lw	a5,-20(s0)
    15bc:	fe842703          	lw	a4,-24(s0)
    15c0:	02e7a223          	sw	a4,36(a5)
}
    15c4:	00000013          	nop
    15c8:	01c12403          	lw	s0,28(sp)
    15cc:	02010113          	add	sp,sp,32
    15d0:	00008067          	ret

000015d4 <alt_avalon_i2c_check_nack>:

/*if nack detected, status is set to ALT_AVALON_I2C_NACK_ERR*/
void alt_avalon_i2c_check_nack(ALT_AVALON_I2C_DEV_t *i2c_dev,ALT_AVALON_I2C_STATUS_CODE * status)
{    
    15d4:	fd010113          	add	sp,sp,-48
    15d8:	02812623          	sw	s0,44(sp)
    15dc:	03010413          	add	s0,sp,48
    15e0:	fca42e23          	sw	a0,-36(s0)
    15e4:	fcb42c23          	sw	a1,-40(s0)
    if (IORD_ALT_AVALON_I2C_ISR(i2c_dev->i2c_base) & ALT_AVALON_I2C_ISR_NACK_DET_MSK)
    15e8:	fdc42783          	lw	a5,-36(s0)
    15ec:	00c7a783          	lw	a5,12(a5)
    15f0:	01078793          	add	a5,a5,16
    15f4:	0007a783          	lw	a5,0(a5)
    15f8:	fef42623          	sw	a5,-20(s0)
    15fc:	fec42783          	lw	a5,-20(s0)
    1600:	0047f793          	and	a5,a5,4
    1604:	00078863          	beqz	a5,1614 <alt_avalon_i2c_check_nack+0x40>
    {
      *status=ALT_AVALON_I2C_NACK_ERR;
    1608:	fd842783          	lw	a5,-40(s0)
    160c:	ffb00713          	li	a4,-5
    1610:	00e7a023          	sw	a4,0(a5)
    }
}
    1614:	00000013          	nop
    1618:	02c12403          	lw	s0,44(sp)
    161c:	03010113          	add	sp,sp,48
    1620:	00008067          	ret

00001624 <alt_avalon_i2c_check_arblost>:

/*if arb lost is detected, status is set to ALT_AVALON_I2C_ARB_LOST_ERR*/
void alt_avalon_i2c_check_arblost(ALT_AVALON_I2C_DEV_t *i2c_dev,ALT_AVALON_I2C_STATUS_CODE * status)
{      
    1624:	fd010113          	add	sp,sp,-48
    1628:	02812623          	sw	s0,44(sp)
    162c:	03010413          	add	s0,sp,48
    1630:	fca42e23          	sw	a0,-36(s0)
    1634:	fcb42c23          	sw	a1,-40(s0)
    if (IORD_ALT_AVALON_I2C_ISR(i2c_dev->i2c_base) & ALT_AVALON_I2C_ISR_ARBLOST_DET_MSK)
    1638:	fdc42783          	lw	a5,-36(s0)
    163c:	00c7a783          	lw	a5,12(a5)
    1640:	01078793          	add	a5,a5,16
    1644:	0007a783          	lw	a5,0(a5)
    1648:	fef42623          	sw	a5,-20(s0)
    164c:	fec42783          	lw	a5,-20(s0)
    1650:	0087f793          	and	a5,a5,8
    1654:	00078863          	beqz	a5,1664 <alt_avalon_i2c_check_arblost+0x40>
    {
      *status=ALT_AVALON_I2C_ARB_LOST_ERR;
    1658:	fd842783          	lw	a5,-40(s0)
    165c:	ffa00713          	li	a4,-6
    1660:	00e7a023          	sw	a4,0(a5)
    }
}
    1664:	00000013          	nop
    1668:	02c12403          	lw	s0,44(sp)
    166c:	03010113          	add	sp,sp,48
    1670:	00008067          	ret

00001674 <alt_avalon_i2c_interrupt_transaction_status>:

ALT_AVALON_I2C_STATUS_CODE alt_avalon_i2c_interrupt_transaction_status(ALT_AVALON_I2C_DEV_t *i2c_dev)
{
    1674:	fc010113          	add	sp,sp,-64
    1678:	02112e23          	sw	ra,60(sp)
    167c:	02812c23          	sw	s0,56(sp)
    1680:	04010413          	add	s0,sp,64
    1684:	fca42623          	sw	a0,-52(s0)
    1688:	0000b7b7          	lui	a5,0xb
    168c:	7b87a703          	lw	a4,1976(a5) # b7b8 <__stack_chk_guard>
    1690:	fee42623          	sw	a4,-20(s0)
    1694:	00000713          	li	a4,0
    ALT_AVALON_I2C_STATUS_CODE status = ALT_AVALON_I2C_SUCCESS;
    1698:	fc042c23          	sw	zero,-40(s0)
    IRQ_DATA_t *irq_data = i2c_dev->callback_context;
    169c:	fcc42783          	lw	a5,-52(s0)
    16a0:	01c7a783          	lw	a5,28(a5)
    16a4:	fef42423          	sw	a5,-24(s0)
    alt_u32 timeout=10000 * irq_data->size + 10000;
    16a8:	fe842783          	lw	a5,-24(s0)
    16ac:	0047a783          	lw	a5,4(a5)
    16b0:	00178713          	add	a4,a5,1
    16b4:	00070793          	mv	a5,a4
    16b8:	00279793          	sll	a5,a5,0x2
    16bc:	00e787b3          	add	a5,a5,a4
    16c0:	00379793          	sll	a5,a5,0x3
    16c4:	40e787b3          	sub	a5,a5,a4
    16c8:	00479793          	sll	a5,a5,0x4
    16cc:	00e787b3          	add	a5,a5,a4
    16d0:	00479793          	sll	a5,a5,0x4
    16d4:	fef42223          	sw	a5,-28(s0)
    alt_u32 saveints,temp_bytes_read;
    
    /* save current enabled interrupts */
    alt_avalon_i2c_enabled_ints_get(i2c_dev,&saveints);
    16d8:	fdc40793          	add	a5,s0,-36
    16dc:	00078593          	mv	a1,a5
    16e0:	fcc42503          	lw	a0,-52(s0)
    16e4:	7f5000ef          	jal	26d8 <alt_avalon_i2c_enabled_ints_get>
    
    /* disable the enabled interrupts */
    alt_avalon_i2c_int_disable(i2c_dev,saveints);
    16e8:	fdc42783          	lw	a5,-36(s0)
    16ec:	00078593          	mv	a1,a5
    16f0:	fcc42503          	lw	a0,-52(s0)
    16f4:	6b1000ef          	jal	25a4 <alt_avalon_i2c_int_disable>
    
    alt_avalon_i2c_check_nack(i2c_dev,&status);
    16f8:	fd840793          	add	a5,s0,-40
    16fc:	00078593          	mv	a1,a5
    1700:	fcc42503          	lw	a0,-52(s0)
    1704:	ed1ff0ef          	jal	15d4 <alt_avalon_i2c_check_nack>

    if (status!=ALT_AVALON_I2C_SUCCESS)
    1708:	fd842783          	lw	a5,-40(s0)
    170c:	08078a63          	beqz	a5,17a0 <alt_avalon_i2c_interrupt_transaction_status+0x12c>
    {
      if (irq_data->irq_busy)
    1710:	fe842783          	lw	a5,-24(s0)
    1714:	0087a783          	lw	a5,8(a5)
    1718:	08078063          	beqz	a5,1798 <alt_avalon_i2c_interrupt_transaction_status+0x124>
      {
        while (alt_avalon_i2c_is_busy(i2c_dev))
    171c:	03c0006f          	j	1758 <alt_avalon_i2c_interrupt_transaction_status+0xe4>
        {
              if (timeout<10) alt_busy_sleep(10000);
    1720:	fe442703          	lw	a4,-28(s0)
    1724:	00900793          	li	a5,9
    1728:	00e7e863          	bltu	a5,a4,1738 <alt_avalon_i2c_interrupt_transaction_status+0xc4>
    172c:	000027b7          	lui	a5,0x2
    1730:	71078513          	add	a0,a5,1808 # 2710 <alt_avalon_i2c_enabled_ints_get+0x38>
    1734:	5b9010ef          	jal	34ec <alt_busy_sleep>
              if (--timeout == 0)
    1738:	fe442783          	lw	a5,-28(s0)
    173c:	fff78793          	add	a5,a5,-1
    1740:	fef42223          	sw	a5,-28(s0)
    1744:	fe442783          	lw	a5,-28(s0)
    1748:	00079863          	bnez	a5,1758 <alt_avalon_i2c_interrupt_transaction_status+0xe4>
              {
                 status = ALT_AVALON_I2C_TIMEOUT;
    174c:	ffe00793          	li	a5,-2
    1750:	fcf42c23          	sw	a5,-40(s0)
                 break;
    1754:	0140006f          	j	1768 <alt_avalon_i2c_interrupt_transaction_status+0xf4>
        while (alt_avalon_i2c_is_busy(i2c_dev))
    1758:	fcc42503          	lw	a0,-52(s0)
    175c:	a29ff0ef          	jal	1184 <alt_avalon_i2c_is_busy>
    1760:	00050793          	mv	a5,a0
    1764:	fa079ee3          	bnez	a5,1720 <alt_avalon_i2c_interrupt_transaction_status+0xac>
              }
        }
          
        /*clear any rx entries */
        alt_avalon_i2c_rx_read_available(i2c_dev, irq_data->buffer,0,&temp_bytes_read);
    1768:	fe842783          	lw	a5,-24(s0)
    176c:	0007a783          	lw	a5,0(a5)
    1770:	fe040713          	add	a4,s0,-32
    1774:	00070693          	mv	a3,a4
    1778:	00000613          	li	a2,0
    177c:	00078593          	mv	a1,a5
    1780:	fcc42503          	lw	a0,-52(s0)
    1784:	a4dff0ef          	jal	11d0 <alt_avalon_i2c_rx_read_available>
       
        /*disable the ip.  The ip is disabled and enabled for each transaction. */
        alt_avalon_i2c_disable(i2c_dev);
    1788:	fcc42503          	lw	a0,-52(s0)
    178c:	e4cff0ef          	jal	dd8 <alt_avalon_i2c_disable>
          
        /*abort the transaction */
        irq_data->irq_busy=0;
    1790:	fe842783          	lw	a5,-24(s0)
    1794:	0007a423          	sw	zero,8(a5)
      }
      
      /*return nack error so transaction can be retried*/
      return status;
    1798:	fd842783          	lw	a5,-40(s0)
    179c:	02c0006f          	j	17c8 <alt_avalon_i2c_interrupt_transaction_status+0x154>
    }
    
    if (irq_data->irq_busy)
    17a0:	fe842783          	lw	a5,-24(s0)
    17a4:	0087a783          	lw	a5,8(a5)
    17a8:	00078e63          	beqz	a5,17c4 <alt_avalon_i2c_interrupt_transaction_status+0x150>
    {
        /*re-enable the interrupts*/
        alt_avalon_i2c_int_enable(i2c_dev,saveints);
    17ac:	fdc42783          	lw	a5,-36(s0)
    17b0:	00078593          	mv	a1,a5
    17b4:	fcc42503          	lw	a0,-52(s0)
    17b8:	689000ef          	jal	2640 <alt_avalon_i2c_int_enable>
        
        /*return transaction still busy*/
        return ALT_AVALON_I2C_BUSY;
    17bc:	ff900793          	li	a5,-7
    17c0:	0080006f          	j	17c8 <alt_avalon_i2c_interrupt_transaction_status+0x154>
    }
    
    /*return transaction completed status, ok to do another transaction*/
    return ALT_AVALON_I2C_SUCCESS;
    17c4:	00000793          	li	a5,0
}
    17c8:	00078713          	mv	a4,a5
    17cc:	0000b7b7          	lui	a5,0xb
    17d0:	fec42683          	lw	a3,-20(s0)
    17d4:	7b87a783          	lw	a5,1976(a5) # b7b8 <__stack_chk_guard>
    17d8:	00f6c7b3          	xor	a5,a3,a5
    17dc:	00000693          	li	a3,0
    17e0:	00078463          	beqz	a5,17e8 <alt_avalon_i2c_interrupt_transaction_status+0x174>
    17e4:	211030ef          	jal	51f4 <__stack_chk_fail>
    17e8:	00070513          	mv	a0,a4
    17ec:	03c12083          	lw	ra,60(sp)
    17f0:	03812403          	lw	s0,56(sp)
    17f4:	04010113          	add	sp,sp,64
    17f8:	00008067          	ret

000017fc <alt_avalon_i2c_master_tx>:
/*transmit function with retry and optionally interrupts*/
ALT_AVALON_I2C_STATUS_CODE alt_avalon_i2c_master_tx(ALT_AVALON_I2C_DEV_t *i2c_dev,
                                       const alt_u8 * buffer,
                                       const alt_u32 size,
                                       const alt_u8 use_interrupts)
{
    17fc:	fd010113          	add	sp,sp,-48
    1800:	02112623          	sw	ra,44(sp)
    1804:	02812423          	sw	s0,40(sp)
    1808:	03010413          	add	s0,sp,48
    180c:	fca42e23          	sw	a0,-36(s0)
    1810:	fcb42c23          	sw	a1,-40(s0)
    1814:	fcc42a23          	sw	a2,-44(s0)
    1818:	00068793          	mv	a5,a3
    181c:	fcf409a3          	sb	a5,-45(s0)
    ALT_AVALON_I2C_STATUS_CODE status;
    alt_u32 retry=10000;  
    1820:	000027b7          	lui	a5,0x2
    1824:	71078793          	add	a5,a5,1808 # 2710 <alt_avalon_i2c_enabled_ints_get+0x38>
    1828:	fef42623          	sw	a5,-20(s0)
    
    while (retry--)
    182c:	0880006f          	j	18b4 <alt_avalon_i2c_master_tx+0xb8>
    {
      if (retry<10) alt_busy_sleep(10000);
    1830:	fec42703          	lw	a4,-20(s0)
    1834:	00900793          	li	a5,9
    1838:	00e7e863          	bltu	a5,a4,1848 <alt_avalon_i2c_master_tx+0x4c>
    183c:	000027b7          	lui	a5,0x2
    1840:	71078513          	add	a0,a5,1808 # 2710 <alt_avalon_i2c_enabled_ints_get+0x38>
    1844:	4a9010ef          	jal	34ec <alt_busy_sleep>
      if (use_interrupts)
    1848:	fd344783          	lbu	a5,-45(s0)
    184c:	02078263          	beqz	a5,1870 <alt_avalon_i2c_master_tx+0x74>
      {
         status = alt_avalon_i2c_master_transmit_using_interrupts(i2c_dev, buffer, size, ALT_AVALON_I2C_NO_RESTART, ALT_AVALON_I2C_STOP); 
    1850:	00100713          	li	a4,1
    1854:	00000693          	li	a3,0
    1858:	fd442603          	lw	a2,-44(s0)
    185c:	fd842583          	lw	a1,-40(s0)
    1860:	fdc42503          	lw	a0,-36(s0)
    1864:	5b4000ef          	jal	1e18 <alt_avalon_i2c_master_transmit_using_interrupts>
    1868:	fea42423          	sw	a0,-24(s0)
    186c:	0200006f          	j	188c <alt_avalon_i2c_master_tx+0x90>
      }
      else
      {
         status = alt_avalon_i2c_master_transmit(i2c_dev, buffer, size, ALT_AVALON_I2C_NO_RESTART, ALT_AVALON_I2C_STOP);
    1870:	00100713          	li	a4,1
    1874:	00000693          	li	a3,0
    1878:	fd442603          	lw	a2,-44(s0)
    187c:	fd842583          	lw	a1,-40(s0)
    1880:	fdc42503          	lw	a0,-36(s0)
    1884:	37c000ef          	jal	1c00 <alt_avalon_i2c_master_transmit>
    1888:	fea42423          	sw	a0,-24(s0)
      }
      if ((status==ALT_AVALON_I2C_ARB_LOST_ERR) || (status==ALT_AVALON_I2C_NACK_ERR) || (status==ALT_AVALON_I2C_BUSY)) continue;
    188c:	fe842703          	lw	a4,-24(s0)
    1890:	ffa00793          	li	a5,-6
    1894:	00f70e63          	beq	a4,a5,18b0 <alt_avalon_i2c_master_tx+0xb4>
    1898:	fe842703          	lw	a4,-24(s0)
    189c:	ffb00793          	li	a5,-5
    18a0:	00f70863          	beq	a4,a5,18b0 <alt_avalon_i2c_master_tx+0xb4>
    18a4:	fe842703          	lw	a4,-24(s0)
    18a8:	ff900793          	li	a5,-7
    18ac:	00f71e63          	bne	a4,a5,18c8 <alt_avalon_i2c_master_tx+0xcc>
    18b0:	00000013          	nop
    while (retry--)
    18b4:	fec42783          	lw	a5,-20(s0)
    18b8:	fff78713          	add	a4,a5,-1
    18bc:	fee42623          	sw	a4,-20(s0)
    18c0:	f60798e3          	bnez	a5,1830 <alt_avalon_i2c_master_tx+0x34>
    18c4:	0080006f          	j	18cc <alt_avalon_i2c_master_tx+0xd0>
      break;
    18c8:	00000013          	nop
    }

    return status;
    18cc:	fe842783          	lw	a5,-24(s0)
}        
    18d0:	00078513          	mv	a0,a5
    18d4:	02c12083          	lw	ra,44(sp)
    18d8:	02812403          	lw	s0,40(sp)
    18dc:	03010113          	add	sp,sp,48
    18e0:	00008067          	ret

000018e4 <alt_avalon_i2c_master_rx>:
/*receive function with retry and optionally interrupts*/
ALT_AVALON_I2C_STATUS_CODE alt_avalon_i2c_master_rx(ALT_AVALON_I2C_DEV_t *i2c_dev,
                                       alt_u8 * buffer,
                                       const alt_u32 size,
                                       const alt_u8 use_interrupts)
{
    18e4:	fd010113          	add	sp,sp,-48
    18e8:	02112623          	sw	ra,44(sp)
    18ec:	02812423          	sw	s0,40(sp)
    18f0:	03010413          	add	s0,sp,48
    18f4:	fca42e23          	sw	a0,-36(s0)
    18f8:	fcb42c23          	sw	a1,-40(s0)
    18fc:	fcc42a23          	sw	a2,-44(s0)
    1900:	00068793          	mv	a5,a3
    1904:	fcf409a3          	sb	a5,-45(s0)
    ALT_AVALON_I2C_STATUS_CODE status;
    alt_u32 retry=10000;  
    1908:	000027b7          	lui	a5,0x2
    190c:	71078793          	add	a5,a5,1808 # 2710 <alt_avalon_i2c_enabled_ints_get+0x38>
    1910:	fef42623          	sw	a5,-20(s0)
    
    if (use_interrupts) 
    1914:	fd344783          	lbu	a5,-45(s0)
    1918:	0c078a63          	beqz	a5,19ec <alt_avalon_i2c_master_rx+0x108>
    {
      while (retry--) 
    191c:	0600006f          	j	197c <alt_avalon_i2c_master_rx+0x98>
      {
        if (retry<10) alt_busy_sleep(10000);      
    1920:	fec42703          	lw	a4,-20(s0)
    1924:	00900793          	li	a5,9
    1928:	00e7e863          	bltu	a5,a4,1938 <alt_avalon_i2c_master_rx+0x54>
    192c:	000027b7          	lui	a5,0x2
    1930:	71078513          	add	a0,a5,1808 # 2710 <alt_avalon_i2c_enabled_ints_get+0x38>
    1934:	3b9010ef          	jal	34ec <alt_busy_sleep>
        status = alt_avalon_i2c_master_receive_using_interrupts(i2c_dev, buffer, size, ALT_AVALON_I2C_NO_RESTART, ALT_AVALON_I2C_STOP);     
    1938:	00100713          	li	a4,1
    193c:	00000693          	li	a3,0
    1940:	fd442603          	lw	a2,-44(s0)
    1944:	fd842583          	lw	a1,-40(s0)
    1948:	fdc42503          	lw	a0,-36(s0)
    194c:	165000ef          	jal	22b0 <alt_avalon_i2c_master_receive_using_interrupts>
    1950:	fea42423          	sw	a0,-24(s0)
        if ((status==ALT_AVALON_I2C_ARB_LOST_ERR) || (status==ALT_AVALON_I2C_NACK_ERR) || (status==ALT_AVALON_I2C_BUSY)) continue;
    1954:	fe842703          	lw	a4,-24(s0)
    1958:	ffa00793          	li	a5,-6
    195c:	00f70e63          	beq	a4,a5,1978 <alt_avalon_i2c_master_rx+0x94>
    1960:	fe842703          	lw	a4,-24(s0)
    1964:	ffb00793          	li	a5,-5
    1968:	00f70863          	beq	a4,a5,1978 <alt_avalon_i2c_master_rx+0x94>
    196c:	fe842703          	lw	a4,-24(s0)
    1970:	ff900793          	li	a5,-7
    1974:	08f71663          	bne	a4,a5,1a00 <alt_avalon_i2c_master_rx+0x11c>
    1978:	00000013          	nop
      while (retry--) 
    197c:	fec42783          	lw	a5,-20(s0)
    1980:	fff78713          	add	a4,a5,-1
    1984:	fee42623          	sw	a4,-20(s0)
    1988:	f8079ce3          	bnez	a5,1920 <alt_avalon_i2c_master_rx+0x3c>
    198c:	0800006f          	j	1a0c <alt_avalon_i2c_master_rx+0x128>
    }
    else
    {
      while (retry--) 
      {
        if (retry<10) alt_busy_sleep(10000);      
    1990:	fec42703          	lw	a4,-20(s0)
    1994:	00900793          	li	a5,9
    1998:	00e7e863          	bltu	a5,a4,19a8 <alt_avalon_i2c_master_rx+0xc4>
    199c:	000027b7          	lui	a5,0x2
    19a0:	71078513          	add	a0,a5,1808 # 2710 <alt_avalon_i2c_enabled_ints_get+0x38>
    19a4:	349010ef          	jal	34ec <alt_busy_sleep>
        status = alt_avalon_i2c_master_receive(i2c_dev, buffer, size, ALT_AVALON_I2C_NO_RESTART, ALT_AVALON_I2C_STOP);     
    19a8:	00100713          	li	a4,1
    19ac:	00000693          	li	a3,0
    19b0:	fd442603          	lw	a2,-44(s0)
    19b4:	fd842583          	lw	a1,-40(s0)
    19b8:	fdc42503          	lw	a0,-36(s0)
    19bc:	680000ef          	jal	203c <alt_avalon_i2c_master_receive>
    19c0:	fea42423          	sw	a0,-24(s0)
        if ((status==ALT_AVALON_I2C_ARB_LOST_ERR) || (status==ALT_AVALON_I2C_NACK_ERR) || (status==ALT_AVALON_I2C_BUSY)) continue;
    19c4:	fe842703          	lw	a4,-24(s0)
    19c8:	ffa00793          	li	a5,-6
    19cc:	00f70e63          	beq	a4,a5,19e8 <alt_avalon_i2c_master_rx+0x104>
    19d0:	fe842703          	lw	a4,-24(s0)
    19d4:	ffb00793          	li	a5,-5
    19d8:	00f70863          	beq	a4,a5,19e8 <alt_avalon_i2c_master_rx+0x104>
    19dc:	fe842703          	lw	a4,-24(s0)
    19e0:	ff900793          	li	a5,-7
    19e4:	02f71263          	bne	a4,a5,1a08 <alt_avalon_i2c_master_rx+0x124>
    19e8:	00000013          	nop
      while (retry--) 
    19ec:	fec42783          	lw	a5,-20(s0)
    19f0:	fff78713          	add	a4,a5,-1
    19f4:	fee42623          	sw	a4,-20(s0)
    19f8:	f8079ce3          	bnez	a5,1990 <alt_avalon_i2c_master_rx+0xac>
    19fc:	0100006f          	j	1a0c <alt_avalon_i2c_master_rx+0x128>
        break;
    1a00:	00000013          	nop
    1a04:	0080006f          	j	1a0c <alt_avalon_i2c_master_rx+0x128>
        break;
    1a08:	00000013          	nop
      }
    }
    
    return status;
    1a0c:	fe842783          	lw	a5,-24(s0)
}        
    1a10:	00078513          	mv	a0,a5
    1a14:	02c12083          	lw	ra,44(sp)
    1a18:	02812403          	lw	s0,40(sp)
    1a1c:	03010113          	add	sp,sp,48
    1a20:	00008067          	ret

00001a24 <alt_avalon_i2c_master_tx_rx>:
                                       const alt_u8 * txbuffer,
                                       const alt_u32 txsize,
                                       alt_u8 * rxbuffer,
                                       const alt_u32 rxsize,
                                       const alt_u8 use_interrupts)                                       
{
    1a24:	fc010113          	add	sp,sp,-64
    1a28:	02112e23          	sw	ra,60(sp)
    1a2c:	02812c23          	sw	s0,56(sp)
    1a30:	04010413          	add	s0,sp,64
    1a34:	fca42e23          	sw	a0,-36(s0)
    1a38:	fcb42c23          	sw	a1,-40(s0)
    1a3c:	fcc42a23          	sw	a2,-44(s0)
    1a40:	fcd42823          	sw	a3,-48(s0)
    1a44:	fce42623          	sw	a4,-52(s0)
    1a48:	fcf405a3          	sb	a5,-53(s0)
    ALT_AVALON_I2C_STATUS_CODE status;
    alt_u32 retry=10000;  
    1a4c:	000027b7          	lui	a5,0x2
    1a50:	71078793          	add	a5,a5,1808 # 2710 <alt_avalon_i2c_enabled_ints_get+0x38>
    1a54:	fef42623          	sw	a5,-20(s0)
    
    if (use_interrupts)
    1a58:	fcb44783          	lbu	a5,-53(s0)
    1a5c:	16078663          	beqz	a5,1bc8 <alt_avalon_i2c_master_tx_rx+0x1a4>
    {
      while (retry--) 
    1a60:	0ac0006f          	j	1b0c <alt_avalon_i2c_master_tx_rx+0xe8>
      {
        if (retry<10) alt_busy_sleep(10000);      
    1a64:	fec42703          	lw	a4,-20(s0)
    1a68:	00900793          	li	a5,9
    1a6c:	00e7e863          	bltu	a5,a4,1a7c <alt_avalon_i2c_master_tx_rx+0x58>
    1a70:	000027b7          	lui	a5,0x2
    1a74:	71078513          	add	a0,a5,1808 # 2710 <alt_avalon_i2c_enabled_ints_get+0x38>
    1a78:	275010ef          	jal	34ec <alt_busy_sleep>
        status = alt_avalon_i2c_master_transmit_using_interrupts(i2c_dev, txbuffer, txsize, ALT_AVALON_I2C_NO_RESTART, ALT_AVALON_I2C_NO_STOP);     
    1a7c:	00000713          	li	a4,0
    1a80:	00000693          	li	a3,0
    1a84:	fd442603          	lw	a2,-44(s0)
    1a88:	fd842583          	lw	a1,-40(s0)
    1a8c:	fdc42503          	lw	a0,-36(s0)
    1a90:	388000ef          	jal	1e18 <alt_avalon_i2c_master_transmit_using_interrupts>
    1a94:	fea42423          	sw	a0,-24(s0)
        if ((status==ALT_AVALON_I2C_ARB_LOST_ERR) || (status==ALT_AVALON_I2C_NACK_ERR) || (status==ALT_AVALON_I2C_BUSY)) continue;
    1a98:	fe842703          	lw	a4,-24(s0)
    1a9c:	ffa00793          	li	a5,-6
    1aa0:	06f70063          	beq	a4,a5,1b00 <alt_avalon_i2c_master_tx_rx+0xdc>
    1aa4:	fe842703          	lw	a4,-24(s0)
    1aa8:	ffb00793          	li	a5,-5
    1aac:	04f70a63          	beq	a4,a5,1b00 <alt_avalon_i2c_master_tx_rx+0xdc>
    1ab0:	fe842703          	lw	a4,-24(s0)
    1ab4:	ff900793          	li	a5,-7
    1ab8:	04f70463          	beq	a4,a5,1b00 <alt_avalon_i2c_master_tx_rx+0xdc>
  
        status = alt_avalon_i2c_master_receive_using_interrupts(i2c_dev, rxbuffer, rxsize, ALT_AVALON_I2C_RESTART, ALT_AVALON_I2C_STOP);     
    1abc:	00100713          	li	a4,1
    1ac0:	00100693          	li	a3,1
    1ac4:	fcc42603          	lw	a2,-52(s0)
    1ac8:	fd042583          	lw	a1,-48(s0)
    1acc:	fdc42503          	lw	a0,-36(s0)
    1ad0:	7e0000ef          	jal	22b0 <alt_avalon_i2c_master_receive_using_interrupts>
    1ad4:	fea42423          	sw	a0,-24(s0)
        if ((status==ALT_AVALON_I2C_ARB_LOST_ERR) || (status==ALT_AVALON_I2C_NACK_ERR) || (status==ALT_AVALON_I2C_BUSY)) continue;
    1ad8:	fe842703          	lw	a4,-24(s0)
    1adc:	ffa00793          	li	a5,-6
    1ae0:	02f70463          	beq	a4,a5,1b08 <alt_avalon_i2c_master_tx_rx+0xe4>
    1ae4:	fe842703          	lw	a4,-24(s0)
    1ae8:	ffb00793          	li	a5,-5
    1aec:	00f70e63          	beq	a4,a5,1b08 <alt_avalon_i2c_master_tx_rx+0xe4>
    1af0:	fe842703          	lw	a4,-24(s0)
    1af4:	ff900793          	li	a5,-7
    1af8:	0ef71263          	bne	a4,a5,1bdc <alt_avalon_i2c_master_tx_rx+0x1b8>
    1afc:	00c0006f          	j	1b08 <alt_avalon_i2c_master_tx_rx+0xe4>
        if ((status==ALT_AVALON_I2C_ARB_LOST_ERR) || (status==ALT_AVALON_I2C_NACK_ERR) || (status==ALT_AVALON_I2C_BUSY)) continue;
    1b00:	00000013          	nop
    1b04:	0080006f          	j	1b0c <alt_avalon_i2c_master_tx_rx+0xe8>
        if ((status==ALT_AVALON_I2C_ARB_LOST_ERR) || (status==ALT_AVALON_I2C_NACK_ERR) || (status==ALT_AVALON_I2C_BUSY)) continue;
    1b08:	00000013          	nop
      while (retry--) 
    1b0c:	fec42783          	lw	a5,-20(s0)
    1b10:	fff78713          	add	a4,a5,-1
    1b14:	fee42623          	sw	a4,-20(s0)
    1b18:	f40796e3          	bnez	a5,1a64 <alt_avalon_i2c_master_tx_rx+0x40>
    1b1c:	0cc0006f          	j	1be8 <alt_avalon_i2c_master_tx_rx+0x1c4>
    }
    else 
    {
      while (retry--) 
      {
        if (retry<10) alt_busy_sleep(10000);      
    1b20:	fec42703          	lw	a4,-20(s0)
    1b24:	00900793          	li	a5,9
    1b28:	00e7e863          	bltu	a5,a4,1b38 <alt_avalon_i2c_master_tx_rx+0x114>
    1b2c:	000027b7          	lui	a5,0x2
    1b30:	71078513          	add	a0,a5,1808 # 2710 <alt_avalon_i2c_enabled_ints_get+0x38>
    1b34:	1b9010ef          	jal	34ec <alt_busy_sleep>
        status = alt_avalon_i2c_master_transmit(i2c_dev, txbuffer, txsize, ALT_AVALON_I2C_NO_RESTART, ALT_AVALON_I2C_NO_STOP);     
    1b38:	00000713          	li	a4,0
    1b3c:	00000693          	li	a3,0
    1b40:	fd442603          	lw	a2,-44(s0)
    1b44:	fd842583          	lw	a1,-40(s0)
    1b48:	fdc42503          	lw	a0,-36(s0)
    1b4c:	0b4000ef          	jal	1c00 <alt_avalon_i2c_master_transmit>
    1b50:	fea42423          	sw	a0,-24(s0)
        if ((status==ALT_AVALON_I2C_ARB_LOST_ERR) || (status==ALT_AVALON_I2C_NACK_ERR) || (status==ALT_AVALON_I2C_BUSY)) continue;
    1b54:	fe842703          	lw	a4,-24(s0)
    1b58:	ffa00793          	li	a5,-6
    1b5c:	06f70063          	beq	a4,a5,1bbc <alt_avalon_i2c_master_tx_rx+0x198>
    1b60:	fe842703          	lw	a4,-24(s0)
    1b64:	ffb00793          	li	a5,-5
    1b68:	04f70a63          	beq	a4,a5,1bbc <alt_avalon_i2c_master_tx_rx+0x198>
    1b6c:	fe842703          	lw	a4,-24(s0)
    1b70:	ff900793          	li	a5,-7
    1b74:	04f70463          	beq	a4,a5,1bbc <alt_avalon_i2c_master_tx_rx+0x198>

        status = alt_avalon_i2c_master_receive(i2c_dev, rxbuffer, rxsize, ALT_AVALON_I2C_RESTART, ALT_AVALON_I2C_STOP);     
    1b78:	00100713          	li	a4,1
    1b7c:	00100693          	li	a3,1
    1b80:	fcc42603          	lw	a2,-52(s0)
    1b84:	fd042583          	lw	a1,-48(s0)
    1b88:	fdc42503          	lw	a0,-36(s0)
    1b8c:	4b0000ef          	jal	203c <alt_avalon_i2c_master_receive>
    1b90:	fea42423          	sw	a0,-24(s0)
        if ((status==ALT_AVALON_I2C_ARB_LOST_ERR) || (status==ALT_AVALON_I2C_NACK_ERR) || (status==ALT_AVALON_I2C_BUSY)) continue;
    1b94:	fe842703          	lw	a4,-24(s0)
    1b98:	ffa00793          	li	a5,-6
    1b9c:	02f70463          	beq	a4,a5,1bc4 <alt_avalon_i2c_master_tx_rx+0x1a0>
    1ba0:	fe842703          	lw	a4,-24(s0)
    1ba4:	ffb00793          	li	a5,-5
    1ba8:	00f70e63          	beq	a4,a5,1bc4 <alt_avalon_i2c_master_tx_rx+0x1a0>
    1bac:	fe842703          	lw	a4,-24(s0)
    1bb0:	ff900793          	li	a5,-7
    1bb4:	02f71863          	bne	a4,a5,1be4 <alt_avalon_i2c_master_tx_rx+0x1c0>
    1bb8:	00c0006f          	j	1bc4 <alt_avalon_i2c_master_tx_rx+0x1a0>
        if ((status==ALT_AVALON_I2C_ARB_LOST_ERR) || (status==ALT_AVALON_I2C_NACK_ERR) || (status==ALT_AVALON_I2C_BUSY)) continue;
    1bbc:	00000013          	nop
    1bc0:	0080006f          	j	1bc8 <alt_avalon_i2c_master_tx_rx+0x1a4>
        if ((status==ALT_AVALON_I2C_ARB_LOST_ERR) || (status==ALT_AVALON_I2C_NACK_ERR) || (status==ALT_AVALON_I2C_BUSY)) continue;
    1bc4:	00000013          	nop
      while (retry--) 
    1bc8:	fec42783          	lw	a5,-20(s0)
    1bcc:	fff78713          	add	a4,a5,-1
    1bd0:	fee42623          	sw	a4,-20(s0)
    1bd4:	f40796e3          	bnez	a5,1b20 <alt_avalon_i2c_master_tx_rx+0xfc>
    1bd8:	0100006f          	j	1be8 <alt_avalon_i2c_master_tx_rx+0x1c4>
        break;
    1bdc:	00000013          	nop
    1be0:	0080006f          	j	1be8 <alt_avalon_i2c_master_tx_rx+0x1c4>
  
        break;
    1be4:	00000013          	nop
      }
    }
    
    return status;
    1be8:	fe842783          	lw	a5,-24(s0)
}                                       
    1bec:	00078513          	mv	a0,a5
    1bf0:	03c12083          	lw	ra,60(sp)
    1bf4:	03812403          	lw	s0,56(sp)
    1bf8:	04010113          	add	sp,sp,64
    1bfc:	00008067          	ret

00001c00 <alt_avalon_i2c_master_transmit>:
ALT_AVALON_I2C_STATUS_CODE alt_avalon_i2c_master_transmit(ALT_AVALON_I2C_DEV_t *i2c_dev,
                                        const alt_u8 * buffer,
                                        alt_u32 size,
                                        const alt_u8 issue_restart,
                                        const alt_u8 issue_stop)
{
    1c00:	fd010113          	add	sp,sp,-48
    1c04:	02112623          	sw	ra,44(sp)
    1c08:	02812423          	sw	s0,40(sp)
    1c0c:	03010413          	add	s0,sp,48
    1c10:	fca42e23          	sw	a0,-36(s0)
    1c14:	fcb42c23          	sw	a1,-40(s0)
    1c18:	fcc42a23          	sw	a2,-44(s0)
    1c1c:	00068793          	mv	a5,a3
    1c20:	fcf409a3          	sb	a5,-45(s0)
    1c24:	00070793          	mv	a5,a4
    1c28:	fcf40923          	sb	a5,-46(s0)
    1c2c:	0000b7b7          	lui	a5,0xb
    1c30:	7b87a703          	lw	a4,1976(a5) # b7b8 <__stack_chk_guard>
    1c34:	fee42623          	sw	a4,-20(s0)
    1c38:	00000713          	li	a4,0
    ALT_AVALON_I2C_STATUS_CODE status = ALT_AVALON_I2C_SUCCESS;
    1c3c:	fe042223          	sw	zero,-28(s0)
    alt_u32 timeout=size * 10000;
    1c40:	fd442703          	lw	a4,-44(s0)
    1c44:	00070793          	mv	a5,a4
    1c48:	00279793          	sll	a5,a5,0x2
    1c4c:	00e787b3          	add	a5,a5,a4
    1c50:	00379793          	sll	a5,a5,0x3
    1c54:	40e787b3          	sub	a5,a5,a4
    1c58:	00479793          	sll	a5,a5,0x4
    1c5c:	00e787b3          	add	a5,a5,a4
    1c60:	00479793          	sll	a5,a5,0x4
    1c64:	fef42423          	sw	a5,-24(s0)
    
    if (size==0)
    1c68:	fd442783          	lw	a5,-44(s0)
    1c6c:	00079663          	bnez	a5,1c78 <alt_avalon_i2c_master_transmit+0x78>
    {
      return ALT_AVALON_I2C_SUCCESS;
    1c70:	00000793          	li	a5,0
    1c74:	1700006f          	j	1de4 <alt_avalon_i2c_master_transmit+0x1e4>
    }
    
    /*if a new transaction, enable ip and clear int status*/
    if (!issue_restart) 
    1c78:	fd344783          	lbu	a5,-45(s0)
    1c7c:	02079863          	bnez	a5,1cac <alt_avalon_i2c_master_transmit+0xac>
    {
      /*enable the ip.  The ip is disabled and enabled for each transaction.*/
      status = alt_avalon_i2c_enable(i2c_dev);
    1c80:	fdc42503          	lw	a0,-36(s0)
    1c84:	8a4ff0ef          	jal	d28 <alt_avalon_i2c_enable>
    1c88:	00050793          	mv	a5,a0
    1c8c:	fef42223          	sw	a5,-28(s0)
      if (status != ALT_AVALON_I2C_SUCCESS)
    1c90:	fe442783          	lw	a5,-28(s0)
    1c94:	00078663          	beqz	a5,1ca0 <alt_avalon_i2c_master_transmit+0xa0>
      {
        return status;
    1c98:	fe442783          	lw	a5,-28(s0)
    1c9c:	1480006f          	j	1de4 <alt_avalon_i2c_master_transmit+0x1e4>
      }

      /*Clear the ISR reg*/
      alt_avalon_i2c_int_clear(i2c_dev,ALT_AVALON_I2C_ISR_ALL_CLEARABLE_INTS_MSK);
    1ca0:	01c00593          	li	a1,28
    1ca4:	fdc42503          	lw	a0,-36(s0)
    1ca8:	0bd000ef          	jal	2564 <alt_avalon_i2c_int_clear>
    }

    /*Start Write, transmit address. */
    status = alt_avalon_i2c_send_address(i2c_dev,ALT_AVALON_I2C_WRITE,issue_restart);
    1cac:	fd344783          	lbu	a5,-45(s0)
    1cb0:	00078613          	mv	a2,a5
    1cb4:	00000593          	li	a1,0
    1cb8:	fdc42503          	lw	a0,-36(s0)
    1cbc:	fb8ff0ef          	jal	1474 <alt_avalon_i2c_send_address>
    1cc0:	00050793          	mv	a5,a0
    1cc4:	fef42223          	sw	a5,-28(s0)
      
    if (status == ALT_AVALON_I2C_SUCCESS)
    1cc8:	fe442783          	lw	a5,-28(s0)
    1ccc:	0a079063          	bnez	a5,1d6c <alt_avalon_i2c_master_transmit+0x16c>
    {
        while ((size > 1) && (status == ALT_AVALON_I2C_SUCCESS))
    1cd0:	0400006f          	j	1d10 <alt_avalon_i2c_master_transmit+0x110>
        {
            status = alt_avalon_i2c_cmd_write(i2c_dev, *buffer, ALT_AVALON_I2C_NO_RESTART, ALT_AVALON_I2C_NO_STOP);
    1cd4:	fd842783          	lw	a5,-40(s0)
    1cd8:	0007c783          	lbu	a5,0(a5)
    1cdc:	00000693          	li	a3,0
    1ce0:	00000613          	li	a2,0
    1ce4:	00078593          	mv	a1,a5
    1ce8:	fdc42503          	lw	a0,-36(s0)
    1cec:	e58ff0ef          	jal	1344 <alt_avalon_i2c_cmd_write>
    1cf0:	00050793          	mv	a5,a0
    1cf4:	fef42223          	sw	a5,-28(s0)
            
            ++buffer;
    1cf8:	fd842783          	lw	a5,-40(s0)
    1cfc:	00178793          	add	a5,a5,1
    1d00:	fcf42c23          	sw	a5,-40(s0)
            --size;
    1d04:	fd442783          	lw	a5,-44(s0)
    1d08:	fff78793          	add	a5,a5,-1
    1d0c:	fcf42a23          	sw	a5,-44(s0)
        while ((size > 1) && (status == ALT_AVALON_I2C_SUCCESS))
    1d10:	fd442703          	lw	a4,-44(s0)
    1d14:	00100793          	li	a5,1
    1d18:	00e7f663          	bgeu	a5,a4,1d24 <alt_avalon_i2c_master_transmit+0x124>
    1d1c:	fe442783          	lw	a5,-28(s0)
    1d20:	fa078ae3          	beqz	a5,1cd4 <alt_avalon_i2c_master_transmit+0xd4>
        }

        /* Last byte */
        if (status == ALT_AVALON_I2C_SUCCESS)
    1d24:	fe442783          	lw	a5,-28(s0)
    1d28:	04079263          	bnez	a5,1d6c <alt_avalon_i2c_master_transmit+0x16c>
        {
            status = alt_avalon_i2c_cmd_write(i2c_dev, *buffer, ALT_AVALON_I2C_NO_RESTART, issue_stop);
    1d2c:	fd842783          	lw	a5,-40(s0)
    1d30:	0007c783          	lbu	a5,0(a5)
    1d34:	fd244703          	lbu	a4,-46(s0)
    1d38:	00070693          	mv	a3,a4
    1d3c:	00000613          	li	a2,0
    1d40:	00078593          	mv	a1,a5
    1d44:	fdc42503          	lw	a0,-36(s0)
    1d48:	dfcff0ef          	jal	1344 <alt_avalon_i2c_cmd_write>
    1d4c:	00050793          	mv	a5,a0
    1d50:	fef42223          	sw	a5,-28(s0)

            ++buffer;
    1d54:	fd842783          	lw	a5,-40(s0)
    1d58:	00178793          	add	a5,a5,1
    1d5c:	fcf42c23          	sw	a5,-40(s0)
            --size;
    1d60:	fd442783          	lw	a5,-44(s0)
    1d64:	fff78793          	add	a5,a5,-1
    1d68:	fcf42a23          	sw	a5,-44(s0)
        }
    }
    
    /*if end of transaction, wait until the ip is idle then disable the ip*/
    if ((issue_stop) || (status != ALT_AVALON_I2C_SUCCESS)) 
    1d6c:	fd244783          	lbu	a5,-46(s0)
    1d70:	04079463          	bnez	a5,1db8 <alt_avalon_i2c_master_transmit+0x1b8>
    1d74:	fe442783          	lw	a5,-28(s0)
    1d78:	06078463          	beqz	a5,1de0 <alt_avalon_i2c_master_transmit+0x1e0>
    {

        while (alt_avalon_i2c_is_busy(i2c_dev))
    1d7c:	03c0006f          	j	1db8 <alt_avalon_i2c_master_transmit+0x1b8>
        {
            if (timeout<10) alt_busy_sleep(10000);
    1d80:	fe842703          	lw	a4,-24(s0)
    1d84:	00900793          	li	a5,9
    1d88:	00e7e863          	bltu	a5,a4,1d98 <alt_avalon_i2c_master_transmit+0x198>
    1d8c:	000027b7          	lui	a5,0x2
    1d90:	71078513          	add	a0,a5,1808 # 2710 <alt_avalon_i2c_enabled_ints_get+0x38>
    1d94:	758010ef          	jal	34ec <alt_busy_sleep>
            if (--timeout == 0)
    1d98:	fe842783          	lw	a5,-24(s0)
    1d9c:	fff78793          	add	a5,a5,-1
    1da0:	fef42423          	sw	a5,-24(s0)
    1da4:	fe842783          	lw	a5,-24(s0)
    1da8:	00079863          	bnez	a5,1db8 <alt_avalon_i2c_master_transmit+0x1b8>
            {
               status = ALT_AVALON_I2C_TIMEOUT;
    1dac:	ffe00793          	li	a5,-2
    1db0:	fef42223          	sw	a5,-28(s0)
               break;
    1db4:	0140006f          	j	1dc8 <alt_avalon_i2c_master_transmit+0x1c8>
        while (alt_avalon_i2c_is_busy(i2c_dev))
    1db8:	fdc42503          	lw	a0,-36(s0)
    1dbc:	bc8ff0ef          	jal	1184 <alt_avalon_i2c_is_busy>
    1dc0:	00050793          	mv	a5,a0
    1dc4:	fa079ee3          	bnez	a5,1d80 <alt_avalon_i2c_master_transmit+0x180>
            }
        }
     
        /*check for a nack error*/
        alt_avalon_i2c_check_nack(i2c_dev,&status);
    1dc8:	fe440793          	add	a5,s0,-28
    1dcc:	00078593          	mv	a1,a5
    1dd0:	fdc42503          	lw	a0,-36(s0)
    1dd4:	801ff0ef          	jal	15d4 <alt_avalon_i2c_check_nack>
        
        /*disable the ip.  The ip is disabled and enabled for each transaction.*/
        alt_avalon_i2c_disable(i2c_dev);
    1dd8:	fdc42503          	lw	a0,-36(s0)
    1ddc:	ffdfe0ef          	jal	dd8 <alt_avalon_i2c_disable>
    }


    return status;
    1de0:	fe442783          	lw	a5,-28(s0)
}
    1de4:	00078713          	mv	a4,a5
    1de8:	0000b7b7          	lui	a5,0xb
    1dec:	fec42683          	lw	a3,-20(s0)
    1df0:	7b87a783          	lw	a5,1976(a5) # b7b8 <__stack_chk_guard>
    1df4:	00f6c7b3          	xor	a5,a3,a5
    1df8:	00000693          	li	a3,0
    1dfc:	00078463          	beqz	a5,1e04 <alt_avalon_i2c_master_transmit+0x204>
    1e00:	3f4030ef          	jal	51f4 <__stack_chk_fail>
    1e04:	00070513          	mv	a0,a4
    1e08:	02c12083          	lw	ra,44(sp)
    1e0c:	02812403          	lw	s0,40(sp)
    1e10:	03010113          	add	sp,sp,48
    1e14:	00008067          	ret

00001e18 <alt_avalon_i2c_master_transmit_using_interrupts>:
ALT_AVALON_I2C_STATUS_CODE alt_avalon_i2c_master_transmit_using_interrupts(ALT_AVALON_I2C_DEV_t *i2c_dev,
                                        const alt_u8 * buffer,
                                        alt_u32 size,
                                        const alt_u8 issue_restart,
                                        const alt_u8 issue_stop)
{
    1e18:	fd010113          	add	sp,sp,-48
    1e1c:	02112623          	sw	ra,44(sp)
    1e20:	02812423          	sw	s0,40(sp)
    1e24:	03010413          	add	s0,sp,48
    1e28:	fca42e23          	sw	a0,-36(s0)
    1e2c:	fcb42c23          	sw	a1,-40(s0)
    1e30:	fcc42a23          	sw	a2,-44(s0)
    1e34:	00068793          	mv	a5,a3
    1e38:	fcf409a3          	sb	a5,-45(s0)
    1e3c:	00070793          	mv	a5,a4
    1e40:	fcf40923          	sb	a5,-46(s0)
    ALT_AVALON_I2C_STATUS_CODE status = ALT_AVALON_I2C_SUCCESS;
    1e44:	fe042223          	sw	zero,-28(s0)
    alt_u32 timeout=size*10000;
    1e48:	fd442703          	lw	a4,-44(s0)
    1e4c:	00070793          	mv	a5,a4
    1e50:	00279793          	sll	a5,a5,0x2
    1e54:	00e787b3          	add	a5,a5,a4
    1e58:	00379793          	sll	a5,a5,0x3
    1e5c:	40e787b3          	sub	a5,a5,a4
    1e60:	00479793          	sll	a5,a5,0x4
    1e64:	00e787b3          	add	a5,a5,a4
    1e68:	00479793          	sll	a5,a5,0x4
    1e6c:	fef42423          	sw	a5,-24(s0)
    IRQ_DATA_t *irq_data = i2c_dev->callback_context;    
    1e70:	fdc42783          	lw	a5,-36(s0)
    1e74:	01c7a783          	lw	a5,28(a5)
    1e78:	fef42623          	sw	a5,-20(s0)
    
    if (size==0)
    1e7c:	fd442783          	lw	a5,-44(s0)
    1e80:	00079663          	bnez	a5,1e8c <alt_avalon_i2c_master_transmit_using_interrupts+0x74>
    {
      return ALT_AVALON_I2C_SUCCESS;
    1e84:	00000793          	li	a5,0
    1e88:	1a00006f          	j	2028 <alt_avalon_i2c_master_transmit_using_interrupts+0x210>
    }
    
    /*IS the optional interrupt handler registered??*/
    if (i2c_dev->callback != optional_irq_callback)
    1e8c:	fdc42783          	lw	a5,-36(s0)
    1e90:	0187a703          	lw	a4,24(a5)
    1e94:	000017b7          	lui	a5,0x1
    1e98:	96c78793          	add	a5,a5,-1684 # 96c <optional_irq_callback>
    1e9c:	00f70663          	beq	a4,a5,1ea8 <alt_avalon_i2c_master_transmit_using_interrupts+0x90>
    {
       return ALT_AVALON_I2C_BAD_ARG;    
    1ea0:	ffd00793          	li	a5,-3
    1ea4:	1840006f          	j	2028 <alt_avalon_i2c_master_transmit_using_interrupts+0x210>
    }
    
    /*if a new transaction, enable ip and clear int status*/
    if (!issue_restart) 
    1ea8:	fd344783          	lbu	a5,-45(s0)
    1eac:	02079663          	bnez	a5,1ed8 <alt_avalon_i2c_master_transmit_using_interrupts+0xc0>
    {
      /*enable the ip.  The ip is disabled and enabled for each transaction.*/
      status = alt_avalon_i2c_enable(i2c_dev);
    1eb0:	fdc42503          	lw	a0,-36(s0)
    1eb4:	e75fe0ef          	jal	d28 <alt_avalon_i2c_enable>
    1eb8:	fea42223          	sw	a0,-28(s0)
      if (status != ALT_AVALON_I2C_SUCCESS)
    1ebc:	fe442783          	lw	a5,-28(s0)
    1ec0:	00078663          	beqz	a5,1ecc <alt_avalon_i2c_master_transmit_using_interrupts+0xb4>
      {
        return status;
    1ec4:	fe442783          	lw	a5,-28(s0)
    1ec8:	1600006f          	j	2028 <alt_avalon_i2c_master_transmit_using_interrupts+0x210>
      }

      /*Clear the ISR reg*/
      alt_avalon_i2c_int_clear(i2c_dev,ALT_AVALON_I2C_ISR_ALL_CLEARABLE_INTS_MSK);
    1ecc:	01c00593          	li	a1,28
    1ed0:	fdc42503          	lw	a0,-36(s0)
    1ed4:	690000ef          	jal	2564 <alt_avalon_i2c_int_clear>
    }

    /*Start Write, transmit address. */
    status = alt_avalon_i2c_send_address(i2c_dev,ALT_AVALON_I2C_WRITE,issue_restart);
    1ed8:	fd344783          	lbu	a5,-45(s0)
    1edc:	00078613          	mv	a2,a5
    1ee0:	00000593          	li	a1,0
    1ee4:	fdc42503          	lw	a0,-36(s0)
    1ee8:	d8cff0ef          	jal	1474 <alt_avalon_i2c_send_address>
    1eec:	fea42223          	sw	a0,-28(s0)
        
    if (status == ALT_AVALON_I2C_SUCCESS)
    1ef0:	fe442783          	lw	a5,-28(s0)
    1ef4:	08079c63          	bnez	a5,1f8c <alt_avalon_i2c_master_transmit_using_interrupts+0x174>
    {
        while ((size > 1) && (status == ALT_AVALON_I2C_SUCCESS))
    1ef8:	03c0006f          	j	1f34 <alt_avalon_i2c_master_transmit_using_interrupts+0x11c>
        {
            status = alt_avalon_i2c_cmd_write(i2c_dev, *buffer, ALT_AVALON_I2C_NO_RESTART, ALT_AVALON_I2C_NO_STOP);
    1efc:	fd842783          	lw	a5,-40(s0)
    1f00:	0007c783          	lbu	a5,0(a5)
    1f04:	00000693          	li	a3,0
    1f08:	00000613          	li	a2,0
    1f0c:	00078593          	mv	a1,a5
    1f10:	fdc42503          	lw	a0,-36(s0)
    1f14:	c30ff0ef          	jal	1344 <alt_avalon_i2c_cmd_write>
    1f18:	fea42223          	sw	a0,-28(s0)
            
            ++buffer;
    1f1c:	fd842783          	lw	a5,-40(s0)
    1f20:	00178793          	add	a5,a5,1
    1f24:	fcf42c23          	sw	a5,-40(s0)
            --size;
    1f28:	fd442783          	lw	a5,-44(s0)
    1f2c:	fff78793          	add	a5,a5,-1
    1f30:	fcf42a23          	sw	a5,-44(s0)
        while ((size > 1) && (status == ALT_AVALON_I2C_SUCCESS))
    1f34:	fd442703          	lw	a4,-44(s0)
    1f38:	00100793          	li	a5,1
    1f3c:	00e7f663          	bgeu	a5,a4,1f48 <alt_avalon_i2c_master_transmit_using_interrupts+0x130>
    1f40:	fe442783          	lw	a5,-28(s0)
    1f44:	fa078ce3          	beqz	a5,1efc <alt_avalon_i2c_master_transmit_using_interrupts+0xe4>
        }

        /* Last byte */
        if (status == ALT_AVALON_I2C_SUCCESS)
    1f48:	fe442783          	lw	a5,-28(s0)
    1f4c:	04079063          	bnez	a5,1f8c <alt_avalon_i2c_master_transmit_using_interrupts+0x174>
        {
            status = alt_avalon_i2c_cmd_write(i2c_dev, *buffer, ALT_AVALON_I2C_NO_RESTART, issue_stop);
    1f50:	fd842783          	lw	a5,-40(s0)
    1f54:	0007c783          	lbu	a5,0(a5)
    1f58:	fd244703          	lbu	a4,-46(s0)
    1f5c:	00070693          	mv	a3,a4
    1f60:	00000613          	li	a2,0
    1f64:	00078593          	mv	a1,a5
    1f68:	fdc42503          	lw	a0,-36(s0)
    1f6c:	bd8ff0ef          	jal	1344 <alt_avalon_i2c_cmd_write>
    1f70:	fea42223          	sw	a0,-28(s0)

            ++buffer;
    1f74:	fd842783          	lw	a5,-40(s0)
    1f78:	00178793          	add	a5,a5,1
    1f7c:	fcf42c23          	sw	a5,-40(s0)
            --size;
    1f80:	fd442783          	lw	a5,-44(s0)
    1f84:	fff78793          	add	a5,a5,-1
    1f88:	fcf42a23          	sw	a5,-44(s0)
        }
    }
    
    /*if error, wait until the ip is idle then disable the ip*/
    if (status != ALT_AVALON_I2C_SUCCESS) 
    1f8c:	fe442783          	lw	a5,-28(s0)
    1f90:	04078e63          	beqz	a5,1fec <alt_avalon_i2c_master_transmit_using_interrupts+0x1d4>
    {

        while (alt_avalon_i2c_is_busy(i2c_dev))
    1f94:	03c0006f          	j	1fd0 <alt_avalon_i2c_master_transmit_using_interrupts+0x1b8>
        {
            if (timeout<10) alt_busy_sleep(10000);        
    1f98:	fe842703          	lw	a4,-24(s0)
    1f9c:	00900793          	li	a5,9
    1fa0:	00e7e863          	bltu	a5,a4,1fb0 <alt_avalon_i2c_master_transmit_using_interrupts+0x198>
    1fa4:	000027b7          	lui	a5,0x2
    1fa8:	71078513          	add	a0,a5,1808 # 2710 <alt_avalon_i2c_enabled_ints_get+0x38>
    1fac:	540010ef          	jal	34ec <alt_busy_sleep>
            if (--timeout == 0)
    1fb0:	fe842783          	lw	a5,-24(s0)
    1fb4:	fff78793          	add	a5,a5,-1
    1fb8:	fef42423          	sw	a5,-24(s0)
    1fbc:	fe842783          	lw	a5,-24(s0)
    1fc0:	00079863          	bnez	a5,1fd0 <alt_avalon_i2c_master_transmit_using_interrupts+0x1b8>
            {
               status = ALT_AVALON_I2C_TIMEOUT;
    1fc4:	ffe00793          	li	a5,-2
    1fc8:	fef42223          	sw	a5,-28(s0)
               break;
    1fcc:	0140006f          	j	1fe0 <alt_avalon_i2c_master_transmit_using_interrupts+0x1c8>
        while (alt_avalon_i2c_is_busy(i2c_dev))
    1fd0:	fdc42503          	lw	a0,-36(s0)
    1fd4:	9b0ff0ef          	jal	1184 <alt_avalon_i2c_is_busy>
    1fd8:	00050793          	mv	a5,a0
    1fdc:	fa079ee3          	bnez	a5,1f98 <alt_avalon_i2c_master_transmit_using_interrupts+0x180>
            }
        }
     
        /*disable the ip.  The ip is disabled and enabled for each transaction.*/
        alt_avalon_i2c_disable(i2c_dev);
    1fe0:	fdc42503          	lw	a0,-36(s0)
    1fe4:	df5fe0ef          	jal	dd8 <alt_avalon_i2c_disable>
    1fe8:	03c0006f          	j	2024 <alt_avalon_i2c_master_transmit_using_interrupts+0x20c>
    }
    else
    {
       if (issue_stop)
    1fec:	fd244783          	lbu	a5,-46(s0)
    1ff0:	02078a63          	beqz	a5,2024 <alt_avalon_i2c_master_transmit_using_interrupts+0x20c>
       {
         /* clear ISR register content */
         alt_avalon_i2c_int_clear(i2c_dev,ALT_AVALON_I2C_ISR_ALL_CLEARABLE_INTS_MSK);
    1ff4:	01c00593          	li	a1,28
    1ff8:	fdc42503          	lw	a0,-36(s0)
    1ffc:	568000ef          	jal	2564 <alt_avalon_i2c_int_clear>
         /* set the cmd fifo threshold */
         alt_avalon_i2c_tfr_cmd_fifo_threshold_set(i2c_dev,ALT_AVALON_I2C_TFR_CMD_FIFO_EMPTY);
    2000:	00000593          	li	a1,0
    2004:	fdc42503          	lw	a0,-36(s0)
    2008:	019000ef          	jal	2820 <alt_avalon_i2c_tfr_cmd_fifo_threshold_set>
         /* set the interrupt transaction busy bit */
         irq_data->irq_busy=1;
    200c:	fec42783          	lw	a5,-20(s0)
    2010:	00100713          	li	a4,1
    2014:	00e7a423          	sw	a4,8(a5)
         /* enable the TX_READY interrupt */
         alt_avalon_i2c_int_enable(i2c_dev,ALT_AVALON_I2C_ISER_TX_READY_EN_MSK);
    2018:	00100593          	li	a1,1
    201c:	fdc42503          	lw	a0,-36(s0)
    2020:	620000ef          	jal	2640 <alt_avalon_i2c_int_enable>
       }
    }
    
    return status;
    2024:	fe442783          	lw	a5,-28(s0)
}
    2028:	00078513          	mv	a0,a5
    202c:	02c12083          	lw	ra,44(sp)
    2030:	02812403          	lw	s0,40(sp)
    2034:	03010113          	add	sp,sp,48
    2038:	00008067          	ret

0000203c <alt_avalon_i2c_master_receive>:
ALT_AVALON_I2C_STATUS_CODE alt_avalon_i2c_master_receive(ALT_AVALON_I2C_DEV_t *i2c_dev,
                                       alt_u8 * buffer,
                                       const alt_u32 size,
                                       const alt_u8 issue_restart,
                                       const alt_u8 issue_stop)
{
    203c:	fc010113          	add	sp,sp,-64
    2040:	02112e23          	sw	ra,60(sp)
    2044:	02812c23          	sw	s0,56(sp)
    2048:	04010413          	add	s0,sp,64
    204c:	fca42623          	sw	a0,-52(s0)
    2050:	fcb42423          	sw	a1,-56(s0)
    2054:	fcc42223          	sw	a2,-60(s0)
    2058:	00068793          	mv	a5,a3
    205c:	fcf401a3          	sb	a5,-61(s0)
    2060:	00070793          	mv	a5,a4
    2064:	fcf40123          	sb	a5,-62(s0)
    2068:	0000b7b7          	lui	a5,0xb
    206c:	7b87a703          	lw	a4,1976(a5) # b7b8 <__stack_chk_guard>
    2070:	fee42623          	sw	a4,-20(s0)
    2074:	00000713          	li	a4,0
    ALT_AVALON_I2C_STATUS_CODE status = ALT_AVALON_I2C_SUCCESS;
    2078:	fc042c23          	sw	zero,-40(s0)
    alt_u32 timeout;
    alt_u32 bytes_read=0;
    207c:	fe042223          	sw	zero,-28(s0)
    alt_u32 bytes_written=0;
    2080:	fe042423          	sw	zero,-24(s0)
    alt_u32 temp_bytes_read;
    
    if (size==0)
    2084:	fc442783          	lw	a5,-60(s0)
    2088:	00079663          	bnez	a5,2094 <alt_avalon_i2c_master_receive+0x58>
    {
      return ALT_AVALON_I2C_SUCCESS;
    208c:	00000793          	li	a5,0
    2090:	1ec0006f          	j	227c <alt_avalon_i2c_master_receive+0x240>
    }
    
    /*if a new transaction, enable ip and clear int status*/
    if (!issue_restart) 
    2094:	fc344783          	lbu	a5,-61(s0)
    2098:	02079863          	bnez	a5,20c8 <alt_avalon_i2c_master_receive+0x8c>
    {
       /*enable the ip.  The ip is disabled and enabled for each transaction.*/
      status = alt_avalon_i2c_enable(i2c_dev);
    209c:	fcc42503          	lw	a0,-52(s0)
    20a0:	c89fe0ef          	jal	d28 <alt_avalon_i2c_enable>
    20a4:	00050793          	mv	a5,a0
    20a8:	fcf42c23          	sw	a5,-40(s0)
      if (status != ALT_AVALON_I2C_SUCCESS)
    20ac:	fd842783          	lw	a5,-40(s0)
    20b0:	00078663          	beqz	a5,20bc <alt_avalon_i2c_master_receive+0x80>
      {
        return status;
    20b4:	fd842783          	lw	a5,-40(s0)
    20b8:	1c40006f          	j	227c <alt_avalon_i2c_master_receive+0x240>
      }

      /*Clear the ISR reg*/
      alt_avalon_i2c_int_clear(i2c_dev,ALT_AVALON_I2C_ISR_ALL_CLEARABLE_INTS_MSK);
    20bc:	01c00593          	li	a1,28
    20c0:	fcc42503          	lw	a0,-52(s0)
    20c4:	4a0000ef          	jal	2564 <alt_avalon_i2c_int_clear>
    }

    /*Start Write, transmit address. */
    status = alt_avalon_i2c_send_address(i2c_dev,ALT_AVALON_I2C_READ,issue_restart);
    20c8:	fc344783          	lbu	a5,-61(s0)
    20cc:	00078613          	mv	a2,a5
    20d0:	00100593          	li	a1,1
    20d4:	fcc42503          	lw	a0,-52(s0)
    20d8:	b9cff0ef          	jal	1474 <alt_avalon_i2c_send_address>
    20dc:	00050793          	mv	a5,a0
    20e0:	fcf42c23          	sw	a5,-40(s0)

    if (status == ALT_AVALON_I2C_SUCCESS)
    20e4:	fd842783          	lw	a5,-40(s0)
    20e8:	0e079063          	bnez	a5,21c8 <alt_avalon_i2c_master_receive+0x18c>
    {
        while ((bytes_written < (size-1)) && (status == ALT_AVALON_I2C_SUCCESS))
    20ec:	06c0006f          	j	2158 <alt_avalon_i2c_master_receive+0x11c>
        {
            status = alt_avalon_i2c_cmd_write(i2c_dev, 0, ALT_AVALON_I2C_NO_RESTART, ALT_AVALON_I2C_NO_STOP);
    20f0:	00000693          	li	a3,0
    20f4:	00000613          	li	a2,0
    20f8:	00000593          	li	a1,0
    20fc:	fcc42503          	lw	a0,-52(s0)
    2100:	a44ff0ef          	jal	1344 <alt_avalon_i2c_cmd_write>
    2104:	00050793          	mv	a5,a0
    2108:	fcf42c23          	sw	a5,-40(s0)
            bytes_written++;
    210c:	fe842783          	lw	a5,-24(s0)
    2110:	00178793          	add	a5,a5,1
    2114:	fef42423          	sw	a5,-24(s0)
            if (status == ALT_AVALON_I2C_SUCCESS)
    2118:	fd842783          	lw	a5,-40(s0)
    211c:	02079e63          	bnez	a5,2158 <alt_avalon_i2c_master_receive+0x11c>
            {
               alt_avalon_i2c_rx_read_available(i2c_dev, buffer,0,&temp_bytes_read);
    2120:	fdc40793          	add	a5,s0,-36
    2124:	00078693          	mv	a3,a5
    2128:	00000613          	li	a2,0
    212c:	fc842583          	lw	a1,-56(s0)
    2130:	fcc42503          	lw	a0,-52(s0)
    2134:	89cff0ef          	jal	11d0 <alt_avalon_i2c_rx_read_available>
               buffer+=temp_bytes_read;
    2138:	fdc42783          	lw	a5,-36(s0)
    213c:	fc842703          	lw	a4,-56(s0)
    2140:	00f707b3          	add	a5,a4,a5
    2144:	fcf42423          	sw	a5,-56(s0)
               bytes_read+=temp_bytes_read;
    2148:	fdc42783          	lw	a5,-36(s0)
    214c:	fe442703          	lw	a4,-28(s0)
    2150:	00f707b3          	add	a5,a4,a5
    2154:	fef42223          	sw	a5,-28(s0)
        while ((bytes_written < (size-1)) && (status == ALT_AVALON_I2C_SUCCESS))
    2158:	fc442783          	lw	a5,-60(s0)
    215c:	fff78793          	add	a5,a5,-1
    2160:	fe842703          	lw	a4,-24(s0)
    2164:	00f77663          	bgeu	a4,a5,2170 <alt_avalon_i2c_master_receive+0x134>
    2168:	fd842783          	lw	a5,-40(s0)
    216c:	f80782e3          	beqz	a5,20f0 <alt_avalon_i2c_master_receive+0xb4>
            }
        }

        /* Last byte */
        if (status == ALT_AVALON_I2C_SUCCESS)
    2170:	fd842783          	lw	a5,-40(s0)
    2174:	04079a63          	bnez	a5,21c8 <alt_avalon_i2c_master_receive+0x18c>
        {
            status = alt_avalon_i2c_cmd_write(i2c_dev, 0, ALT_AVALON_I2C_NO_RESTART, issue_stop);
    2178:	fc244783          	lbu	a5,-62(s0)
    217c:	00078693          	mv	a3,a5
    2180:	00000613          	li	a2,0
    2184:	00000593          	li	a1,0
    2188:	fcc42503          	lw	a0,-52(s0)
    218c:	9b8ff0ef          	jal	1344 <alt_avalon_i2c_cmd_write>
    2190:	00050793          	mv	a5,a0
    2194:	fcf42c23          	sw	a5,-40(s0)
        }
    }
    
    while ((bytes_read < size) && (status==ALT_AVALON_I2C_SUCCESS)) 
    2198:	0300006f          	j	21c8 <alt_avalon_i2c_master_receive+0x18c>
    {
        status=alt_avalon_i2c_rx_read(i2c_dev, buffer);
    219c:	fc842583          	lw	a1,-56(s0)
    21a0:	fcc42503          	lw	a0,-52(s0)
    21a4:	8e4ff0ef          	jal	1288 <alt_avalon_i2c_rx_read>
    21a8:	00050793          	mv	a5,a0
    21ac:	fcf42c23          	sw	a5,-40(s0)
        buffer++;
    21b0:	fc842783          	lw	a5,-56(s0)
    21b4:	00178793          	add	a5,a5,1
    21b8:	fcf42423          	sw	a5,-56(s0)
        bytes_read++;
    21bc:	fe442783          	lw	a5,-28(s0)
    21c0:	00178793          	add	a5,a5,1
    21c4:	fef42223          	sw	a5,-28(s0)
    while ((bytes_read < size) && (status==ALT_AVALON_I2C_SUCCESS)) 
    21c8:	fe442703          	lw	a4,-28(s0)
    21cc:	fc442783          	lw	a5,-60(s0)
    21d0:	00f77663          	bgeu	a4,a5,21dc <alt_avalon_i2c_master_receive+0x1a0>
    21d4:	fd842783          	lw	a5,-40(s0)
    21d8:	fc0782e3          	beqz	a5,219c <alt_avalon_i2c_master_receive+0x160>
    }

    /*if end of transaction, wait until the ip is idle then disable the ip*/
    if ((issue_stop) || (status != ALT_AVALON_I2C_SUCCESS)) 
    21dc:	fc244783          	lbu	a5,-62(s0)
    21e0:	00079663          	bnez	a5,21ec <alt_avalon_i2c_master_receive+0x1b0>
    21e4:	fd842783          	lw	a5,-40(s0)
    21e8:	08078863          	beqz	a5,2278 <alt_avalon_i2c_master_receive+0x23c>
    {
        timeout=10000 * size;
    21ec:	fc442703          	lw	a4,-60(s0)
    21f0:	00070793          	mv	a5,a4
    21f4:	00279793          	sll	a5,a5,0x2
    21f8:	00e787b3          	add	a5,a5,a4
    21fc:	00379793          	sll	a5,a5,0x3
    2200:	40e787b3          	sub	a5,a5,a4
    2204:	00479793          	sll	a5,a5,0x4
    2208:	00e787b3          	add	a5,a5,a4
    220c:	00479793          	sll	a5,a5,0x4
    2210:	fef42023          	sw	a5,-32(s0)
        while (alt_avalon_i2c_is_busy(i2c_dev))
    2214:	03c0006f          	j	2250 <alt_avalon_i2c_master_receive+0x214>
        {
            if (timeout<10) alt_busy_sleep(10000);
    2218:	fe042703          	lw	a4,-32(s0)
    221c:	00900793          	li	a5,9
    2220:	00e7e863          	bltu	a5,a4,2230 <alt_avalon_i2c_master_receive+0x1f4>
    2224:	000027b7          	lui	a5,0x2
    2228:	71078513          	add	a0,a5,1808 # 2710 <alt_avalon_i2c_enabled_ints_get+0x38>
    222c:	2c0010ef          	jal	34ec <alt_busy_sleep>
            if (--timeout == 0)
    2230:	fe042783          	lw	a5,-32(s0)
    2234:	fff78793          	add	a5,a5,-1
    2238:	fef42023          	sw	a5,-32(s0)
    223c:	fe042783          	lw	a5,-32(s0)
    2240:	00079863          	bnez	a5,2250 <alt_avalon_i2c_master_receive+0x214>
            {
               status = ALT_AVALON_I2C_TIMEOUT;
    2244:	ffe00793          	li	a5,-2
    2248:	fcf42c23          	sw	a5,-40(s0)
               break;
    224c:	0140006f          	j	2260 <alt_avalon_i2c_master_receive+0x224>
        while (alt_avalon_i2c_is_busy(i2c_dev))
    2250:	fcc42503          	lw	a0,-52(s0)
    2254:	f31fe0ef          	jal	1184 <alt_avalon_i2c_is_busy>
    2258:	00050793          	mv	a5,a0
    225c:	fa079ee3          	bnez	a5,2218 <alt_avalon_i2c_master_receive+0x1dc>
            }
        }

        /*check for nack error*/
        alt_avalon_i2c_check_nack(i2c_dev,&status);    
    2260:	fd840793          	add	a5,s0,-40
    2264:	00078593          	mv	a1,a5
    2268:	fcc42503          	lw	a0,-52(s0)
    226c:	b68ff0ef          	jal	15d4 <alt_avalon_i2c_check_nack>
        
        /*disable the ip.  The ip is disabled and enabled for each transaction.*/
        alt_avalon_i2c_disable(i2c_dev);
    2270:	fcc42503          	lw	a0,-52(s0)
    2274:	b65fe0ef          	jal	dd8 <alt_avalon_i2c_disable>
    }

    return status;
    2278:	fd842783          	lw	a5,-40(s0)
}
    227c:	00078713          	mv	a4,a5
    2280:	0000b7b7          	lui	a5,0xb
    2284:	fec42683          	lw	a3,-20(s0)
    2288:	7b87a783          	lw	a5,1976(a5) # b7b8 <__stack_chk_guard>
    228c:	00f6c7b3          	xor	a5,a3,a5
    2290:	00000693          	li	a3,0
    2294:	00078463          	beqz	a5,229c <alt_avalon_i2c_master_receive+0x260>
    2298:	75d020ef          	jal	51f4 <__stack_chk_fail>
    229c:	00070513          	mv	a0,a4
    22a0:	03c12083          	lw	ra,60(sp)
    22a4:	03812403          	lw	s0,56(sp)
    22a8:	04010113          	add	sp,sp,64
    22ac:	00008067          	ret

000022b0 <alt_avalon_i2c_master_receive_using_interrupts>:
ALT_AVALON_I2C_STATUS_CODE alt_avalon_i2c_master_receive_using_interrupts(ALT_AVALON_I2C_DEV_t *i2c_dev,
                                       alt_u8 * buffer,
                                       const alt_u32 size,
                                       const alt_u8 issue_restart,
                                       const alt_u8 issue_stop)
{
    22b0:	fd010113          	add	sp,sp,-48
    22b4:	02112623          	sw	ra,44(sp)
    22b8:	02812423          	sw	s0,40(sp)
    22bc:	03010413          	add	s0,sp,48
    22c0:	fca42e23          	sw	a0,-36(s0)
    22c4:	fcb42c23          	sw	a1,-40(s0)
    22c8:	fcc42a23          	sw	a2,-44(s0)
    22cc:	00068793          	mv	a5,a3
    22d0:	fcf409a3          	sb	a5,-45(s0)
    22d4:	00070793          	mv	a5,a4
    22d8:	fcf40923          	sb	a5,-46(s0)
    ALT_AVALON_I2C_STATUS_CODE status = ALT_AVALON_I2C_SUCCESS;
    22dc:	fe042023          	sw	zero,-32(s0)
    IRQ_DATA_t *irq_data = i2c_dev->callback_context;    
    22e0:	fdc42783          	lw	a5,-36(s0)
    22e4:	01c7a783          	lw	a5,28(a5)
    22e8:	fef42623          	sw	a5,-20(s0)
    alt_u32 timeout;
    alt_u32 bytes_written=0;
    22ec:	fe042423          	sw	zero,-24(s0)
    
    if (size==0)
    22f0:	fd442783          	lw	a5,-44(s0)
    22f4:	00079663          	bnez	a5,2300 <alt_avalon_i2c_master_receive_using_interrupts+0x50>
    {
      return ALT_AVALON_I2C_SUCCESS;
    22f8:	00000793          	li	a5,0
    22fc:	1b00006f          	j	24ac <alt_avalon_i2c_master_receive_using_interrupts+0x1fc>
    }
    
    /*Is the optional interrupt handler registered??*/
    if (i2c_dev->callback != optional_irq_callback)
    2300:	fdc42783          	lw	a5,-36(s0)
    2304:	0187a703          	lw	a4,24(a5)
    2308:	000017b7          	lui	a5,0x1
    230c:	96c78793          	add	a5,a5,-1684 # 96c <optional_irq_callback>
    2310:	00f70663          	beq	a4,a5,231c <alt_avalon_i2c_master_receive_using_interrupts+0x6c>
    {
       return ALT_AVALON_I2C_BAD_ARG;    
    2314:	ffd00793          	li	a5,-3
    2318:	1940006f          	j	24ac <alt_avalon_i2c_master_receive_using_interrupts+0x1fc>
    }
    
    /*if a new transaction, enable ip and clear int status*/
    if (!issue_restart) 
    231c:	fd344783          	lbu	a5,-45(s0)
    2320:	02079663          	bnez	a5,234c <alt_avalon_i2c_master_receive_using_interrupts+0x9c>
    {
      /*enable the ip.  The ip is disabled and enabled for each transaction.*/
      status = alt_avalon_i2c_enable(i2c_dev);
    2324:	fdc42503          	lw	a0,-36(s0)
    2328:	a01fe0ef          	jal	d28 <alt_avalon_i2c_enable>
    232c:	fea42023          	sw	a0,-32(s0)
      if (status != ALT_AVALON_I2C_SUCCESS)
    2330:	fe042783          	lw	a5,-32(s0)
    2334:	00078663          	beqz	a5,2340 <alt_avalon_i2c_master_receive_using_interrupts+0x90>
      {
        return status;
    2338:	fe042783          	lw	a5,-32(s0)
    233c:	1700006f          	j	24ac <alt_avalon_i2c_master_receive_using_interrupts+0x1fc>
      }

      /*Clear the ISR reg*/
      alt_avalon_i2c_int_clear(i2c_dev,ALT_AVALON_I2C_ISR_ALL_CLEARABLE_INTS_MSK);
    2340:	01c00593          	li	a1,28
    2344:	fdc42503          	lw	a0,-36(s0)
    2348:	21c000ef          	jal	2564 <alt_avalon_i2c_int_clear>
      
    }

    /*Start Write, transmit address. */
    status = alt_avalon_i2c_send_address(i2c_dev,ALT_AVALON_I2C_READ,issue_restart);
    234c:	fd344783          	lbu	a5,-45(s0)
    2350:	00078613          	mv	a2,a5
    2354:	00100593          	li	a1,1
    2358:	fdc42503          	lw	a0,-36(s0)
    235c:	918ff0ef          	jal	1474 <alt_avalon_i2c_send_address>
    2360:	fea42023          	sw	a0,-32(s0)

    if (status == ALT_AVALON_I2C_SUCCESS)
    2364:	fe042783          	lw	a5,-32(s0)
    2368:	06079463          	bnez	a5,23d0 <alt_avalon_i2c_master_receive_using_interrupts+0x120>
    {
        while ((bytes_written < (size-1)) && (status == ALT_AVALON_I2C_SUCCESS))
    236c:	0280006f          	j	2394 <alt_avalon_i2c_master_receive_using_interrupts+0xe4>
        {
            status = alt_avalon_i2c_cmd_write(i2c_dev, 0, ALT_AVALON_I2C_NO_RESTART, ALT_AVALON_I2C_NO_STOP);
    2370:	00000693          	li	a3,0
    2374:	00000613          	li	a2,0
    2378:	00000593          	li	a1,0
    237c:	fdc42503          	lw	a0,-36(s0)
    2380:	fc5fe0ef          	jal	1344 <alt_avalon_i2c_cmd_write>
    2384:	fea42023          	sw	a0,-32(s0)
            bytes_written++;
    2388:	fe842783          	lw	a5,-24(s0)
    238c:	00178793          	add	a5,a5,1
    2390:	fef42423          	sw	a5,-24(s0)
        while ((bytes_written < (size-1)) && (status == ALT_AVALON_I2C_SUCCESS))
    2394:	fd442783          	lw	a5,-44(s0)
    2398:	fff78793          	add	a5,a5,-1
    239c:	fe842703          	lw	a4,-24(s0)
    23a0:	00f77663          	bgeu	a4,a5,23ac <alt_avalon_i2c_master_receive_using_interrupts+0xfc>
    23a4:	fe042783          	lw	a5,-32(s0)
    23a8:	fc0784e3          	beqz	a5,2370 <alt_avalon_i2c_master_receive_using_interrupts+0xc0>
        }

        /* Last byte */
        if (status == ALT_AVALON_I2C_SUCCESS)
    23ac:	fe042783          	lw	a5,-32(s0)
    23b0:	02079063          	bnez	a5,23d0 <alt_avalon_i2c_master_receive_using_interrupts+0x120>
        {
            status = alt_avalon_i2c_cmd_write(i2c_dev, 0, ALT_AVALON_I2C_NO_RESTART, issue_stop);
    23b4:	fd244783          	lbu	a5,-46(s0)
    23b8:	00078693          	mv	a3,a5
    23bc:	00000613          	li	a2,0
    23c0:	00000593          	li	a1,0
    23c4:	fdc42503          	lw	a0,-36(s0)
    23c8:	f7dfe0ef          	jal	1344 <alt_avalon_i2c_cmd_write>
    23cc:	fea42023          	sw	a0,-32(s0)
        }
    }
    
    /*if error, wait until the ip is idle then disable the ip*/
    if (status != ALT_AVALON_I2C_SUCCESS) 
    23d0:	fe042783          	lw	a5,-32(s0)
    23d4:	08078263          	beqz	a5,2458 <alt_avalon_i2c_master_receive_using_interrupts+0x1a8>
    {
        timeout=10000 * size;
    23d8:	fd442703          	lw	a4,-44(s0)
    23dc:	00070793          	mv	a5,a4
    23e0:	00279793          	sll	a5,a5,0x2
    23e4:	00e787b3          	add	a5,a5,a4
    23e8:	00379793          	sll	a5,a5,0x3
    23ec:	40e787b3          	sub	a5,a5,a4
    23f0:	00479793          	sll	a5,a5,0x4
    23f4:	00e787b3          	add	a5,a5,a4
    23f8:	00479793          	sll	a5,a5,0x4
    23fc:	fef42223          	sw	a5,-28(s0)
        while (alt_avalon_i2c_is_busy(i2c_dev))
    2400:	03c0006f          	j	243c <alt_avalon_i2c_master_receive_using_interrupts+0x18c>
        {
            if (timeout<10) alt_busy_sleep(10000);
    2404:	fe442703          	lw	a4,-28(s0)
    2408:	00900793          	li	a5,9
    240c:	00e7e863          	bltu	a5,a4,241c <alt_avalon_i2c_master_receive_using_interrupts+0x16c>
    2410:	000027b7          	lui	a5,0x2
    2414:	71078513          	add	a0,a5,1808 # 2710 <alt_avalon_i2c_enabled_ints_get+0x38>
    2418:	0d4010ef          	jal	34ec <alt_busy_sleep>
            if (--timeout == 0)
    241c:	fe442783          	lw	a5,-28(s0)
    2420:	fff78793          	add	a5,a5,-1
    2424:	fef42223          	sw	a5,-28(s0)
    2428:	fe442783          	lw	a5,-28(s0)
    242c:	00079863          	bnez	a5,243c <alt_avalon_i2c_master_receive_using_interrupts+0x18c>
            {
               status = ALT_AVALON_I2C_TIMEOUT;
    2430:	ffe00793          	li	a5,-2
    2434:	fef42023          	sw	a5,-32(s0)
               break;
    2438:	0140006f          	j	244c <alt_avalon_i2c_master_receive_using_interrupts+0x19c>
        while (alt_avalon_i2c_is_busy(i2c_dev))
    243c:	fdc42503          	lw	a0,-36(s0)
    2440:	d45fe0ef          	jal	1184 <alt_avalon_i2c_is_busy>
    2444:	00050793          	mv	a5,a0
    2448:	fa079ee3          	bnez	a5,2404 <alt_avalon_i2c_master_receive_using_interrupts+0x154>
            }
        }
     
        /*disable the ip.  The ip is disabled and enabled for each transaction.*/
        alt_avalon_i2c_disable(i2c_dev);
    244c:	fdc42503          	lw	a0,-36(s0)
    2450:	989fe0ef          	jal	dd8 <alt_avalon_i2c_disable>
    2454:	0540006f          	j	24a8 <alt_avalon_i2c_master_receive_using_interrupts+0x1f8>
    }
    else
    {
       if (issue_stop)
    2458:	fd244783          	lbu	a5,-46(s0)
    245c:	04078663          	beqz	a5,24a8 <alt_avalon_i2c_master_receive_using_interrupts+0x1f8>
       {
         /* clear ISR register content */
         alt_avalon_i2c_int_clear(i2c_dev,ALT_AVALON_I2C_ISR_ALL_CLEARABLE_INTS_MSK);
    2460:	01c00593          	li	a1,28
    2464:	fdc42503          	lw	a0,-36(s0)
    2468:	0fc000ef          	jal	2564 <alt_avalon_i2c_int_clear>
         /* set the cmd fifo threshold */
         alt_avalon_i2c_rx_fifo_threshold_set(i2c_dev,ALT_AVALON_I2C_RX_DATA_FIFO_1_ENTRY);
    246c:	00000593          	li	a1,0
    2470:	fdc42503          	lw	a0,-36(s0)
    2474:	2f8000ef          	jal	276c <alt_avalon_i2c_rx_fifo_threshold_set>
         /* set the interrupt transaction busy bit  2 = receive */
         irq_data->irq_busy=2;
    2478:	fec42783          	lw	a5,-20(s0)
    247c:	00200713          	li	a4,2
    2480:	00e7a423          	sw	a4,8(a5)
         
         irq_data->buffer = buffer;
    2484:	fec42783          	lw	a5,-20(s0)
    2488:	fd842703          	lw	a4,-40(s0)
    248c:	00e7a023          	sw	a4,0(a5)
         irq_data->size = size;
    2490:	fec42783          	lw	a5,-20(s0)
    2494:	fd442703          	lw	a4,-44(s0)
    2498:	00e7a223          	sw	a4,4(a5)
         
         /* enable the RX_READY interrupt */
         alt_avalon_i2c_int_enable(i2c_dev,ALT_AVALON_I2C_ISER_RX_READY_EN_MSK);
    249c:	00200593          	li	a1,2
    24a0:	fdc42503          	lw	a0,-36(s0)
    24a4:	19c000ef          	jal	2640 <alt_avalon_i2c_int_enable>
       }
    }

    return status;
    24a8:	fe042783          	lw	a5,-32(s0)
}
    24ac:	00078513          	mv	a0,a5
    24b0:	02c12083          	lw	ra,44(sp)
    24b4:	02812403          	lw	s0,40(sp)
    24b8:	03010113          	add	sp,sp,48
    24bc:	00008067          	ret

000024c0 <alt_avalon_i2c_int_status_get>:

/* Returns the current I2C controller interrupt status conditions. */
void alt_avalon_i2c_int_status_get(ALT_AVALON_I2C_DEV_t *i2c_dev,
                                       alt_u32 *status)
{
    24c0:	fd010113          	add	sp,sp,-48
    24c4:	02812623          	sw	s0,44(sp)
    24c8:	03010413          	add	s0,sp,48
    24cc:	fca42e23          	sw	a0,-36(s0)
    24d0:	fcb42c23          	sw	a1,-40(s0)
    *status = IORD_ALT_AVALON_I2C_ISR(i2c_dev->i2c_base) & IORD_ALT_AVALON_I2C_ISER(i2c_dev->i2c_base);
    24d4:	fdc42783          	lw	a5,-36(s0)
    24d8:	00c7a783          	lw	a5,12(a5)
    24dc:	01078793          	add	a5,a5,16
    24e0:	0007a783          	lw	a5,0(a5)
    24e4:	fef42423          	sw	a5,-24(s0)
    24e8:	fe842703          	lw	a4,-24(s0)
    24ec:	fdc42783          	lw	a5,-36(s0)
    24f0:	00c7a783          	lw	a5,12(a5)
    24f4:	00c78793          	add	a5,a5,12
    24f8:	0007a783          	lw	a5,0(a5)
    24fc:	fef42623          	sw	a5,-20(s0)
    2500:	fec42783          	lw	a5,-20(s0)
    2504:	00f77733          	and	a4,a4,a5
    2508:	fd842783          	lw	a5,-40(s0)
    250c:	00e7a023          	sw	a4,0(a5)
}
    2510:	00000013          	nop
    2514:	02c12403          	lw	s0,44(sp)
    2518:	03010113          	add	sp,sp,48
    251c:	00008067          	ret

00002520 <alt_avalon_i2c_int_raw_status_get>:

/*Returns the I2C controller raw interrupt status conditions irrespective of
 * the interrupt status condition enablement state. */
void alt_avalon_i2c_int_raw_status_get(ALT_AVALON_I2C_DEV_t *i2c_dev,
                                           alt_u32 *status)
{
    2520:	fd010113          	add	sp,sp,-48
    2524:	02812623          	sw	s0,44(sp)
    2528:	03010413          	add	s0,sp,48
    252c:	fca42e23          	sw	a0,-36(s0)
    2530:	fcb42c23          	sw	a1,-40(s0)
    *status = IORD_ALT_AVALON_I2C_ISR(i2c_dev->i2c_base);
    2534:	fdc42783          	lw	a5,-36(s0)
    2538:	00c7a783          	lw	a5,12(a5)
    253c:	01078793          	add	a5,a5,16
    2540:	0007a783          	lw	a5,0(a5)
    2544:	fef42623          	sw	a5,-20(s0)
    2548:	fec42703          	lw	a4,-20(s0)
    254c:	fd842783          	lw	a5,-40(s0)
    2550:	00e7a023          	sw	a4,0(a5)
}
    2554:	00000013          	nop
    2558:	02c12403          	lw	s0,44(sp)
    255c:	03010113          	add	sp,sp,48
    2560:	00008067          	ret

00002564 <alt_avalon_i2c_int_clear>:

/*Clears the specified I2C controller interrupt status conditions identified
 * in the mask. */
void alt_avalon_i2c_int_clear(ALT_AVALON_I2C_DEV_t *i2c_dev, const alt_u32 mask)
{
    2564:	fd010113          	add	sp,sp,-48
    2568:	02812623          	sw	s0,44(sp)
    256c:	03010413          	add	s0,sp,48
    2570:	fca42e23          	sw	a0,-36(s0)
    2574:	fcb42c23          	sw	a1,-40(s0)
    IOWR_ALT_AVALON_I2C_ISR(i2c_dev->i2c_base,mask);
    2578:	fd842783          	lw	a5,-40(s0)
    257c:	fef42623          	sw	a5,-20(s0)
    2580:	fdc42783          	lw	a5,-36(s0)
    2584:	00c7a783          	lw	a5,12(a5)
    2588:	01078793          	add	a5,a5,16
    258c:	fec42703          	lw	a4,-20(s0)
    2590:	00e7a023          	sw	a4,0(a5)
}
    2594:	00000013          	nop
    2598:	02c12403          	lw	s0,44(sp)
    259c:	03010113          	add	sp,sp,48
    25a0:	00008067          	ret

000025a4 <alt_avalon_i2c_int_disable>:

/*Disable the specified I2C controller interrupt status conditions identified in
 * the mask. */
void alt_avalon_i2c_int_disable(ALT_AVALON_I2C_DEV_t *i2c_dev, const alt_u32 mask)
{
    25a4:	fd010113          	add	sp,sp,-48
    25a8:	02112623          	sw	ra,44(sp)
    25ac:	02812423          	sw	s0,40(sp)
    25b0:	03010413          	add	s0,sp,48
    25b4:	fca42e23          	sw	a0,-36(s0)
    25b8:	fcb42c23          	sw	a1,-40(s0)
    25bc:	0000b7b7          	lui	a5,0xb
    25c0:	7b87a703          	lw	a4,1976(a5) # b7b8 <__stack_chk_guard>
    25c4:	fee42623          	sw	a4,-20(s0)
    25c8:	00000713          	li	a4,0
   alt_u32 enabled_ints;
    
   alt_avalon_i2c_enabled_ints_get(i2c_dev,&enabled_ints);
    25cc:	fe440793          	add	a5,s0,-28
    25d0:	00078593          	mv	a1,a5
    25d4:	fdc42503          	lw	a0,-36(s0)
    25d8:	100000ef          	jal	26d8 <alt_avalon_i2c_enabled_ints_get>
   enabled_ints &=  (~mask);
    25dc:	fd842783          	lw	a5,-40(s0)
    25e0:	fff7c713          	not	a4,a5
    25e4:	fe442783          	lw	a5,-28(s0)
    25e8:	00f777b3          	and	a5,a4,a5
    25ec:	fef42223          	sw	a5,-28(s0)
   IOWR_ALT_AVALON_I2C_ISER(i2c_dev->i2c_base,ALT_AVALON_I2C_ISR_ALLINTS_MSK & enabled_ints);
    25f0:	fe442783          	lw	a5,-28(s0)
    25f4:	01f7f793          	and	a5,a5,31
    25f8:	fef42423          	sw	a5,-24(s0)
    25fc:	fdc42783          	lw	a5,-36(s0)
    2600:	00c7a783          	lw	a5,12(a5)
    2604:	00c78793          	add	a5,a5,12
    2608:	fe842703          	lw	a4,-24(s0)
    260c:	00e7a023          	sw	a4,0(a5)
}
    2610:	00000013          	nop
    2614:	0000b7b7          	lui	a5,0xb
    2618:	fec42703          	lw	a4,-20(s0)
    261c:	7b87a783          	lw	a5,1976(a5) # b7b8 <__stack_chk_guard>
    2620:	00f747b3          	xor	a5,a4,a5
    2624:	00000713          	li	a4,0
    2628:	00078463          	beqz	a5,2630 <alt_avalon_i2c_int_disable+0x8c>
    262c:	3c9020ef          	jal	51f4 <__stack_chk_fail>
    2630:	02c12083          	lw	ra,44(sp)
    2634:	02812403          	lw	s0,40(sp)
    2638:	03010113          	add	sp,sp,48
    263c:	00008067          	ret

00002640 <alt_avalon_i2c_int_enable>:

/*Enable the specified I2C controller interrupt status conditions identified in
 * the mask. */
void alt_avalon_i2c_int_enable(ALT_AVALON_I2C_DEV_t *i2c_dev, const alt_u32 mask)
{
    2640:	fd010113          	add	sp,sp,-48
    2644:	02112623          	sw	ra,44(sp)
    2648:	02812423          	sw	s0,40(sp)
    264c:	03010413          	add	s0,sp,48
    2650:	fca42e23          	sw	a0,-36(s0)
    2654:	fcb42c23          	sw	a1,-40(s0)
    2658:	0000b7b7          	lui	a5,0xb
    265c:	7b87a703          	lw	a4,1976(a5) # b7b8 <__stack_chk_guard>
    2660:	fee42623          	sw	a4,-20(s0)
    2664:	00000713          	li	a4,0
    alt_u32 enabled_ints;
    
    alt_avalon_i2c_enabled_ints_get(i2c_dev,&enabled_ints);
    2668:	fe440793          	add	a5,s0,-28
    266c:	00078593          	mv	a1,a5
    2670:	fdc42503          	lw	a0,-36(s0)
    2674:	064000ef          	jal	26d8 <alt_avalon_i2c_enabled_ints_get>
    enabled_ints |= mask;
    2678:	fe442703          	lw	a4,-28(s0)
    267c:	fd842783          	lw	a5,-40(s0)
    2680:	00f767b3          	or	a5,a4,a5
    2684:	fef42223          	sw	a5,-28(s0)
    IOWR_ALT_AVALON_I2C_ISER(i2c_dev->i2c_base,ALT_AVALON_I2C_ISR_ALLINTS_MSK & enabled_ints);
    2688:	fe442783          	lw	a5,-28(s0)
    268c:	01f7f793          	and	a5,a5,31
    2690:	fef42423          	sw	a5,-24(s0)
    2694:	fdc42783          	lw	a5,-36(s0)
    2698:	00c7a783          	lw	a5,12(a5)
    269c:	00c78793          	add	a5,a5,12
    26a0:	fe842703          	lw	a4,-24(s0)
    26a4:	00e7a023          	sw	a4,0(a5)
}
    26a8:	00000013          	nop
    26ac:	0000b7b7          	lui	a5,0xb
    26b0:	fec42703          	lw	a4,-20(s0)
    26b4:	7b87a783          	lw	a5,1976(a5) # b7b8 <__stack_chk_guard>
    26b8:	00f747b3          	xor	a5,a4,a5
    26bc:	00000713          	li	a4,0
    26c0:	00078463          	beqz	a5,26c8 <alt_avalon_i2c_int_enable+0x88>
    26c4:	331020ef          	jal	51f4 <__stack_chk_fail>
    26c8:	02c12083          	lw	ra,44(sp)
    26cc:	02812403          	lw	s0,40(sp)
    26d0:	03010113          	add	sp,sp,48
    26d4:	00008067          	ret

000026d8 <alt_avalon_i2c_enabled_ints_get>:

/*gets the enabled i2c interrupts. */
void alt_avalon_i2c_enabled_ints_get(ALT_AVALON_I2C_DEV_t *i2c_dev, alt_u32 * enabled_ints)
{
    26d8:	fd010113          	add	sp,sp,-48
    26dc:	02812623          	sw	s0,44(sp)
    26e0:	03010413          	add	s0,sp,48
    26e4:	fca42e23          	sw	a0,-36(s0)
    26e8:	fcb42c23          	sw	a1,-40(s0)
    *enabled_ints=IORD_ALT_AVALON_I2C_ISER(i2c_dev->i2c_base) & ALT_AVALON_I2C_ISR_ALLINTS_MSK;
    26ec:	fdc42783          	lw	a5,-36(s0)
    26f0:	00c7a783          	lw	a5,12(a5)
    26f4:	00c78793          	add	a5,a5,12
    26f8:	0007a783          	lw	a5,0(a5)
    26fc:	fef42623          	sw	a5,-20(s0)
    2700:	fec42783          	lw	a5,-20(s0)
    2704:	01f7f713          	and	a4,a5,31
    2708:	fd842783          	lw	a5,-40(s0)
    270c:	00e7a023          	sw	a4,0(a5)
}
    2710:	00000013          	nop
    2714:	02c12403          	lw	s0,44(sp)
    2718:	03010113          	add	sp,sp,48
    271c:	00008067          	ret

00002720 <alt_avalon_i2c_rx_fifo_threshold_get>:

/*Gets the current receive FIFO threshold level value. */
void alt_avalon_i2c_rx_fifo_threshold_get(ALT_AVALON_I2C_DEV_t *i2c_dev,
                                              ALT_AVALON_I2C_RX_DATA_FIFO_THRESHOLD_t *threshold)
{
    2720:	fd010113          	add	sp,sp,-48
    2724:	02812623          	sw	s0,44(sp)
    2728:	03010413          	add	s0,sp,48
    272c:	fca42e23          	sw	a0,-36(s0)
    2730:	fcb42c23          	sw	a1,-40(s0)
    *threshold = (IORD_ALT_AVALON_I2C_CTRL(i2c_dev->i2c_base) & ALT_AVALON_I2C_CTRL_RX_DATA_FIFO_THD_MSK) >>  ALT_AVALON_I2C_CTRL_RX_DATA_FIFO_THD_OFST;
    2734:	fdc42783          	lw	a5,-36(s0)
    2738:	00c7a783          	lw	a5,12(a5)
    273c:	00878793          	add	a5,a5,8
    2740:	0007a783          	lw	a5,0(a5)
    2744:	fef42623          	sw	a5,-20(s0)
    2748:	fec42783          	lw	a5,-20(s0)
    274c:	0047d793          	srl	a5,a5,0x4
    2750:	0037f713          	and	a4,a5,3
    2754:	fd842783          	lw	a5,-40(s0)
    2758:	00e7a023          	sw	a4,0(a5)
}
    275c:	00000013          	nop
    2760:	02c12403          	lw	s0,44(sp)
    2764:	03010113          	add	sp,sp,48
    2768:	00008067          	ret

0000276c <alt_avalon_i2c_rx_fifo_threshold_set>:

/*sets the current receive FIFO threshold level value. */
void alt_avalon_i2c_rx_fifo_threshold_set(ALT_AVALON_I2C_DEV_t *i2c_dev,
                                              const ALT_AVALON_I2C_RX_DATA_FIFO_THRESHOLD_t threshold)
{
    276c:	fd010113          	add	sp,sp,-48
    2770:	02812623          	sw	s0,44(sp)
    2774:	03010413          	add	s0,sp,48
    2778:	fca42e23          	sw	a0,-36(s0)
    277c:	fcb42c23          	sw	a1,-40(s0)
    IORMW_ALT_AVALON_I2C_CTRL(i2c_dev->i2c_base,threshold << ALT_AVALON_I2C_CTRL_RX_DATA_FIFO_THD_OFST,ALT_AVALON_I2C_CTRL_RX_DATA_FIFO_THD_MSK);
    2780:	fdc42783          	lw	a5,-36(s0)
    2784:	00c7a783          	lw	a5,12(a5)
    2788:	00878793          	add	a5,a5,8
    278c:	0007a783          	lw	a5,0(a5)
    2790:	fef42423          	sw	a5,-24(s0)
    2794:	fe842783          	lw	a5,-24(s0)
    2798:	fcf7f713          	and	a4,a5,-49
    279c:	fd842783          	lw	a5,-40(s0)
    27a0:	00479793          	sll	a5,a5,0x4
    27a4:	0307f793          	and	a5,a5,48
    27a8:	00f767b3          	or	a5,a4,a5
    27ac:	fef42623          	sw	a5,-20(s0)
    27b0:	fdc42783          	lw	a5,-36(s0)
    27b4:	00c7a783          	lw	a5,12(a5)
    27b8:	00878793          	add	a5,a5,8
    27bc:	fec42703          	lw	a4,-20(s0)
    27c0:	00e7a023          	sw	a4,0(a5)
}
    27c4:	00000013          	nop
    27c8:	02c12403          	lw	s0,44(sp)
    27cc:	03010113          	add	sp,sp,48
    27d0:	00008067          	ret

000027d4 <alt_avalon_i2c_tfr_cmd_fifo_threshold_get>:

/*Gets the current Transfer Command FIFO threshold level value.*/
void alt_avalon_i2c_tfr_cmd_fifo_threshold_get(ALT_AVALON_I2C_DEV_t *i2c_dev,
                                              ALT_AVALON_I2C_TFR_CMD_FIFO_THRESHOLD_t *threshold)
{
    27d4:	fd010113          	add	sp,sp,-48
    27d8:	02812623          	sw	s0,44(sp)
    27dc:	03010413          	add	s0,sp,48
    27e0:	fca42e23          	sw	a0,-36(s0)
    27e4:	fcb42c23          	sw	a1,-40(s0)
    *threshold = (IORD_ALT_AVALON_I2C_CTRL(i2c_dev->i2c_base) & ALT_AVALON_I2C_CTRL_TFR_CMD_FIFO_THD_MSK) >> ALT_AVALON_I2C_CTRL_TFR_CMD_FIFO_THD_OFST;
    27e8:	fdc42783          	lw	a5,-36(s0)
    27ec:	00c7a783          	lw	a5,12(a5)
    27f0:	00878793          	add	a5,a5,8
    27f4:	0007a783          	lw	a5,0(a5)
    27f8:	fef42623          	sw	a5,-20(s0)
    27fc:	fec42783          	lw	a5,-20(s0)
    2800:	0027d793          	srl	a5,a5,0x2
    2804:	0037f713          	and	a4,a5,3
    2808:	fd842783          	lw	a5,-40(s0)
    280c:	00e7a023          	sw	a4,0(a5)
}
    2810:	00000013          	nop
    2814:	02c12403          	lw	s0,44(sp)
    2818:	03010113          	add	sp,sp,48
    281c:	00008067          	ret

00002820 <alt_avalon_i2c_tfr_cmd_fifo_threshold_set>:

/*Sets the current Transfer Command FIFO threshold level value.*/
void alt_avalon_i2c_tfr_cmd_fifo_threshold_set(ALT_AVALON_I2C_DEV_t *i2c_dev,
                                              const ALT_AVALON_I2C_TFR_CMD_FIFO_THRESHOLD_t threshold)
{
    2820:	fd010113          	add	sp,sp,-48
    2824:	02812623          	sw	s0,44(sp)
    2828:	03010413          	add	s0,sp,48
    282c:	fca42e23          	sw	a0,-36(s0)
    2830:	fcb42c23          	sw	a1,-40(s0)
  IORMW_ALT_AVALON_I2C_CTRL(i2c_dev->i2c_base,threshold << ALT_AVALON_I2C_CTRL_TFR_CMD_FIFO_THD_OFST,ALT_AVALON_I2C_CTRL_TFR_CMD_FIFO_THD_MSK);
    2834:	fdc42783          	lw	a5,-36(s0)
    2838:	00c7a783          	lw	a5,12(a5)
    283c:	00878793          	add	a5,a5,8
    2840:	0007a783          	lw	a5,0(a5)
    2844:	fef42423          	sw	a5,-24(s0)
    2848:	fe842783          	lw	a5,-24(s0)
    284c:	ff37f713          	and	a4,a5,-13
    2850:	fd842783          	lw	a5,-40(s0)
    2854:	00279793          	sll	a5,a5,0x2
    2858:	00c7f793          	and	a5,a5,12
    285c:	00f767b3          	or	a5,a4,a5
    2860:	fef42623          	sw	a5,-20(s0)
    2864:	fdc42783          	lw	a5,-36(s0)
    2868:	00c7a783          	lw	a5,12(a5)
    286c:	00878793          	add	a5,a5,8
    2870:	fec42703          	lw	a4,-20(s0)
    2874:	00e7a023          	sw	a4,0(a5)
}
    2878:	00000013          	nop
    287c:	02c12403          	lw	s0,44(sp)
    2880:	03010113          	add	sp,sp,48
    2884:	00008067          	ret

00002888 <altera_avalon_jtag_uart_read_fd>:
 *
 */

int 
altera_avalon_jtag_uart_read_fd(alt_fd* fd, char* buffer, int space)
{
    2888:	fd010113          	add	sp,sp,-48
    288c:	02112623          	sw	ra,44(sp)
    2890:	02812423          	sw	s0,40(sp)
    2894:	03010413          	add	s0,sp,48
    2898:	fca42e23          	sw	a0,-36(s0)
    289c:	fcb42c23          	sw	a1,-40(s0)
    28a0:	fcc42a23          	sw	a2,-44(s0)
    altera_avalon_jtag_uart_dev* dev = (altera_avalon_jtag_uart_dev*) fd->dev; 
    28a4:	fdc42783          	lw	a5,-36(s0)
    28a8:	0007a783          	lw	a5,0(a5)
    28ac:	fef42623          	sw	a5,-20(s0)

    return altera_avalon_jtag_uart_read(&dev->state, buffer, space,
    28b0:	fec42783          	lw	a5,-20(s0)
    28b4:	02878713          	add	a4,a5,40
    28b8:	fdc42783          	lw	a5,-36(s0)
    28bc:	0087a783          	lw	a5,8(a5)
    28c0:	00078693          	mv	a3,a5
    28c4:	fd442603          	lw	a2,-44(s0)
    28c8:	fd842583          	lw	a1,-40(s0)
    28cc:	00070513          	mv	a0,a4
    28d0:	64c000ef          	jal	2f1c <altera_avalon_jtag_uart_read>
    28d4:	00050793          	mv	a5,a0
      fd->fd_flags);
}
    28d8:	00078513          	mv	a0,a5
    28dc:	02c12083          	lw	ra,44(sp)
    28e0:	02812403          	lw	s0,40(sp)
    28e4:	03010113          	add	sp,sp,48
    28e8:	00008067          	ret

000028ec <altera_avalon_jtag_uart_write_fd>:

int 
altera_avalon_jtag_uart_write_fd(alt_fd* fd, const char* buffer, int space)
{
    28ec:	fd010113          	add	sp,sp,-48
    28f0:	02112623          	sw	ra,44(sp)
    28f4:	02812423          	sw	s0,40(sp)
    28f8:	03010413          	add	s0,sp,48
    28fc:	fca42e23          	sw	a0,-36(s0)
    2900:	fcb42c23          	sw	a1,-40(s0)
    2904:	fcc42a23          	sw	a2,-44(s0)
    altera_avalon_jtag_uart_dev* dev = (altera_avalon_jtag_uart_dev*) fd->dev; 
    2908:	fdc42783          	lw	a5,-36(s0)
    290c:	0007a783          	lw	a5,0(a5)
    2910:	fef42623          	sw	a5,-20(s0)

    return altera_avalon_jtag_uart_write(&dev->state, buffer, space,
    2914:	fec42783          	lw	a5,-20(s0)
    2918:	02878713          	add	a4,a5,40
    291c:	fdc42783          	lw	a5,-36(s0)
    2920:	0087a783          	lw	a5,8(a5)
    2924:	00078693          	mv	a3,a5
    2928:	fd442603          	lw	a2,-44(s0)
    292c:	fd842583          	lw	a1,-40(s0)
    2930:	00070513          	mv	a0,a4
    2934:	015000ef          	jal	3148 <altera_avalon_jtag_uart_write>
    2938:	00050793          	mv	a5,a0
      fd->fd_flags);
}
    293c:	00078513          	mv	a0,a5
    2940:	02c12083          	lw	ra,44(sp)
    2944:	02812403          	lw	s0,40(sp)
    2948:	03010113          	add	sp,sp,48
    294c:	00008067          	ret

00002950 <altera_avalon_jtag_uart_close_fd>:

#ifndef ALTERA_AVALON_JTAG_UART_SMALL

int 
altera_avalon_jtag_uart_close_fd(alt_fd* fd)
{
    2950:	fd010113          	add	sp,sp,-48
    2954:	02112623          	sw	ra,44(sp)
    2958:	02812423          	sw	s0,40(sp)
    295c:	03010413          	add	s0,sp,48
    2960:	fca42e23          	sw	a0,-36(s0)
    altera_avalon_jtag_uart_dev* dev = (altera_avalon_jtag_uart_dev*) fd->dev; 
    2964:	fdc42783          	lw	a5,-36(s0)
    2968:	0007a783          	lw	a5,0(a5)
    296c:	fef42623          	sw	a5,-20(s0)

    return altera_avalon_jtag_uart_close(&dev->state, fd->fd_flags);
    2970:	fec42783          	lw	a5,-20(s0)
    2974:	02878713          	add	a4,a5,40
    2978:	fdc42783          	lw	a5,-36(s0)
    297c:	0087a783          	lw	a5,8(a5)
    2980:	00078593          	mv	a1,a5
    2984:	00070513          	mv	a0,a4
    2988:	428000ef          	jal	2db0 <altera_avalon_jtag_uart_close>
    298c:	00050793          	mv	a5,a0
}
    2990:	00078513          	mv	a0,a5
    2994:	02c12083          	lw	ra,44(sp)
    2998:	02812403          	lw	s0,40(sp)
    299c:	03010113          	add	sp,sp,48
    29a0:	00008067          	ret

000029a4 <altera_avalon_jtag_uart_ioctl_fd>:

int 
altera_avalon_jtag_uart_ioctl_fd(alt_fd* fd, int req, void* arg)
{
    29a4:	fd010113          	add	sp,sp,-48
    29a8:	02112623          	sw	ra,44(sp)
    29ac:	02812423          	sw	s0,40(sp)
    29b0:	03010413          	add	s0,sp,48
    29b4:	fca42e23          	sw	a0,-36(s0)
    29b8:	fcb42c23          	sw	a1,-40(s0)
    29bc:	fcc42a23          	sw	a2,-44(s0)
    altera_avalon_jtag_uart_dev* dev = (altera_avalon_jtag_uart_dev*) fd->dev;
    29c0:	fdc42783          	lw	a5,-36(s0)
    29c4:	0007a783          	lw	a5,0(a5)
    29c8:	fef42623          	sw	a5,-20(s0)

    return altera_avalon_jtag_uart_ioctl(&dev->state, req, arg);
    29cc:	fec42783          	lw	a5,-20(s0)
    29d0:	02878793          	add	a5,a5,40
    29d4:	fd442603          	lw	a2,-44(s0)
    29d8:	fd842583          	lw	a1,-40(s0)
    29dc:	00078513          	mv	a0,a5
    29e0:	43c000ef          	jal	2e1c <altera_avalon_jtag_uart_ioctl>
    29e4:	00050793          	mv	a5,a0
}
    29e8:	00078513          	mv	a0,a5
    29ec:	02c12083          	lw	ra,44(sp)
    29f0:	02812403          	lw	s0,40(sp)
    29f4:	03010113          	add	sp,sp,48
    29f8:	00008067          	ret

000029fc <altera_avalon_jtag_uart_init>:
 * Return 1 on sucessful IRQ register and 0 on failure.
 */

void altera_avalon_jtag_uart_init(altera_avalon_jtag_uart_state* sp, 
                                  int irq_controller_id, int irq)
{
    29fc:	fd010113          	add	sp,sp,-48
    2a00:	02112623          	sw	ra,44(sp)
    2a04:	02812423          	sw	s0,40(sp)
    2a08:	03010413          	add	s0,sp,48
    2a0c:	fca42e23          	sw	a0,-36(s0)
    2a10:	fcb42c23          	sw	a1,-40(s0)
    2a14:	fcc42a23          	sw	a2,-44(s0)
  ALT_FLAG_CREATE(&sp->events, 0);
  ALT_SEM_CREATE(&sp->read_lock, 1);
  ALT_SEM_CREATE(&sp->write_lock, 1);

  /* enable read interrupts at the device */
  sp->irq_enable = ALTERA_AVALON_JTAG_UART_CONTROL_RE_MSK;
    2a18:	fdc42783          	lw	a5,-36(s0)
    2a1c:	00100713          	li	a4,1
    2a20:	02e7a023          	sw	a4,32(a5)

  IOWR_ALTERA_AVALON_JTAG_UART_CONTROL(sp->base, sp->irq_enable); 
    2a24:	fdc42783          	lw	a5,-36(s0)
    2a28:	0207a783          	lw	a5,32(a5)
    2a2c:	fef42623          	sw	a5,-20(s0)
    2a30:	fdc42783          	lw	a5,-36(s0)
    2a34:	0007a783          	lw	a5,0(a5)
    2a38:	00478793          	add	a5,a5,4
    2a3c:	00078713          	mv	a4,a5
    2a40:	fec42783          	lw	a5,-20(s0)
    2a44:	00f72023          	sw	a5,0(a4)
  
  /* register the interrupt handler */
#ifdef ALT_ENHANCED_INTERRUPT_API_PRESENT
  alt_ic_isr_register(irq_controller_id, irq, altera_avalon_jtag_uart_irq, 
    2a48:	fd842503          	lw	a0,-40(s0)
    2a4c:	fd442583          	lw	a1,-44(s0)
    2a50:	00000713          	li	a4,0
    2a54:	fdc42683          	lw	a3,-36(s0)
    2a58:	000037b7          	lui	a5,0x3
    2a5c:	abc78613          	add	a2,a5,-1348 # 2abc <altera_avalon_jtag_uart_irq>
    2a60:	67d000ef          	jal	38dc <alt_ic_isr_register>
#else
  alt_irq_register(irq, sp, altera_avalon_jtag_uart_irq);
#endif  

  /* Register an alarm to go off every second to check for presence of host */
  sp->host_inactive = 0;
    2a64:	fdc42783          	lw	a5,-36(s0)
    2a68:	0207a223          	sw	zero,36(a5)

  if (alt_alarm_start(&sp->alarm, alt_ticks_per_second(), 
    2a6c:	fdc42783          	lw	a5,-36(s0)
    2a70:	00878713          	add	a4,a5,8
  return _alt_tick_rate;
    2a74:	0000b7b7          	lui	a5,0xb
    2a78:	7787a583          	lw	a1,1912(a5) # b778 <_alt_tick_rate>
    2a7c:	fdc42683          	lw	a3,-36(s0)
    2a80:	000037b7          	lui	a5,0x3
    2a84:	cf478613          	add	a2,a5,-780 # 2cf4 <altera_avalon_jtag_uart_timeout>
    2a88:	00070513          	mv	a0,a4
    2a8c:	0f9000ef          	jal	3384 <alt_alarm_start>
    2a90:	00050793          	mv	a5,a0
    2a94:	0007da63          	bgez	a5,2aa8 <altera_avalon_jtag_uart_init+0xac>
    &altera_avalon_jtag_uart_timeout, sp) < 0)
  {
    /* If we can't set the alarm then record "don't know if host present" 
     * and behave as though the host is present.
     */
    sp->timeout = INT_MAX;
    2a98:	fdc42783          	lw	a5,-36(s0)
    2a9c:	80000737          	lui	a4,0x80000
    2aa0:	fff70713          	add	a4,a4,-1 # 7fffffff <__alt_data_end+0x7ffdffff>
    2aa4:	00e7a223          	sw	a4,4(a5)
  }

  /* ALT_LOG - see altera_hal/HAL/inc/sys/alt_log_printf.h */ 
  ALT_LOG_JTAG_UART_ALARM_REGISTER(sp, sp->base);
}
    2aa8:	00000013          	nop
    2aac:	02c12083          	lw	ra,44(sp)
    2ab0:	02812403          	lw	s0,40(sp)
    2ab4:	03010113          	add	sp,sp,48
    2ab8:	00008067          	ret

00002abc <altera_avalon_jtag_uart_irq>:
#ifdef ALT_ENHANCED_INTERRUPT_API_PRESENT
static void altera_avalon_jtag_uart_irq(void* context)
#else
static void altera_avalon_jtag_uart_irq(void* context, alt_u32 id)
#endif
{
    2abc:	fa010113          	add	sp,sp,-96
    2ac0:	04812e23          	sw	s0,92(sp)
    2ac4:	06010413          	add	s0,sp,96
    2ac8:	faa42623          	sw	a0,-84(s0)
  altera_avalon_jtag_uart_state* sp = (altera_avalon_jtag_uart_state*) context;
    2acc:	fac42783          	lw	a5,-84(s0)
    2ad0:	fcf42223          	sw	a5,-60(s0)
  unsigned int base = sp->base;
    2ad4:	fc442783          	lw	a5,-60(s0)
    2ad8:	0007a783          	lw	a5,0(a5)
    2adc:	fcf42423          	sw	a5,-56(s0)
  unsigned int postflag=0;
    2ae0:	fa042c23          	sw	zero,-72(s0)
  /* ALT_LOG - see altera_hal/HAL/inc/sys/alt_log_printf.h */ 
  ALT_LOG_JTAG_UART_ISR_FUNCTION(base, sp);

  for ( ; ; )
  {
    unsigned int control = IORD_ALTERA_AVALON_JTAG_UART_CONTROL(base);
    2ae4:	fc842783          	lw	a5,-56(s0)
    2ae8:	00478793          	add	a5,a5,4
    2aec:	0007a783          	lw	a5,0(a5)
    2af0:	fcf42623          	sw	a5,-52(s0)
    2af4:	fcc42783          	lw	a5,-52(s0)
    2af8:	fcf42823          	sw	a5,-48(s0)

    /* Return once nothing more to do */
    if ((control & (ALTERA_AVALON_JTAG_UART_CONTROL_RI_MSK | ALTERA_AVALON_JTAG_UART_CONTROL_WI_MSK)) == 0)
    2afc:	fd042783          	lw	a5,-48(s0)
    2b00:	3007f793          	and	a5,a5,768
    2b04:	1c078e63          	beqz	a5,2ce0 <altera_avalon_jtag_uart_irq+0x224>
      break;

    if (control & ALTERA_AVALON_JTAG_UART_CONTROL_RI_MSK)
    2b08:	fd042783          	lw	a5,-48(s0)
    2b0c:	1007f793          	and	a5,a5,256
    2b10:	0e078663          	beqz	a5,2bfc <altera_avalon_jtag_uart_irq+0x140>
    {
      /* process a read irq.  Start by assuming that there is data in the
       * receive FIFO (otherwise why would we have been interrupted?)
       */
      unsigned int data = 1 << ALTERA_AVALON_JTAG_UART_DATA_RAVAIL_OFST;
    2b14:	000107b7          	lui	a5,0x10
    2b18:	faf42e23          	sw	a5,-68(s0)
      for ( ; ; )
      {
        /* Check whether there is space in the buffer.  If not then we must not
         * read any characters from the buffer as they will be lost.
         */
        unsigned int next = (sp->rx_in + 1) % ALTERA_AVALON_JTAG_UART_BUF_LEN;
    2b1c:	fc442783          	lw	a5,-60(s0)
    2b20:	0287a783          	lw	a5,40(a5) # 10028 <__alt_heap_start+0x44e8>
    2b24:	00178793          	add	a5,a5,1
    2b28:	7ff7f793          	and	a5,a5,2047
    2b2c:	fcf42a23          	sw	a5,-44(s0)
        if (next == sp->rx_out)
    2b30:	fc442783          	lw	a5,-60(s0)
    2b34:	02c7a783          	lw	a5,44(a5)
    2b38:	fd442703          	lw	a4,-44(s0)
    2b3c:	06f70263          	beq	a4,a5,2ba0 <altera_avalon_jtag_uart_irq+0xe4>
          break;

        /* Try to remove a character from the FIFO and find out whether there
         * are any more characters remaining.
         */
        data = IORD_ALTERA_AVALON_JTAG_UART_DATA(base);
    2b40:	fc842783          	lw	a5,-56(s0)
    2b44:	0007a783          	lw	a5,0(a5)
    2b48:	fcf42c23          	sw	a5,-40(s0)
    2b4c:	fd842783          	lw	a5,-40(s0)
    2b50:	faf42e23          	sw	a5,-68(s0)
        
        if ((data & ALTERA_AVALON_JTAG_UART_DATA_RVALID_MSK) == 0)
    2b54:	fbc42703          	lw	a4,-68(s0)
    2b58:	000087b7          	lui	a5,0x8
    2b5c:	00f777b3          	and	a5,a4,a5
    2b60:	04078463          	beqz	a5,2ba8 <altera_avalon_jtag_uart_irq+0xec>
          break;

        sp->rx_buf[sp->rx_in] = (data & ALTERA_AVALON_JTAG_UART_DATA_DATA_MSK) >> ALTERA_AVALON_JTAG_UART_DATA_DATA_OFST;
    2b64:	fc442783          	lw	a5,-60(s0)
    2b68:	0287a783          	lw	a5,40(a5) # 8028 <alt_file_locked+0x80>
    2b6c:	fbc42703          	lw	a4,-68(s0)
    2b70:	0ff77713          	zext.b	a4,a4
    2b74:	fc442683          	lw	a3,-60(s0)
    2b78:	00f687b3          	add	a5,a3,a5
    2b7c:	02e78c23          	sb	a4,56(a5)
        sp->rx_in = (sp->rx_in + 1) % ALTERA_AVALON_JTAG_UART_BUF_LEN;
    2b80:	fc442783          	lw	a5,-60(s0)
    2b84:	0287a783          	lw	a5,40(a5)
    2b88:	00178793          	add	a5,a5,1
    2b8c:	7ff7f713          	and	a4,a5,2047
    2b90:	fc442783          	lw	a5,-60(s0)
    2b94:	02e7a423          	sw	a4,40(a5)
    2b98:	00000013          	nop
      {
    2b9c:	f81ff06f          	j	2b1c <altera_avalon_jtag_uart_irq+0x60>
          break;
    2ba0:	00000013          	nop
    2ba4:	0080006f          	j	2bac <altera_avalon_jtag_uart_irq+0xf0>
          break;
    2ba8:	00000013          	nop

        /* Post an event to notify jtag_uart_read that a character has been read */
        ALT_FLAG_POST (sp->events, ALT_JTAG_UART_READ_RDY, ALT_FLAG_SET);
      }

      if (data & ALTERA_AVALON_JTAG_UART_DATA_RAVAIL_MSK)
    2bac:	fbc42703          	lw	a4,-68(s0)
    2bb0:	000107b7          	lui	a5,0x10
    2bb4:	04f76463          	bltu	a4,a5,2bfc <altera_avalon_jtag_uart_irq+0x140>
      {
        /* If there is still data available here then the buffer is full 
         * so turn off receive interrupts until some space becomes available.
         */
        sp->irq_enable &= ~ALTERA_AVALON_JTAG_UART_CONTROL_RE_MSK;
    2bb8:	fc442783          	lw	a5,-60(s0)
    2bbc:	0207a783          	lw	a5,32(a5) # 10020 <__alt_heap_start+0x44e0>
    2bc0:	ffe7f713          	and	a4,a5,-2
    2bc4:	fc442783          	lw	a5,-60(s0)
    2bc8:	02e7a023          	sw	a4,32(a5)
        IOWR_ALTERA_AVALON_JTAG_UART_CONTROL(base, sp->irq_enable);
    2bcc:	fc442783          	lw	a5,-60(s0)
    2bd0:	0207a783          	lw	a5,32(a5)
    2bd4:	fcf42e23          	sw	a5,-36(s0)
    2bd8:	fc842783          	lw	a5,-56(s0)
    2bdc:	00478793          	add	a5,a5,4
    2be0:	00078713          	mv	a4,a5
    2be4:	fdc42783          	lw	a5,-36(s0)
    2be8:	00f72023          	sw	a5,0(a4)
        
        /* Dummy read to ensure IRQ is cleared prior to ISR completion */
        IORD_ALTERA_AVALON_JTAG_UART_CONTROL(base);
    2bec:	fc842783          	lw	a5,-56(s0)
    2bf0:	00478793          	add	a5,a5,4
    2bf4:	0007a783          	lw	a5,0(a5)
    2bf8:	fef42023          	sw	a5,-32(s0)
      }
    }

    if (control & ALTERA_AVALON_JTAG_UART_CONTROL_WI_MSK)
    2bfc:	fd042783          	lw	a5,-48(s0)
    2c00:	2007f793          	and	a5,a5,512
    2c04:	ee0780e3          	beqz	a5,2ae4 <altera_avalon_jtag_uart_irq+0x28>
    {
      /* process a write irq */
      unsigned int space = (control & ALTERA_AVALON_JTAG_UART_CONTROL_WSPACE_MSK) >> ALTERA_AVALON_JTAG_UART_CONTROL_WSPACE_OFST;
    2c08:	fd042783          	lw	a5,-48(s0)
    2c0c:	0107d793          	srl	a5,a5,0x10
    2c10:	fcf42023          	sw	a5,-64(s0)

      while (space > 0 && sp->tx_out != sp->tx_in)
    2c14:	05c0006f          	j	2c70 <altera_avalon_jtag_uart_irq+0x1b4>
      {
        IOWR_ALTERA_AVALON_JTAG_UART_DATA(base, sp->tx_buf[sp->tx_out]);
    2c18:	fc442783          	lw	a5,-60(s0)
    2c1c:	0347a783          	lw	a5,52(a5)
    2c20:	fc442703          	lw	a4,-60(s0)
    2c24:	00f707b3          	add	a5,a4,a5
    2c28:	00001737          	lui	a4,0x1
    2c2c:	00f707b3          	add	a5,a4,a5
    2c30:	8387c783          	lbu	a5,-1992(a5)
    2c34:	fef42223          	sw	a5,-28(s0)
    2c38:	fc842783          	lw	a5,-56(s0)
    2c3c:	fe442703          	lw	a4,-28(s0)
    2c40:	00e7a023          	sw	a4,0(a5)

        sp->tx_out = (sp->tx_out + 1) % ALTERA_AVALON_JTAG_UART_BUF_LEN;
    2c44:	fc442783          	lw	a5,-60(s0)
    2c48:	0347a783          	lw	a5,52(a5)
    2c4c:	00178793          	add	a5,a5,1
    2c50:	7ff7f713          	and	a4,a5,2047
    2c54:	fc442783          	lw	a5,-60(s0)
    2c58:	02e7aa23          	sw	a4,52(a5)
        
        /* indicate that the ALT_FLAG_POST routine must be called */
        postflag=1;
    2c5c:	00100793          	li	a5,1
    2c60:	faf42c23          	sw	a5,-72(s0)

        space--;
    2c64:	fc042783          	lw	a5,-64(s0)
    2c68:	fff78793          	add	a5,a5,-1
    2c6c:	fcf42023          	sw	a5,-64(s0)
      while (space > 0 && sp->tx_out != sp->tx_in)
    2c70:	fc042783          	lw	a5,-64(s0)
    2c74:	00078c63          	beqz	a5,2c8c <altera_avalon_jtag_uart_irq+0x1d0>
    2c78:	fc442783          	lw	a5,-60(s0)
    2c7c:	0347a703          	lw	a4,52(a5)
    2c80:	fc442783          	lw	a5,-60(s0)
    2c84:	0307a783          	lw	a5,48(a5)
    2c88:	f8f718e3          	bne	a4,a5,2c18 <altera_avalon_jtag_uart_irq+0x15c>
      {
        /* Post an event to notify jtag_uart_write that a character has been written */
        ALT_FLAG_POST (sp->events, ALT_JTAG_UART_WRITE_RDY, ALT_FLAG_SET);
      }

      if (space > 0)
    2c8c:	fc042783          	lw	a5,-64(s0)
    2c90:	e4078ae3          	beqz	a5,2ae4 <altera_avalon_jtag_uart_irq+0x28>
      {
        /* If we don't have any more data available then turn off the TX interrupt */
        sp->irq_enable &= ~ALTERA_AVALON_JTAG_UART_CONTROL_WE_MSK;
    2c94:	fc442783          	lw	a5,-60(s0)
    2c98:	0207a783          	lw	a5,32(a5)
    2c9c:	ffd7f713          	and	a4,a5,-3
    2ca0:	fc442783          	lw	a5,-60(s0)
    2ca4:	02e7a023          	sw	a4,32(a5)
        IOWR_ALTERA_AVALON_JTAG_UART_CONTROL(sp->base, sp->irq_enable);
    2ca8:	fc442783          	lw	a5,-60(s0)
    2cac:	0207a783          	lw	a5,32(a5)
    2cb0:	fef42423          	sw	a5,-24(s0)
    2cb4:	fc442783          	lw	a5,-60(s0)
    2cb8:	0007a783          	lw	a5,0(a5)
    2cbc:	00478793          	add	a5,a5,4
    2cc0:	00078713          	mv	a4,a5
    2cc4:	fe842783          	lw	a5,-24(s0)
    2cc8:	00f72023          	sw	a5,0(a4) # 1000 <alt_avalon_i2c_master_config_speed_get+0x24>
        
        /* Dummy read to ensure IRQ is cleared prior to ISR completion */
        IORD_ALTERA_AVALON_JTAG_UART_CONTROL(base);
    2ccc:	fc842783          	lw	a5,-56(s0)
    2cd0:	00478793          	add	a5,a5,4
    2cd4:	0007a783          	lw	a5,0(a5)
    2cd8:	fef42623          	sw	a5,-20(s0)
  {
    2cdc:	e09ff06f          	j	2ae4 <altera_avalon_jtag_uart_irq+0x28>
      break;
    2ce0:	00000013          	nop
      }
    }
  }
}
    2ce4:	00000013          	nop
    2ce8:	05c12403          	lw	s0,92(sp)
    2cec:	06010113          	add	sp,sp,96
    2cf0:	00008067          	ret

00002cf4 <altera_avalon_jtag_uart_timeout>:
 * Timeout routine is called every second
 */

static alt_u32 
altera_avalon_jtag_uart_timeout(void* context) 
{
    2cf4:	fd010113          	add	sp,sp,-48
    2cf8:	02812623          	sw	s0,44(sp)
    2cfc:	03010413          	add	s0,sp,48
    2d00:	fca42e23          	sw	a0,-36(s0)
  altera_avalon_jtag_uart_state* sp = (altera_avalon_jtag_uart_state *) context;
    2d04:	fdc42783          	lw	a5,-36(s0)
    2d08:	fef42023          	sw	a5,-32(s0)

  unsigned int control = IORD_ALTERA_AVALON_JTAG_UART_CONTROL(sp->base);
    2d0c:	fe042783          	lw	a5,-32(s0)
    2d10:	0007a783          	lw	a5,0(a5)
    2d14:	00478793          	add	a5,a5,4
    2d18:	0007a783          	lw	a5,0(a5)
    2d1c:	fef42223          	sw	a5,-28(s0)
    2d20:	fe442783          	lw	a5,-28(s0)
    2d24:	fef42423          	sw	a5,-24(s0)

  if (control & ALTERA_AVALON_JTAG_UART_CONTROL_AC_MSK)
    2d28:	fe842783          	lw	a5,-24(s0)
    2d2c:	4007f793          	and	a5,a5,1024
    2d30:	02078c63          	beqz	a5,2d68 <altera_avalon_jtag_uart_timeout+0x74>
  {
    IOWR_ALTERA_AVALON_JTAG_UART_CONTROL(sp->base, sp->irq_enable | ALTERA_AVALON_JTAG_UART_CONTROL_AC_MSK);
    2d34:	fe042783          	lw	a5,-32(s0)
    2d38:	0207a783          	lw	a5,32(a5)
    2d3c:	4007e793          	or	a5,a5,1024
    2d40:	fef42623          	sw	a5,-20(s0)
    2d44:	fe042783          	lw	a5,-32(s0)
    2d48:	0007a783          	lw	a5,0(a5)
    2d4c:	00478793          	add	a5,a5,4
    2d50:	00078713          	mv	a4,a5
    2d54:	fec42783          	lw	a5,-20(s0)
    2d58:	00f72023          	sw	a5,0(a4)
    sp->host_inactive = 0;
    2d5c:	fe042783          	lw	a5,-32(s0)
    2d60:	0207a223          	sw	zero,36(a5)
    2d64:	0340006f          	j	2d98 <altera_avalon_jtag_uart_timeout+0xa4>
  }
  else if (sp->host_inactive < INT_MAX - 2) {
    2d68:	fe042783          	lw	a5,-32(s0)
    2d6c:	0247a703          	lw	a4,36(a5)
    2d70:	800007b7          	lui	a5,0x80000
    2d74:	ffc78793          	add	a5,a5,-4 # 7ffffffc <__alt_data_end+0x7ffdfffc>
    2d78:	02e7e063          	bltu	a5,a4,2d98 <altera_avalon_jtag_uart_timeout+0xa4>
    sp->host_inactive++;
    2d7c:	fe042783          	lw	a5,-32(s0)
    2d80:	0247a783          	lw	a5,36(a5)
    2d84:	00178713          	add	a4,a5,1
    2d88:	fe042783          	lw	a5,-32(s0)
    2d8c:	02e7a223          	sw	a4,36(a5)
    
    if (sp->host_inactive >= sp->timeout) {
    2d90:	fe042783          	lw	a5,-32(s0)
    2d94:	0247a783          	lw	a5,36(a5)
    2d98:	0000b7b7          	lui	a5,0xb
    2d9c:	7787a783          	lw	a5,1912(a5) # b778 <_alt_tick_rate>
      ALT_FLAG_POST (sp->events, ALT_JTAG_UART_TIMEOUT, ALT_FLAG_SET);
    }
  }

  return alt_ticks_per_second();
}
    2da0:	00078513          	mv	a0,a5
    2da4:	02c12403          	lw	s0,44(sp)
    2da8:	03010113          	add	sp,sp,48
    2dac:	00008067          	ret

00002db0 <altera_avalon_jtag_uart_close>:
 * The close routine is not implemented for the small driver; instead it will
 * map to null. This is because the small driver simply waits while characters
 * are transmitted; there is no interrupt-serviced buffer to empty 
 */
int altera_avalon_jtag_uart_close(altera_avalon_jtag_uart_state* sp, int flags)
{
    2db0:	fe010113          	add	sp,sp,-32
    2db4:	00812e23          	sw	s0,28(sp)
    2db8:	02010413          	add	s0,sp,32
    2dbc:	fea42623          	sw	a0,-20(s0)
    2dc0:	feb42423          	sw	a1,-24(s0)
  /* 
   * Wait for all transmit data to be emptied by the JTAG UART ISR, or
   * for a host-inactivity timeout, in which case transmit data will be lost
   */
  while ( (sp->tx_out != sp->tx_in) && (sp->host_inactive < sp->timeout) ) {
    2dc4:	01c0006f          	j	2de0 <altera_avalon_jtag_uart_close+0x30>
    if (flags & O_NONBLOCK) {
    2dc8:	fe842703          	lw	a4,-24(s0)
    2dcc:	000047b7          	lui	a5,0x4
    2dd0:	00f777b3          	and	a5,a4,a5
    2dd4:	00078663          	beqz	a5,2de0 <altera_avalon_jtag_uart_close+0x30>
      return -EWOULDBLOCK; 
    2dd8:	ff500793          	li	a5,-11
    2ddc:	0300006f          	j	2e0c <altera_avalon_jtag_uart_close+0x5c>
  while ( (sp->tx_out != sp->tx_in) && (sp->host_inactive < sp->timeout) ) {
    2de0:	fec42783          	lw	a5,-20(s0)
    2de4:	0347a703          	lw	a4,52(a5) # 4034 <alt_tick+0x10>
    2de8:	fec42783          	lw	a5,-20(s0)
    2dec:	0307a783          	lw	a5,48(a5)
    2df0:	00f70c63          	beq	a4,a5,2e08 <altera_avalon_jtag_uart_close+0x58>
    2df4:	fec42783          	lw	a5,-20(s0)
    2df8:	0247a703          	lw	a4,36(a5)
    2dfc:	fec42783          	lw	a5,-20(s0)
    2e00:	0047a783          	lw	a5,4(a5)
    2e04:	fcf762e3          	bltu	a4,a5,2dc8 <altera_avalon_jtag_uart_close+0x18>
    }
  }

  return 0;
    2e08:	00000793          	li	a5,0
}
    2e0c:	00078513          	mv	a0,a5
    2e10:	01c12403          	lw	s0,28(sp)
    2e14:	02010113          	add	sp,sp,32
    2e18:	00008067          	ret

00002e1c <altera_avalon_jtag_uart_ioctl>:
/* ----------------------------------------------------------- */

int 
altera_avalon_jtag_uart_ioctl(altera_avalon_jtag_uart_state* sp, int req,
  void* arg)
{
    2e1c:	fd010113          	add	sp,sp,-48
    2e20:	02812623          	sw	s0,44(sp)
    2e24:	03010413          	add	s0,sp,48
    2e28:	fca42e23          	sw	a0,-36(s0)
    2e2c:	fcb42c23          	sw	a1,-40(s0)
    2e30:	fcc42a23          	sw	a2,-44(s0)
  int rc = -ENOTTY;
    2e34:	fe700793          	li	a5,-25
    2e38:	fef42423          	sw	a5,-24(s0)

  switch (req)
    2e3c:	fd842703          	lw	a4,-40(s0)
    2e40:	000077b7          	lui	a5,0x7
    2e44:	a0178793          	add	a5,a5,-1535 # 6a01 <__smakebuf_r+0x1d>
    2e48:	00f70c63          	beq	a4,a5,2e60 <altera_avalon_jtag_uart_ioctl+0x44>
    2e4c:	fd842703          	lw	a4,-40(s0)
    2e50:	000077b7          	lui	a5,0x7
    2e54:	a0278793          	add	a5,a5,-1534 # 6a02 <__smakebuf_r+0x1e>
    2e58:	06f70263          	beq	a4,a5,2ebc <altera_avalon_jtag_uart_ioctl+0xa0>
      rc = 0;
    }
    break;

  default:
    break;
    2e5c:	0ac0006f          	j	2f08 <altera_avalon_jtag_uart_ioctl+0xec>
    if (sp->timeout != INT_MAX)
    2e60:	fdc42783          	lw	a5,-36(s0)
    2e64:	0047a703          	lw	a4,4(a5)
    2e68:	800007b7          	lui	a5,0x80000
    2e6c:	fff78793          	add	a5,a5,-1 # 7fffffff <__alt_data_end+0x7ffdffff>
    2e70:	08f70663          	beq	a4,a5,2efc <altera_avalon_jtag_uart_ioctl+0xe0>
      int timeout = *((int *)arg);
    2e74:	fd442783          	lw	a5,-44(s0)
    2e78:	0007a783          	lw	a5,0(a5)
    2e7c:	fef42623          	sw	a5,-20(s0)
      sp->timeout = (timeout >= 2 && timeout < INT_MAX) ? timeout : INT_MAX - 1;
    2e80:	fec42703          	lw	a4,-20(s0)
    2e84:	00100793          	li	a5,1
    2e88:	00e7de63          	bge	a5,a4,2ea4 <altera_avalon_jtag_uart_ioctl+0x88>
    2e8c:	fec42703          	lw	a4,-20(s0)
    2e90:	800007b7          	lui	a5,0x80000
    2e94:	fff78793          	add	a5,a5,-1 # 7fffffff <__alt_data_end+0x7ffdffff>
    2e98:	00f70663          	beq	a4,a5,2ea4 <altera_avalon_jtag_uart_ioctl+0x88>
    2e9c:	fec42783          	lw	a5,-20(s0)
    2ea0:	00c0006f          	j	2eac <altera_avalon_jtag_uart_ioctl+0x90>
    2ea4:	800007b7          	lui	a5,0x80000
    2ea8:	ffe78793          	add	a5,a5,-2 # 7ffffffe <__alt_data_end+0x7ffdfffe>
    2eac:	fdc42703          	lw	a4,-36(s0)
    2eb0:	00f72223          	sw	a5,4(a4)
      rc = 0;
    2eb4:	fe042423          	sw	zero,-24(s0)
    break;
    2eb8:	0440006f          	j	2efc <altera_avalon_jtag_uart_ioctl+0xe0>
    if (sp->timeout != INT_MAX)
    2ebc:	fdc42783          	lw	a5,-36(s0)
    2ec0:	0047a703          	lw	a4,4(a5)
    2ec4:	800007b7          	lui	a5,0x80000
    2ec8:	fff78793          	add	a5,a5,-1 # 7fffffff <__alt_data_end+0x7ffdffff>
    2ecc:	02f70c63          	beq	a4,a5,2f04 <altera_avalon_jtag_uart_ioctl+0xe8>
      *((int *)arg) = (sp->host_inactive < sp->timeout) ? 1 : 0;
    2ed0:	fdc42783          	lw	a5,-36(s0)
    2ed4:	0247a703          	lw	a4,36(a5)
    2ed8:	fdc42783          	lw	a5,-36(s0)
    2edc:	0047a783          	lw	a5,4(a5)
    2ee0:	00f737b3          	sltu	a5,a4,a5
    2ee4:	0ff7f793          	zext.b	a5,a5
    2ee8:	00078713          	mv	a4,a5
    2eec:	fd442783          	lw	a5,-44(s0)
    2ef0:	00e7a023          	sw	a4,0(a5)
      rc = 0;
    2ef4:	fe042423          	sw	zero,-24(s0)
    break;
    2ef8:	00c0006f          	j	2f04 <altera_avalon_jtag_uart_ioctl+0xe8>
    break;
    2efc:	00000013          	nop
    2f00:	0080006f          	j	2f08 <altera_avalon_jtag_uart_ioctl+0xec>
    break;
    2f04:	00000013          	nop
  }

  return rc;
    2f08:	fe842783          	lw	a5,-24(s0)
}
    2f0c:	00078513          	mv	a0,a5
    2f10:	02c12403          	lw	s0,44(sp)
    2f14:	03010113          	add	sp,sp,48
    2f18:	00008067          	ret

00002f1c <altera_avalon_jtag_uart_read>:
/* ----------------------------------------------------------- */

int 
altera_avalon_jtag_uart_read(altera_avalon_jtag_uart_state* sp, 
  char * buffer, int space, int flags)
{
    2f1c:	fc010113          	add	sp,sp,-64
    2f20:	02112e23          	sw	ra,60(sp)
    2f24:	02812c23          	sw	s0,56(sp)
    2f28:	04010413          	add	s0,sp,64
    2f2c:	fca42623          	sw	a0,-52(s0)
    2f30:	fcb42423          	sw	a1,-56(s0)
    2f34:	fcc42223          	sw	a2,-60(s0)
    2f38:	fcd42023          	sw	a3,-64(s0)
  char * ptr = buffer;
    2f3c:	fc842783          	lw	a5,-56(s0)
    2f40:	fcf42823          	sw	a5,-48(s0)
   * When running in a multi threaded environment, obtain the "read_lock"
   * semaphore. This ensures that reading from the device is thread-safe.
   */
  ALT_SEM_PEND (sp->read_lock, 0);

  while (space > 0)
    2f44:	1280006f          	j	306c <altera_avalon_jtag_uart_read+0x150>
    unsigned int in, out;

    /* Read as much data as possible */
    do
    {
      in  = sp->rx_in;
    2f48:	fcc42783          	lw	a5,-52(s0)
    2f4c:	0287a783          	lw	a5,40(a5)
    2f50:	fcf42c23          	sw	a5,-40(s0)
      out = sp->rx_out;
    2f54:	fcc42783          	lw	a5,-52(s0)
    2f58:	02c7a783          	lw	a5,44(a5)
    2f5c:	fcf42e23          	sw	a5,-36(s0)

      if (in >= out)
    2f60:	fd842703          	lw	a4,-40(s0)
    2f64:	fdc42783          	lw	a5,-36(s0)
    2f68:	00f76c63          	bltu	a4,a5,2f80 <altera_avalon_jtag_uart_read+0x64>
        n = in - out;
    2f6c:	fd842703          	lw	a4,-40(s0)
    2f70:	fdc42783          	lw	a5,-36(s0)
    2f74:	40f707b3          	sub	a5,a4,a5
    2f78:	fcf42a23          	sw	a5,-44(s0)
    2f7c:	0180006f          	j	2f94 <altera_avalon_jtag_uart_read+0x78>
      else
        n = ALTERA_AVALON_JTAG_UART_BUF_LEN - out;
    2f80:	000017b7          	lui	a5,0x1
    2f84:	80078713          	add	a4,a5,-2048 # 800 <alt_main+0x20>
    2f88:	fdc42783          	lw	a5,-36(s0)
    2f8c:	40f707b3          	sub	a5,a4,a5
    2f90:	fcf42a23          	sw	a5,-44(s0)

      if (n == 0)
    2f94:	fd442783          	lw	a5,-44(s0)
    2f98:	06078e63          	beqz	a5,3014 <altera_avalon_jtag_uart_read+0xf8>
        break; /* No more data available */

      if (n > space)
    2f9c:	fc442783          	lw	a5,-60(s0)
    2fa0:	fd442703          	lw	a4,-44(s0)
    2fa4:	00e7f663          	bgeu	a5,a4,2fb0 <altera_avalon_jtag_uart_read+0x94>
        n = space;
    2fa8:	fc442783          	lw	a5,-60(s0)
    2fac:	fcf42a23          	sw	a5,-44(s0)

      memcpy(ptr, sp->rx_buf + out, n);
    2fb0:	fcc42783          	lw	a5,-52(s0)
    2fb4:	03878713          	add	a4,a5,56
    2fb8:	fdc42783          	lw	a5,-36(s0)
    2fbc:	00f707b3          	add	a5,a4,a5
    2fc0:	fd442603          	lw	a2,-44(s0)
    2fc4:	00078593          	mv	a1,a5
    2fc8:	fd042503          	lw	a0,-48(s0)
    2fcc:	3c4020ef          	jal	5390 <memcpy>
      ptr   += n;
    2fd0:	fd042703          	lw	a4,-48(s0)
    2fd4:	fd442783          	lw	a5,-44(s0)
    2fd8:	00f707b3          	add	a5,a4,a5
    2fdc:	fcf42823          	sw	a5,-48(s0)
      space -= n;
    2fe0:	fc442703          	lw	a4,-60(s0)
    2fe4:	fd442783          	lw	a5,-44(s0)
    2fe8:	40f707b3          	sub	a5,a4,a5
    2fec:	fcf42223          	sw	a5,-60(s0)

      sp->rx_out = (out + n) % ALTERA_AVALON_JTAG_UART_BUF_LEN;
    2ff0:	fdc42703          	lw	a4,-36(s0)
    2ff4:	fd442783          	lw	a5,-44(s0)
    2ff8:	00f707b3          	add	a5,a4,a5
    2ffc:	7ff7f713          	and	a4,a5,2047
    3000:	fcc42783          	lw	a5,-52(s0)
    3004:	02e7a623          	sw	a4,44(a5)
    }
    while (space > 0);
    3008:	fc442783          	lw	a5,-60(s0)
    300c:	f2f04ee3          	bgtz	a5,2f48 <altera_avalon_jtag_uart_read+0x2c>
    3010:	0080006f          	j	3018 <altera_avalon_jtag_uart_read+0xfc>
        break; /* No more data available */
    3014:	00000013          	nop

    /* If we read any data then return it */
    if (ptr != buffer)
    3018:	fd042703          	lw	a4,-48(s0)
    301c:	fc842783          	lw	a5,-56(s0)
    3020:	04f71c63          	bne	a4,a5,3078 <altera_avalon_jtag_uart_read+0x15c>
      break;

    /* If in non-blocking mode then return error */
    if (flags & O_NONBLOCK)
    3024:	fc042703          	lw	a4,-64(s0)
    3028:	000047b7          	lui	a5,0x4
    302c:	00f777b3          	and	a5,a4,a5
    3030:	04079863          	bnez	a5,3080 <altera_avalon_jtag_uart_read+0x164>
      while (in == sp->rx_in && sp->host_inactive < sp->timeout)
        ;
    }
#else
    /* No OS: Always spin */
    while (in == sp->rx_in && sp->host_inactive < sp->timeout)
    3034:	00000013          	nop
    3038:	fcc42783          	lw	a5,-52(s0)
    303c:	0287a783          	lw	a5,40(a5) # 4028 <alt_tick+0x4>
    3040:	fd842703          	lw	a4,-40(s0)
    3044:	00f71c63          	bne	a4,a5,305c <altera_avalon_jtag_uart_read+0x140>
    3048:	fcc42783          	lw	a5,-52(s0)
    304c:	0247a703          	lw	a4,36(a5)
    3050:	fcc42783          	lw	a5,-52(s0)
    3054:	0047a783          	lw	a5,4(a5)
    3058:	fef760e3          	bltu	a4,a5,3038 <altera_avalon_jtag_uart_read+0x11c>
      ;
#endif /* __ucosii__ */

    if (in == sp->rx_in)
    305c:	fcc42783          	lw	a5,-52(s0)
    3060:	0287a783          	lw	a5,40(a5)
    3064:	fd842703          	lw	a4,-40(s0)
    3068:	02f70063          	beq	a4,a5,3088 <altera_avalon_jtag_uart_read+0x16c>
  while (space > 0)
    306c:	fc442783          	lw	a5,-60(s0)
    3070:	ecf04ce3          	bgtz	a5,2f48 <altera_avalon_jtag_uart_read+0x2c>
    3074:	0180006f          	j	308c <altera_avalon_jtag_uart_read+0x170>
      break;
    3078:	00000013          	nop
    307c:	0100006f          	j	308c <altera_avalon_jtag_uart_read+0x170>
      break;
    3080:	00000013          	nop
    3084:	0080006f          	j	308c <altera_avalon_jtag_uart_read+0x170>
      break;
    3088:	00000013          	nop
   * semaphore so that other threads can access the buffer.
   */

  ALT_SEM_POST (sp->read_lock);

  if (ptr != buffer)
    308c:	fd042703          	lw	a4,-48(s0)
    3090:	fc842783          	lw	a5,-56(s0)
    3094:	06f70463          	beq	a4,a5,30fc <altera_avalon_jtag_uart_read+0x1e0>
    NIOSV_READ_AND_CLR_CSR(NIOSV_MSTATUS_CSR, context, NIOSV_MSTATUS_MIE_MASK);
    3098:	00800793          	li	a5,8
    309c:	3007b7f3          	csrrc	a5,mstatus,a5
    30a0:	fef42623          	sw	a5,-20(s0)
    return context;
    30a4:	fec42783          	lw	a5,-20(s0)
  {
    /* If we read any data then there is space in the buffer so enable interrupts */
    context = alt_irq_disable_all();
    30a8:	fef42023          	sw	a5,-32(s0)
    sp->irq_enable |= ALTERA_AVALON_JTAG_UART_CONTROL_RE_MSK;
    30ac:	fcc42783          	lw	a5,-52(s0)
    30b0:	0207a783          	lw	a5,32(a5)
    30b4:	0017e713          	or	a4,a5,1
    30b8:	fcc42783          	lw	a5,-52(s0)
    30bc:	02e7a023          	sw	a4,32(a5)
    IOWR_ALTERA_AVALON_JTAG_UART_CONTROL(sp->base, sp->irq_enable);
    30c0:	fcc42783          	lw	a5,-52(s0)
    30c4:	0207a783          	lw	a5,32(a5)
    30c8:	fef42223          	sw	a5,-28(s0)
    30cc:	fcc42783          	lw	a5,-52(s0)
    30d0:	0007a783          	lw	a5,0(a5)
    30d4:	00478793          	add	a5,a5,4
    30d8:	00078713          	mv	a4,a5
    30dc:	fe442783          	lw	a5,-28(s0)
    30e0:	00f72023          	sw	a5,0(a4)
    30e4:	fe042783          	lw	a5,-32(s0)
    30e8:	fef42423          	sw	a5,-24(s0)
    NIOSV_SET_CSR(NIOSV_MSTATUS_CSR, context & NIOSV_MSTATUS_MIE_MASK);
    30ec:	fe842783          	lw	a5,-24(s0)
    30f0:	0087f793          	and	a5,a5,8
    30f4:	3007a073          	csrs	mstatus,a5
}
    30f8:	00000013          	nop
    alt_irq_enable_all(context);
  }

  if (ptr != buffer)
    30fc:	fd042703          	lw	a4,-48(s0)
    3100:	fc842783          	lw	a5,-56(s0)
    3104:	00f70a63          	beq	a4,a5,3118 <altera_avalon_jtag_uart_read+0x1fc>
    return ptr - buffer;
    3108:	fd042703          	lw	a4,-48(s0)
    310c:	fc842783          	lw	a5,-56(s0)
    3110:	40f707b3          	sub	a5,a4,a5
    3114:	0200006f          	j	3134 <altera_avalon_jtag_uart_read+0x218>
  else if (flags & O_NONBLOCK)
    3118:	fc042703          	lw	a4,-64(s0)
    311c:	000047b7          	lui	a5,0x4
    3120:	00f777b3          	and	a5,a4,a5
    3124:	00078663          	beqz	a5,3130 <altera_avalon_jtag_uart_read+0x214>
    return -EWOULDBLOCK;
    3128:	ff500793          	li	a5,-11
    312c:	0080006f          	j	3134 <altera_avalon_jtag_uart_read+0x218>
  else
    return -EIO;
    3130:	ffb00793          	li	a5,-5
}
    3134:	00078513          	mv	a0,a5
    3138:	03c12083          	lw	ra,60(sp)
    313c:	03812403          	lw	s0,56(sp)
    3140:	04010113          	add	sp,sp,64
    3144:	00008067          	ret

00003148 <altera_avalon_jtag_uart_write>:
/* ----------------------------------------------------------- */

int 
altera_avalon_jtag_uart_write(altera_avalon_jtag_uart_state* sp, 
  const char * ptr, int count, int flags)
{
    3148:	fc010113          	add	sp,sp,-64
    314c:	02112e23          	sw	ra,60(sp)
    3150:	02812c23          	sw	s0,56(sp)
    3154:	04010413          	add	s0,sp,64
    3158:	fca42623          	sw	a0,-52(s0)
    315c:	fcb42423          	sw	a1,-56(s0)
    3160:	fcc42223          	sw	a2,-60(s0)
    3164:	fcd42023          	sw	a3,-64(s0)
  /* Remove warning at optimisation level 03 by seting out to 0 */
  unsigned int in, out=0;
    3168:	fc042823          	sw	zero,-48(s0)
  unsigned int n;
  alt_irq_context context;

  const char * start = ptr;
    316c:	fc842783          	lw	a5,-56(s0)
    3170:	fcf42c23          	sw	a5,-40(s0)
  ALT_SEM_PEND (sp->write_lock, 0);

  do
  {
    /* Copy as much as we can into the transmit buffer */
    while (count > 0)
    3174:	0ec0006f          	j	3260 <altera_avalon_jtag_uart_write+0x118>
    {
      /* We need a stable value of the out pointer to calculate the space available */
      in  = sp->tx_in;
    3178:	fcc42783          	lw	a5,-52(s0)
    317c:	0307a783          	lw	a5,48(a5) # 4030 <alt_tick+0xc>
    3180:	fcf42e23          	sw	a5,-36(s0)
      out = sp->tx_out;
    3184:	fcc42783          	lw	a5,-52(s0)
    3188:	0347a783          	lw	a5,52(a5)
    318c:	fcf42823          	sw	a5,-48(s0)

      if (in < out)
    3190:	fdc42703          	lw	a4,-36(s0)
    3194:	fd042783          	lw	a5,-48(s0)
    3198:	00f77e63          	bgeu	a4,a5,31b4 <altera_avalon_jtag_uart_write+0x6c>
        n = out - 1 - in;
    319c:	fd042703          	lw	a4,-48(s0)
    31a0:	fdc42783          	lw	a5,-36(s0)
    31a4:	40f707b3          	sub	a5,a4,a5
    31a8:	fff78793          	add	a5,a5,-1
    31ac:	fcf42a23          	sw	a5,-44(s0)
    31b0:	0340006f          	j	31e4 <altera_avalon_jtag_uart_write+0x9c>
      else if (out > 0)
    31b4:	fd042783          	lw	a5,-48(s0)
    31b8:	00078e63          	beqz	a5,31d4 <altera_avalon_jtag_uart_write+0x8c>
        n = ALTERA_AVALON_JTAG_UART_BUF_LEN - in;
    31bc:	000017b7          	lui	a5,0x1
    31c0:	80078713          	add	a4,a5,-2048 # 800 <alt_main+0x20>
    31c4:	fdc42783          	lw	a5,-36(s0)
    31c8:	40f707b3          	sub	a5,a4,a5
    31cc:	fcf42a23          	sw	a5,-44(s0)
    31d0:	0140006f          	j	31e4 <altera_avalon_jtag_uart_write+0x9c>
      else
        n = ALTERA_AVALON_JTAG_UART_BUF_LEN - 1 - in;
    31d4:	7ff00713          	li	a4,2047
    31d8:	fdc42783          	lw	a5,-36(s0)
    31dc:	40f707b3          	sub	a5,a4,a5
    31e0:	fcf42a23          	sw	a5,-44(s0)

      if (n == 0)
    31e4:	fd442783          	lw	a5,-44(s0)
    31e8:	08078263          	beqz	a5,326c <altera_avalon_jtag_uart_write+0x124>
        break;

      if (n > count)
    31ec:	fc442783          	lw	a5,-60(s0)
    31f0:	fd442703          	lw	a4,-44(s0)
    31f4:	00e7f663          	bgeu	a5,a4,3200 <altera_avalon_jtag_uart_write+0xb8>
        n = count;
    31f8:	fc442783          	lw	a5,-60(s0)
    31fc:	fcf42a23          	sw	a5,-44(s0)

      memcpy(sp->tx_buf + in, ptr, n);
    3200:	fcc42703          	lw	a4,-52(s0)
    3204:	000017b7          	lui	a5,0x1
    3208:	83878793          	add	a5,a5,-1992 # 838 <alt_main+0x58>
    320c:	00f70733          	add	a4,a4,a5
    3210:	fdc42783          	lw	a5,-36(s0)
    3214:	00f707b3          	add	a5,a4,a5
    3218:	fd442603          	lw	a2,-44(s0)
    321c:	fc842583          	lw	a1,-56(s0)
    3220:	00078513          	mv	a0,a5
    3224:	16c020ef          	jal	5390 <memcpy>
      ptr   += n;
    3228:	fc842703          	lw	a4,-56(s0)
    322c:	fd442783          	lw	a5,-44(s0)
    3230:	00f707b3          	add	a5,a4,a5
    3234:	fcf42423          	sw	a5,-56(s0)
      count -= n;
    3238:	fc442703          	lw	a4,-60(s0)
    323c:	fd442783          	lw	a5,-44(s0)
    3240:	40f707b3          	sub	a5,a4,a5
    3244:	fcf42223          	sw	a5,-60(s0)

      sp->tx_in = (in + n) % ALTERA_AVALON_JTAG_UART_BUF_LEN;
    3248:	fdc42703          	lw	a4,-36(s0)
    324c:	fd442783          	lw	a5,-44(s0)
    3250:	00f707b3          	add	a5,a4,a5
    3254:	7ff7f713          	and	a4,a5,2047
    3258:	fcc42783          	lw	a5,-52(s0)
    325c:	02e7a823          	sw	a4,48(a5)
    while (count > 0)
    3260:	fc442783          	lw	a5,-60(s0)
    3264:	f0f04ae3          	bgtz	a5,3178 <altera_avalon_jtag_uart_write+0x30>
    3268:	0080006f          	j	3270 <altera_avalon_jtag_uart_write+0x128>
        break;
    326c:	00000013          	nop
    NIOSV_READ_AND_CLR_CSR(NIOSV_MSTATUS_CSR, context, NIOSV_MSTATUS_MIE_MASK);
    3270:	00800793          	li	a5,8
    3274:	3007b7f3          	csrrc	a5,mstatus,a5
    3278:	fef42623          	sw	a5,-20(s0)
    return context;
    327c:	fec42783          	lw	a5,-20(s0)
     * to enable interrupts if there is no space left in the FIFO
     *
     * For now kick the interrupt routine every time to make it transmit 
     * the data 
     */
    context = alt_irq_disable_all();
    3280:	fef42023          	sw	a5,-32(s0)
    sp->irq_enable |= ALTERA_AVALON_JTAG_UART_CONTROL_WE_MSK;
    3284:	fcc42783          	lw	a5,-52(s0)
    3288:	0207a783          	lw	a5,32(a5)
    328c:	0027e713          	or	a4,a5,2
    3290:	fcc42783          	lw	a5,-52(s0)
    3294:	02e7a023          	sw	a4,32(a5)
    IOWR_ALTERA_AVALON_JTAG_UART_CONTROL(sp->base, sp->irq_enable);
    3298:	fcc42783          	lw	a5,-52(s0)
    329c:	0207a783          	lw	a5,32(a5)
    32a0:	fef42223          	sw	a5,-28(s0)
    32a4:	fcc42783          	lw	a5,-52(s0)
    32a8:	0007a783          	lw	a5,0(a5)
    32ac:	00478793          	add	a5,a5,4
    32b0:	00078713          	mv	a4,a5
    32b4:	fe442783          	lw	a5,-28(s0)
    32b8:	00f72023          	sw	a5,0(a4)
    32bc:	fe042783          	lw	a5,-32(s0)
    32c0:	fef42423          	sw	a5,-24(s0)
    NIOSV_SET_CSR(NIOSV_MSTATUS_CSR, context & NIOSV_MSTATUS_MIE_MASK);
    32c4:	fe842783          	lw	a5,-24(s0)
    32c8:	0087f793          	and	a5,a5,8
    32cc:	3007a073          	csrs	mstatus,a5
}
    32d0:	00000013          	nop
    /* 
     * If there is any data left then either return now or block until 
     * some has been sent 
     */
    /* consider: test whether there is anything there while doing this and delay for at most 2s. */
    if (count > 0)
    32d4:	fc442783          	lw	a5,-60(s0)
    32d8:	04f05463          	blez	a5,3320 <altera_avalon_jtag_uart_write+0x1d8>
    {
      if (flags & O_NONBLOCK)
    32dc:	fc042703          	lw	a4,-64(s0)
    32e0:	000047b7          	lui	a5,0x4
    32e4:	00f777b3          	and	a5,a4,a5
    32e8:	04079263          	bnez	a5,332c <altera_avalon_jtag_uart_write+0x1e4>
      /*
       * No OS present: Always wait for data to be removed from buffer.  Once
       * the interrupt routine has removed some data then we will be able to
       * insert some more.
       */
      while (out == sp->tx_out && sp->host_inactive < sp->timeout)
    32ec:	00000013          	nop
    32f0:	fcc42783          	lw	a5,-52(s0)
    32f4:	0347a783          	lw	a5,52(a5) # 4034 <alt_tick+0x10>
    32f8:	fd042703          	lw	a4,-48(s0)
    32fc:	00f71c63          	bne	a4,a5,3314 <altera_avalon_jtag_uart_write+0x1cc>
    3300:	fcc42783          	lw	a5,-52(s0)
    3304:	0247a703          	lw	a4,36(a5)
    3308:	fcc42783          	lw	a5,-52(s0)
    330c:	0047a783          	lw	a5,4(a5)
    3310:	fef760e3          	bltu	a4,a5,32f0 <altera_avalon_jtag_uart_write+0x1a8>
        ;
#endif /* __ucosii__ */

      if  (sp->host_inactive)
    3314:	fcc42783          	lw	a5,-52(s0)
    3318:	0247a783          	lw	a5,36(a5)
    331c:	00079c63          	bnez	a5,3334 <altera_avalon_jtag_uart_write+0x1ec>
         break;
    }
  }
  while (count > 0);
    3320:	fc442783          	lw	a5,-60(s0)
    3324:	f2f04ee3          	bgtz	a5,3260 <altera_avalon_jtag_uart_write+0x118>
    3328:	0100006f          	j	3338 <altera_avalon_jtag_uart_write+0x1f0>
        break;
    332c:	00000013          	nop
    3330:	0080006f          	j	3338 <altera_avalon_jtag_uart_write+0x1f0>
         break;
    3334:	00000013          	nop
   * Now that access to the circular buffer is complete, release the write
   * semaphore so that other threads can access the buffer.
   */
  ALT_SEM_POST (sp->write_lock);

  if (ptr != start)
    3338:	fc842703          	lw	a4,-56(s0)
    333c:	fd842783          	lw	a5,-40(s0)
    3340:	00f70a63          	beq	a4,a5,3354 <altera_avalon_jtag_uart_write+0x20c>
    return ptr - start;
    3344:	fc842703          	lw	a4,-56(s0)
    3348:	fd842783          	lw	a5,-40(s0)
    334c:	40f707b3          	sub	a5,a4,a5
    3350:	0200006f          	j	3370 <altera_avalon_jtag_uart_write+0x228>
  else if (flags & O_NONBLOCK)
    3354:	fc042703          	lw	a4,-64(s0)
    3358:	000047b7          	lui	a5,0x4
    335c:	00f777b3          	and	a5,a4,a5
    3360:	00078663          	beqz	a5,336c <altera_avalon_jtag_uart_write+0x224>
    return -EWOULDBLOCK;
    3364:	ff500793          	li	a5,-11
    3368:	0080006f          	j	3370 <altera_avalon_jtag_uart_write+0x228>
    sp->tx_out = sp->tx_in = 0;
    return ptr - start + count;
  }
#endif
  else
    return -EIO; /* Host not connected */
    336c:	ffb00793          	li	a5,-5
}
    3370:	00078513          	mv	a0,a5
    3374:	03c12083          	lw	ra,60(sp)
    3378:	03812403          	lw	s0,56(sp)
    337c:	04010113          	add	sp,sp,64
    3380:	00008067          	ret

00003384 <alt_alarm_start>:
 */ 

int alt_alarm_start (alt_alarm* alarm, alt_u32 nticks,
                     alt_u32 (*callback) (void* context),
                     void* context)
{
    3384:	fc010113          	add	sp,sp,-64
    3388:	02812e23          	sw	s0,60(sp)
    338c:	04010413          	add	s0,sp,64
    3390:	fca42623          	sw	a0,-52(s0)
    3394:	fcb42423          	sw	a1,-56(s0)
    3398:	fcc42223          	sw	a2,-60(s0)
    339c:	fcd42023          	sw	a3,-64(s0)
  alt_irq_context irq_context;
  alt_u64 current_nticks = 0;
    33a0:	00000713          	li	a4,0
    33a4:	00000793          	li	a5,0
    33a8:	fee42423          	sw	a4,-24(s0)
    33ac:	fef42623          	sw	a5,-20(s0)
    33b0:	0000b7b7          	lui	a5,0xb
    33b4:	7787a783          	lw	a5,1912(a5) # b778 <_alt_tick_rate>
  
  if (alt_ticks_per_second ())
    33b8:	12078063          	beqz	a5,34d8 <alt_alarm_start+0x154>
  {
    if (alarm)
    33bc:	fcc42783          	lw	a5,-52(s0)
    33c0:	10078863          	beqz	a5,34d0 <alt_alarm_start+0x14c>
    {
      alarm->callback = callback;
    33c4:	fcc42783          	lw	a5,-52(s0)
    33c8:	fc442703          	lw	a4,-60(s0)
    33cc:	00e7a823          	sw	a4,16(a5)
      alarm->context  = context;
    33d0:	fcc42783          	lw	a5,-52(s0)
    33d4:	fc042703          	lw	a4,-64(s0)
    33d8:	00e7aa23          	sw	a4,20(a5)
    NIOSV_READ_AND_CLR_CSR(NIOSV_MSTATUS_CSR, context, NIOSV_MSTATUS_MIE_MASK);
    33dc:	00800793          	li	a5,8
    33e0:	3007b7f3          	csrrc	a5,mstatus,a5
    33e4:	fef42223          	sw	a5,-28(s0)
    return context;
    33e8:	fe442783          	lw	a5,-28(s0)
 
      irq_context = alt_irq_disable_all ();
    33ec:	fcf42a23          	sw	a5,-44(s0)
 * alt_nticks() returns the elapsed number of system clock ticks since reset.
 */

static ALT_INLINE alt_u64 ALT_ALWAYS_INLINE alt_nticks (void)
{
  return _alt_nticks;
    33f0:	0000b7b7          	lui	a5,0xb
    33f4:	7807a703          	lw	a4,1920(a5) # b780 <_alt_nticks>
    33f8:	7847a783          	lw	a5,1924(a5)
      
      current_nticks = alt_nticks();
    33fc:	fee42423          	sw	a4,-24(s0)
    3400:	fef42623          	sw	a5,-20(s0)
      
      alarm->time = (alt_u64)nticks + current_nticks + 1; 
    3404:	fc842783          	lw	a5,-56(s0)
    3408:	00078813          	mv	a6,a5
    340c:	00000893          	li	a7,0
    3410:	fe842603          	lw	a2,-24(s0)
    3414:	fec42683          	lw	a3,-20(s0)
    3418:	00c80733          	add	a4,a6,a2
    341c:	00070593          	mv	a1,a4
    3420:	0105b5b3          	sltu	a1,a1,a6
    3424:	00d887b3          	add	a5,a7,a3
    3428:	00f586b3          	add	a3,a1,a5
    342c:	00068793          	mv	a5,a3
    3430:	00070613          	mv	a2,a4
    3434:	00078693          	mv	a3,a5
    3438:	00100513          	li	a0,1
    343c:	00000593          	li	a1,0
    3440:	00a60733          	add	a4,a2,a0
    3444:	00070813          	mv	a6,a4
    3448:	00c83833          	sltu	a6,a6,a2
    344c:	00b687b3          	add	a5,a3,a1
    3450:	00f806b3          	add	a3,a6,a5
    3454:	00068793          	mv	a5,a3
    3458:	fcc42683          	lw	a3,-52(s0)
    345c:	00e6a423          	sw	a4,8(a3)
    3460:	00f6a623          	sw	a5,12(a3)
          
      alt_llist_insert (&alt_alarm_list, &alarm->llist);
    3464:	fcc42783          	lw	a5,-52(s0)
    3468:	82018713          	add	a4,gp,-2016 # 9f88 <alt_alarm_list>
    346c:	fce42e23          	sw	a4,-36(s0)
    3470:	fef42023          	sw	a5,-32(s0)
 */

static ALT_INLINE void ALT_ALWAYS_INLINE alt_llist_insert(alt_llist* list, 
                alt_llist* entry)
{
  entry->previous = list;
    3474:	fe042783          	lw	a5,-32(s0)
    3478:	fdc42703          	lw	a4,-36(s0)
    347c:	00e7a223          	sw	a4,4(a5)
  entry->next     = list->next;
    3480:	fdc42783          	lw	a5,-36(s0)
    3484:	0007a703          	lw	a4,0(a5)
    3488:	fe042783          	lw	a5,-32(s0)
    348c:	00e7a023          	sw	a4,0(a5)

  list->next->previous = entry;
    3490:	fdc42783          	lw	a5,-36(s0)
    3494:	0007a783          	lw	a5,0(a5)
    3498:	fe042703          	lw	a4,-32(s0)
    349c:	00e7a223          	sw	a4,4(a5)
  list->next           = entry;
    34a0:	fdc42783          	lw	a5,-36(s0)
    34a4:	fe042703          	lw	a4,-32(s0)
    34a8:	00e7a023          	sw	a4,0(a5)
}
    34ac:	00000013          	nop
    34b0:	fd442783          	lw	a5,-44(s0)
    34b4:	fcf42c23          	sw	a5,-40(s0)
    NIOSV_SET_CSR(NIOSV_MSTATUS_CSR, context & NIOSV_MSTATUS_MIE_MASK);
    34b8:	fd842783          	lw	a5,-40(s0)
    34bc:	0087f793          	and	a5,a5,8
    34c0:	3007a073          	csrs	mstatus,a5
}
    34c4:	00000013          	nop
      alt_irq_enable_all (irq_context);

      return 0;
    34c8:	00000793          	li	a5,0
    34cc:	0100006f          	j	34dc <alt_alarm_start+0x158>
    }
    else
    {
      return -EINVAL;
    34d0:	fea00793          	li	a5,-22
    34d4:	0080006f          	j	34dc <alt_alarm_start+0x158>
    }
  }
  else
  {
    return -ENOTSUP;
    34d8:	f7a00793          	li	a5,-134
  }
}
    34dc:	00078513          	mv	a0,a5
    34e0:	03c12403          	lw	s0,60(sp)
    34e4:	04010113          	add	sp,sp,64
    34e8:	00008067          	ret

000034ec <alt_busy_sleep>:

// For a 50 Mhz clock, this is 1,202,590,842.
#define US_PER_OUTER_LOOP ((alt_u64)CLOCKS_PER_OUTER_LOOP / (alt_u64)CPU_FREQUENCY_MHZ)

unsigned int alt_busy_sleep (unsigned int us)
{
    34ec:	fd010113          	add	sp,sp,-48
    34f0:	02112623          	sw	ra,44(sp)
    34f4:	02812423          	sw	s0,40(sp)
    34f8:	03010413          	add	s0,sp,48
    34fc:	fca42e23          	sw	a0,-36(s0)
 * is connected, use that. If no timer agent is connected, fallback to a low accuracy busy
 * loop. If accurate timing is desired for busy sleep (used by usleep), please be sure to
 * provide a timestamp source, or connect the timer agent.
 */
#if HAL_TIMESTAMP_ENABLED
    alt_timestamp_start();
    3500:	4a1000ef          	jal	41a0 <alt_timestamp_start>
    const alt_timestamp_type end_time = (CPU_FREQUENCY_MHZ * us);
    3504:	fdc42703          	lw	a4,-36(s0)
    3508:	00070793          	mv	a5,a4
    350c:	00179793          	sll	a5,a5,0x1
    3510:	00e787b3          	add	a5,a5,a4
    3514:	00379793          	sll	a5,a5,0x3
    3518:	00e787b3          	add	a5,a5,a4
    351c:	00179793          	sll	a5,a5,0x1
    3520:	fef42423          	sw	a5,-24(s0)
    3524:	fe042623          	sw	zero,-20(s0)
    while (alt_timestamp() < end_time) {
    3528:	00000013          	nop
    352c:	4b5000ef          	jal	41e0 <alt_timestamp>
    3530:	00050713          	mv	a4,a0
    3534:	00058793          	mv	a5,a1
    3538:	fec42683          	lw	a3,-20(s0)
    353c:	00078613          	mv	a2,a5
    3540:	fed666e3          	bltu	a2,a3,352c <alt_busy_sleep+0x40>
    3544:	fec42683          	lw	a3,-20(s0)
    3548:	00078613          	mv	a2,a5
    354c:	00c69863          	bne	a3,a2,355c <alt_busy_sleep+0x70>
    3550:	fe842683          	lw	a3,-24(s0)
    3554:	00070793          	mv	a5,a4
    3558:	fcd7eae3          	bltu	a5,a3,352c <alt_busy_sleep+0x40>
        );
    }
#endif
#endif /* #ifndef ALT_SIM_OPTIMIZE */

  return 0;
    355c:	00000793          	li	a5,0
}
    3560:	00078513          	mv	a0,a5
    3564:	02c12083          	lw	ra,44(sp)
    3568:	02812403          	lw	s0,40(sp)
    356c:	03010113          	add	sp,sp,48
    3570:	00008067          	ret

00003574 <alt_dcache_flush_all>:

/*
 * alt_dcache_flush_all() is called to flush the entire data cache.
 */
void alt_dcache_flush_all (void)
{
    3574:	ff010113          	add	sp,sp,-16
    3578:	00812623          	sw	s0,12(sp)
    357c:	01010413          	add	s0,sp,16
    for (i = (char*)0; i < (char*) ALT_CPU_DCACHE_SIZE; i+= ALT_CPU_DCACHE_LINE_SIZE)
    { 
      DCACHE_CLEAN_BY_INDEX_VAL(i); 
    }
#endif
}
    3580:	00000013          	nop
    3584:	00c12403          	lw	s0,12(sp)
    3588:	01010113          	add	sp,sp,16
    358c:	00008067          	ret

00003590 <alt_dev_null_write>:
 * by the alt_dev_null device. It simple discards all data passed to it, and
 * indicates that the data has been successfully transmitted.
 */

static int alt_dev_null_write (alt_fd* fd, const char* ptr, int len)
{
    3590:	fe010113          	add	sp,sp,-32
    3594:	00812e23          	sw	s0,28(sp)
    3598:	02010413          	add	s0,sp,32
    359c:	fea42623          	sw	a0,-20(s0)
    35a0:	feb42423          	sw	a1,-24(s0)
    35a4:	fec42223          	sw	a2,-28(s0)
  return len;
    35a8:	fe442783          	lw	a5,-28(s0)
}
    35ac:	00078513          	mv	a0,a5
    35b0:	01c12403          	lw	s0,28(sp)
    35b4:	02010113          	add	sp,sp,32
    35b8:	00008067          	ret

000035bc <alt_dev_reg>:
    }
    /* all other elements are set to zero */
  };
  
int alt_dev_reg (alt_dev* dev)
{
    35bc:	fe010113          	add	sp,sp,-32
    35c0:	00112e23          	sw	ra,28(sp)
    35c4:	00812c23          	sw	s0,24(sp)
    35c8:	02010413          	add	s0,sp,32
    35cc:	fea42623          	sw	a0,-20(s0)
    return alt_dev_llist_insert ((alt_dev_llist*) dev, &alt_dev_list);
    35d0:	81018593          	add	a1,gp,-2032 # 9f78 <alt_dev_list>
    35d4:	fec42503          	lw	a0,-20(s0)
    35d8:	060000ef          	jal	3638 <alt_dev_llist_insert>
    35dc:	00050793          	mv	a5,a0
}
    35e0:	00078513          	mv	a0,a5
    35e4:	01c12083          	lw	ra,28(sp)
    35e8:	01812403          	lw	s0,24(sp)
    35ec:	02010113          	add	sp,sp,32
    35f0:	00008067          	ret

000035f4 <alt_get_errno>:
    35f4:	ff010113          	add	sp,sp,-16
    35f8:	00112623          	sw	ra,12(sp)
    35fc:	00812423          	sw	s0,8(sp)
    3600:	01010413          	add	s0,sp,16
    3604:	81c1a783          	lw	a5,-2020(gp) # 9f84 <alt_errno>
    3608:	00078a63          	beqz	a5,361c <alt_get_errno+0x28>
    360c:	81c1a783          	lw	a5,-2020(gp) # 9f84 <alt_errno>
    3610:	000780e7          	jalr	a5
    3614:	00050793          	mv	a5,a0
    3618:	00c0006f          	j	3624 <alt_get_errno+0x30>
    361c:	0000b7b7          	lui	a5,0xb
    3620:	79478793          	add	a5,a5,1940 # b794 <errno>
    3624:	00078513          	mv	a0,a5
    3628:	00c12083          	lw	ra,12(sp)
    362c:	00812403          	lw	s0,8(sp)
    3630:	01010113          	add	sp,sp,16
    3634:	00008067          	ret

00003638 <alt_dev_llist_insert>:
{
    3638:	fd010113          	add	sp,sp,-48
    363c:	02112623          	sw	ra,44(sp)
    3640:	02812423          	sw	s0,40(sp)
    3644:	03010413          	add	s0,sp,48
    3648:	fca42e23          	sw	a0,-36(s0)
    364c:	fcb42c23          	sw	a1,-40(s0)
  if (!dev || !dev->name)
    3650:	fdc42783          	lw	a5,-36(s0)
    3654:	00078863          	beqz	a5,3664 <alt_dev_llist_insert+0x2c>
    3658:	fdc42783          	lw	a5,-36(s0)
    365c:	0087a783          	lw	a5,8(a5)
    3660:	00079e63          	bnez	a5,367c <alt_dev_llist_insert+0x44>
    ALT_ERRNO = EINVAL;
    3664:	f91ff0ef          	jal	35f4 <alt_get_errno>
    3668:	00050713          	mv	a4,a0
    366c:	01600793          	li	a5,22
    3670:	00f72023          	sw	a5,0(a4)
    return -EINVAL;
    3674:	fea00793          	li	a5,-22
    3678:	0540006f          	j	36cc <alt_dev_llist_insert+0x94>
  alt_llist_insert(list, &dev->llist);
    367c:	fdc42783          	lw	a5,-36(s0)
    3680:	fd842703          	lw	a4,-40(s0)
    3684:	fee42423          	sw	a4,-24(s0)
    3688:	fef42623          	sw	a5,-20(s0)
  entry->previous = list;
    368c:	fec42783          	lw	a5,-20(s0)
    3690:	fe842703          	lw	a4,-24(s0)
    3694:	00e7a223          	sw	a4,4(a5)
  entry->next     = list->next;
    3698:	fe842783          	lw	a5,-24(s0)
    369c:	0007a703          	lw	a4,0(a5)
    36a0:	fec42783          	lw	a5,-20(s0)
    36a4:	00e7a023          	sw	a4,0(a5)
  list->next->previous = entry;
    36a8:	fe842783          	lw	a5,-24(s0)
    36ac:	0007a783          	lw	a5,0(a5)
    36b0:	fec42703          	lw	a4,-20(s0)
    36b4:	00e7a223          	sw	a4,4(a5)
  list->next           = entry;
    36b8:	fe842783          	lw	a5,-24(s0)
    36bc:	fec42703          	lw	a4,-20(s0)
    36c0:	00e7a023          	sw	a4,0(a5)
}
    36c4:	00000013          	nop
  return 0;  
    36c8:	00000793          	li	a5,0
}
    36cc:	00078513          	mv	a0,a5
    36d0:	02c12083          	lw	ra,44(sp)
    36d4:	02812403          	lw	s0,40(sp)
    36d8:	03010113          	add	sp,sp,48
    36dc:	00008067          	ret

000036e0 <_do_ctors>:
/*
 * Run the C++ static constructors.
 */

void _do_ctors(void)
{
    36e0:	fe010113          	add	sp,sp,-32
    36e4:	00112e23          	sw	ra,28(sp)
    36e8:	00812c23          	sw	s0,24(sp)
    36ec:	02010413          	add	s0,sp,32
  constructor* ctor;

  for (ctor = __init_array_start; ctor < __init_array_end; ctor++)
    36f0:	000087b7          	lui	a5,0x8
    36f4:	74878793          	add	a5,a5,1864 # 8748 <__init_array_start>
    36f8:	fef42623          	sw	a5,-20(s0)
    36fc:	01c0006f          	j	3718 <_do_ctors+0x38>
        (*ctor) (); 
    3700:	fec42783          	lw	a5,-20(s0)
    3704:	0007a783          	lw	a5,0(a5)
    3708:	000780e7          	jalr	a5
  for (ctor = __init_array_start; ctor < __init_array_end; ctor++)
    370c:	fec42783          	lw	a5,-20(s0)
    3710:	00478793          	add	a5,a5,4
    3714:	fef42623          	sw	a5,-20(s0)
    3718:	fec42703          	lw	a4,-20(s0)
    371c:	000087b7          	lui	a5,0x8
    3720:	75078793          	add	a5,a5,1872 # 8750 <__fini_array_end>
    3724:	fcf76ee3          	bltu	a4,a5,3700 <_do_ctors+0x20>
}
    3728:	00000013          	nop
    372c:	00000013          	nop
    3730:	01c12083          	lw	ra,28(sp)
    3734:	01812403          	lw	s0,24(sp)
    3738:	02010113          	add	sp,sp,32
    373c:	00008067          	ret

00003740 <_do_dtors>:
/*
 * Run the C++ static destructors.
 */

void _do_dtors(void)
{
    3740:	fe010113          	add	sp,sp,-32
    3744:	00112e23          	sw	ra,28(sp)
    3748:	00812c23          	sw	s0,24(sp)
    374c:	02010413          	add	s0,sp,32
  destructor* dtor;

  for (dtor = &__fini_array_end[-1]; dtor >= __fini_array_start; dtor--)
    3750:	000087b7          	lui	a5,0x8
    3754:	74c78793          	add	a5,a5,1868 # 874c <__init_array_start+0x4>
    3758:	fef42623          	sw	a5,-20(s0)
    375c:	01c0006f          	j	3778 <_do_dtors+0x38>
        (*dtor) (); 
    3760:	fec42783          	lw	a5,-20(s0)
    3764:	0007a783          	lw	a5,0(a5)
    3768:	000780e7          	jalr	a5
  for (dtor = &__fini_array_end[-1]; dtor >= __fini_array_start; dtor--)
    376c:	fec42783          	lw	a5,-20(s0)
    3770:	ffc78793          	add	a5,a5,-4
    3774:	fef42623          	sw	a5,-20(s0)
    3778:	fec42703          	lw	a4,-20(s0)
    377c:	000087b7          	lui	a5,0x8
    3780:	75078793          	add	a5,a5,1872 # 8750 <__fini_array_end>
    3784:	fcf77ee3          	bgeu	a4,a5,3760 <_do_dtors+0x20>
}
    3788:	00000013          	nop
    378c:	00000013          	nop
    3790:	01c12083          	lw	ra,28(sp)
    3794:	01812403          	lw	s0,24(sp)
    3798:	02010113          	add	sp,sp,32
    379c:	00008067          	ret

000037a0 <alt_find_dev>:
 * "name" must be an exact match for the devices registered name for a match to
 * be found.
 */
 
alt_dev* alt_find_dev(const char* name, alt_llist* llist)
{
    37a0:	fd010113          	add	sp,sp,-48
    37a4:	02812623          	sw	s0,44(sp)
    37a8:	03010413          	add	s0,sp,48
    37ac:	fca42e23          	sw	a0,-36(s0)
    37b0:	fcb42c23          	sw	a1,-40(s0)
    alt_dev* next=NULL; 
    37b4:	fe042223          	sw	zero,-28(s0)
    alt_32   len=0;
    37b8:	fe042423          	sw	zero,-24(s0)
    alt_32   MAX_STRING_LENGTH=1000;
    37bc:	3e800793          	li	a5,1000
    37c0:	fef42623          	sw	a5,-20(s0)
    
    if (llist == NULL) { return NULL; }
    37c4:	fd842783          	lw	a5,-40(s0)
    37c8:	00079663          	bnez	a5,37d4 <alt_find_dev+0x34>
    37cc:	00000793          	li	a5,0
    37d0:	0e00006f          	j	38b0 <alt_find_dev+0x110>
    next = (alt_dev*) llist->next;
    37d4:	fd842783          	lw	a5,-40(s0)
    37d8:	0007a783          	lw	a5,0(a5)
    37dc:	fef42223          	sw	a5,-28(s0)
    /*
     * Check each list entry in turn, until a match is found, or we reach the
     * end of the list (i.e. next winds up pointing back to the list head).
     */ 

    while (next != (alt_dev*) llist)
    37e0:	0c00006f          	j	38a0 <alt_find_dev+0x100>
    {
        len=0;
    37e4:	fe042423          	sw	zero,-24(s0)
        while ((name[len] != 0) && (next->name[len]!=0) && (len < MAX_STRING_LENGTH))
    37e8:	0380006f          	j	3820 <alt_find_dev+0x80>
        {
            if (next->name[len] != name[len]) { break; }
    37ec:	fe442783          	lw	a5,-28(s0)
    37f0:	0087a703          	lw	a4,8(a5)
    37f4:	fe842783          	lw	a5,-24(s0)
    37f8:	00f707b3          	add	a5,a4,a5
    37fc:	0007c703          	lbu	a4,0(a5)
    3800:	fe842783          	lw	a5,-24(s0)
    3804:	fdc42683          	lw	a3,-36(s0)
    3808:	00f687b3          	add	a5,a3,a5
    380c:	0007c783          	lbu	a5,0(a5)
    3810:	04f71663          	bne	a4,a5,385c <alt_find_dev+0xbc>
            len++;
    3814:	fe842783          	lw	a5,-24(s0)
    3818:	00178793          	add	a5,a5,1
    381c:	fef42423          	sw	a5,-24(s0)
        while ((name[len] != 0) && (next->name[len]!=0) && (len < MAX_STRING_LENGTH))
    3820:	fe842783          	lw	a5,-24(s0)
    3824:	fdc42703          	lw	a4,-36(s0)
    3828:	00f707b3          	add	a5,a4,a5
    382c:	0007c783          	lbu	a5,0(a5)
    3830:	02078863          	beqz	a5,3860 <alt_find_dev+0xc0>
    3834:	fe442783          	lw	a5,-28(s0)
    3838:	0087a703          	lw	a4,8(a5)
    383c:	fe842783          	lw	a5,-24(s0)
    3840:	00f707b3          	add	a5,a4,a5
    3844:	0007c783          	lbu	a5,0(a5)
    3848:	00078c63          	beqz	a5,3860 <alt_find_dev+0xc0>
    384c:	fe842703          	lw	a4,-24(s0)
    3850:	fec42783          	lw	a5,-20(s0)
    3854:	f8f74ce3          	blt	a4,a5,37ec <alt_find_dev+0x4c>
    3858:	0080006f          	j	3860 <alt_find_dev+0xc0>
            if (next->name[len] != name[len]) { break; }
    385c:	00000013          	nop
        }
    
        /* match found */
        if ((name[len] == 0) && (next->name[len]==0)) {  return next; }
    3860:	fe842783          	lw	a5,-24(s0)
    3864:	fdc42703          	lw	a4,-36(s0)
    3868:	00f707b3          	add	a5,a4,a5
    386c:	0007c783          	lbu	a5,0(a5)
    3870:	02079263          	bnez	a5,3894 <alt_find_dev+0xf4>
    3874:	fe442783          	lw	a5,-28(s0)
    3878:	0087a703          	lw	a4,8(a5)
    387c:	fe842783          	lw	a5,-24(s0)
    3880:	00f707b3          	add	a5,a4,a5
    3884:	0007c783          	lbu	a5,0(a5)
    3888:	00079663          	bnez	a5,3894 <alt_find_dev+0xf4>
    388c:	fe442783          	lw	a5,-28(s0)
    3890:	0200006f          	j	38b0 <alt_find_dev+0x110>

        next = (alt_dev*) next->llist.next;
    3894:	fe442783          	lw	a5,-28(s0)
    3898:	0007a783          	lw	a5,0(a5)
    389c:	fef42223          	sw	a5,-28(s0)
    while (next != (alt_dev*) llist)
    38a0:	fe442703          	lw	a4,-28(s0)
    38a4:	fd842783          	lw	a5,-40(s0)
    38a8:	f2f71ee3          	bne	a4,a5,37e4 <alt_find_dev+0x44>
    }
  
    /* No match found */
  
    return NULL;
    38ac:	00000793          	li	a5,0
}
    38b0:	00078513          	mv	a0,a5
    38b4:	02c12403          	lw	s0,44(sp)
    38b8:	03010113          	add	sp,sp,48
    38bc:	00008067          	ret

000038c0 <alt_icache_flush_all>:
/*
 * alt_icache_flush_all() is called to flush the entire instruction cache.
 */

void alt_icache_flush_all (void)
{
    38c0:	ff010113          	add	sp,sp,-16
    38c4:	00812623          	sw	s0,12(sp)
    38c8:	01010413          	add	s0,sp,16
#if ALT_CPU_ICACHE_SIZE > 0
    __asm__ volatile("fence.i" ::: "memory");
#endif
}
    38cc:	00000013          	nop
    38d0:	00c12403          	lw	s0,12(sp)
    38d4:	01010113          	add	sp,sp,16
    38d8:	00008067          	ret

000038dc <alt_ic_isr_register>:
  * @return                 0 if successful, else error (-1)
  */
int 
alt_ic_isr_register(alt_u32 ic_id, alt_u32 irq, alt_isr_func isr, 
  void *isr_context, void *flags)
{
    38dc:	fd010113          	add	sp,sp,-48
    38e0:	02112623          	sw	ra,44(sp)
    38e4:	02812423          	sw	s0,40(sp)
    38e8:	03010413          	add	s0,sp,48
    38ec:	fea42623          	sw	a0,-20(s0)
    38f0:	feb42423          	sw	a1,-24(s0)
    38f4:	fec42223          	sw	a2,-28(s0)
    38f8:	fed42023          	sw	a3,-32(s0)
    38fc:	fce42e23          	sw	a4,-36(s0)
    return alt_iic_isr_register(ic_id, irq, isr, isr_context, flags);
    3900:	fdc42703          	lw	a4,-36(s0)
    3904:	fe042683          	lw	a3,-32(s0)
    3908:	fe442603          	lw	a2,-28(s0)
    390c:	fe842583          	lw	a1,-24(s0)
    3910:	fec42503          	lw	a0,-20(s0)
    3914:	01c000ef          	jal	3930 <alt_iic_isr_register>
    3918:	00050793          	mv	a5,a0
}  
    391c:	00078513          	mv	a0,a5
    3920:	02c12083          	lw	ra,44(sp)
    3924:	02812403          	lw	s0,40(sp)
    3928:	03010113          	add	sp,sp,48
    392c:	00008067          	ret

00003930 <alt_iic_isr_register>:
  * @param flags            
  * @return                 0 if successful, else error (-1)
  */
int alt_iic_isr_register(alt_u32 ic_id, alt_u32 irq, alt_isr_func isr, 
  void *isr_context, void *flags)
{
    3930:	fa010113          	add	sp,sp,-96
    3934:	04812e23          	sw	s0,92(sp)
    3938:	06010413          	add	s0,sp,96
    393c:	faa42e23          	sw	a0,-68(s0)
    3940:	fab42c23          	sw	a1,-72(s0)
    3944:	fac42a23          	sw	a2,-76(s0)
    3948:	fad42823          	sw	a3,-80(s0)
    394c:	fae42623          	sw	a4,-84(s0)
  int rc = -EINVAL;  
    3950:	fea00793          	li	a5,-22
    3954:	fcf42223          	sw	a5,-60(s0)
  int id = irq;             /* IRQ interpreted as the interrupt ID. */
    3958:	fb842783          	lw	a5,-72(s0)
    395c:	fcf42423          	sw	a5,-56(s0)
  alt_irq_context status;

  if (id < ALT_NIRQ)
    3960:	fc842703          	lw	a4,-56(s0)
    3964:	00f00793          	li	a5,15
    3968:	12e7c863          	blt	a5,a4,3a98 <alt_iic_isr_register+0x168>
    NIOSV_READ_AND_CLR_CSR(NIOSV_MSTATUS_CSR, context, NIOSV_MSTATUS_MIE_MASK);
    396c:	00800793          	li	a5,8
    3970:	3007b7f3          	csrrc	a5,mstatus,a5
    3974:	fcf42823          	sw	a5,-48(s0)
    return context;
    3978:	fd042783          	lw	a5,-48(s0)
     * interrupts are disabled while the handler tables are updated to ensure
     * that an interrupt doesn't occur while the tables are in an inconsistant
     * state.
     */

    status = alt_irq_disable_all();
    397c:	fcf42623          	sw	a5,-52(s0)

    alt_irq[id].handler = isr;
    3980:	0000b7b7          	lui	a5,0xb
    3984:	7d078713          	add	a4,a5,2000 # b7d0 <alt_irq>
    3988:	fc842783          	lw	a5,-56(s0)
    398c:	00379793          	sll	a5,a5,0x3
    3990:	00f707b3          	add	a5,a4,a5
    3994:	fb442703          	lw	a4,-76(s0)
    3998:	00e7a023          	sw	a4,0(a5)
    alt_irq[id].context = isr_context;
    399c:	0000b7b7          	lui	a5,0xb
    39a0:	7d078713          	add	a4,a5,2000 # b7d0 <alt_irq>
    39a4:	fc842783          	lw	a5,-56(s0)
    39a8:	00379793          	sll	a5,a5,0x3
    39ac:	00f707b3          	add	a5,a4,a5
    39b0:	fb042703          	lw	a4,-80(s0)
    39b4:	00e7a223          	sw	a4,4(a5)

    rc = (isr) ? alt_ic_irq_enable(ic_id, id) : alt_ic_irq_disable(ic_id, id);
    39b8:	fb442783          	lw	a5,-76(s0)
    39bc:	06078263          	beqz	a5,3a20 <alt_iic_isr_register+0xf0>
    39c0:	fc842783          	lw	a5,-56(s0)
    39c4:	fbc42703          	lw	a4,-68(s0)
    39c8:	fce42a23          	sw	a4,-44(s0)
    39cc:	fcf42c23          	sw	a5,-40(s0)
    int rc = ALT_REMAP_IRQ_NUM(irq);
    39d0:	fd842703          	lw	a4,-40(s0)
    39d4:	00f00793          	li	a5,15
    39d8:	00e7e863          	bltu	a5,a4,39e8 <alt_iic_isr_register+0xb8>
    39dc:	fd842783          	lw	a5,-40(s0)
    39e0:	01078793          	add	a5,a5,16
    39e4:	0080006f          	j	39ec <alt_iic_isr_register+0xbc>
    39e8:	fff00793          	li	a5,-1
    39ec:	fcf42e23          	sw	a5,-36(s0)
    if (rc < 0)
    39f0:	fdc42783          	lw	a5,-36(s0)
    39f4:	0007d663          	bgez	a5,3a00 <alt_iic_isr_register+0xd0>
        return rc;
    39f8:	fdc42783          	lw	a5,-36(s0)
    39fc:	0800006f          	j	3a7c <alt_iic_isr_register+0x14c>
        irq = (alt_u32)rc;
    3a00:	fdc42783          	lw	a5,-36(s0)
    3a04:	fcf42c23          	sw	a5,-40(s0)
    NIOSV_SET_CSR(NIOSV_MIE_CSR, 0x1 << irq);
    3a08:	fd842783          	lw	a5,-40(s0)
    3a0c:	00100713          	li	a4,1
    3a10:	00f717b3          	sll	a5,a4,a5
    3a14:	3047a073          	csrs	mie,a5
    return 0;
    3a18:	00000793          	li	a5,0
    3a1c:	0600006f          	j	3a7c <alt_iic_isr_register+0x14c>
    3a20:	fc842783          	lw	a5,-56(s0)
    3a24:	fbc42703          	lw	a4,-68(s0)
    3a28:	fee42023          	sw	a4,-32(s0)
    3a2c:	fef42223          	sw	a5,-28(s0)
    int rc = ALT_REMAP_IRQ_NUM(irq);
    3a30:	fe442703          	lw	a4,-28(s0)
    3a34:	00f00793          	li	a5,15
    3a38:	00e7e863          	bltu	a5,a4,3a48 <alt_iic_isr_register+0x118>
    3a3c:	fe442783          	lw	a5,-28(s0)
    3a40:	01078793          	add	a5,a5,16
    3a44:	0080006f          	j	3a4c <alt_iic_isr_register+0x11c>
    3a48:	fff00793          	li	a5,-1
    3a4c:	fef42423          	sw	a5,-24(s0)
    if (rc < 0)
    3a50:	fe842783          	lw	a5,-24(s0)
    3a54:	0007d663          	bgez	a5,3a60 <alt_iic_isr_register+0x130>
        return rc;
    3a58:	fe842783          	lw	a5,-24(s0)
    3a5c:	0200006f          	j	3a7c <alt_iic_isr_register+0x14c>
        irq = (alt_u32)rc;
    3a60:	fe842783          	lw	a5,-24(s0)
    3a64:	fef42223          	sw	a5,-28(s0)
    NIOSV_CLR_CSR(NIOSV_MIE_CSR, 0x1 << irq);
    3a68:	fe442783          	lw	a5,-28(s0)
    3a6c:	00100713          	li	a4,1
    3a70:	00f717b3          	sll	a5,a4,a5
    3a74:	3047b073          	csrc	mie,a5
    return 0;
    3a78:	00000793          	li	a5,0
    3a7c:	fcf42223          	sw	a5,-60(s0)
    3a80:	fcc42783          	lw	a5,-52(s0)
    3a84:	fef42623          	sw	a5,-20(s0)
    NIOSV_SET_CSR(NIOSV_MSTATUS_CSR, context & NIOSV_MSTATUS_MIE_MASK);
    3a88:	fec42783          	lw	a5,-20(s0)
    3a8c:	0087f793          	and	a5,a5,8
    3a90:	3007a073          	csrs	mstatus,a5
}
    3a94:	00000013          	nop

    alt_irq_enable_all(status);
  }

  return rc; 
    3a98:	fc442783          	lw	a5,-60(s0)
}
    3a9c:	00078513          	mv	a0,a5
    3aa0:	05c12403          	lw	s0,92(sp)
    3aa4:	06010113          	add	sp,sp,96
    3aa8:	00008067          	ret

00003aac <alt_open_fd>:
 * If the device can not be succesfully opened, then the input file descriptor
 * remains unchanged.
 */

static void alt_open_fd(alt_fd* fd, const char* name, int flags, int mode)
{
    3aac:	fd010113          	add	sp,sp,-48
    3ab0:	02112623          	sw	ra,44(sp)
    3ab4:	02812423          	sw	s0,40(sp)
    3ab8:	03010413          	add	s0,sp,48
    3abc:	fca42e23          	sw	a0,-36(s0)
    3ac0:	fcb42c23          	sw	a1,-40(s0)
    3ac4:	fcc42a23          	sw	a2,-44(s0)
    3ac8:	fcd42823          	sw	a3,-48(s0)
  int old;

  old = open (name, flags, mode);
    3acc:	fd042603          	lw	a2,-48(s0)
    3ad0:	fd442583          	lw	a1,-44(s0)
    3ad4:	fd842503          	lw	a0,-40(s0)
    3ad8:	6d4010ef          	jal	51ac <open>
    3adc:	fea42623          	sw	a0,-20(s0)

  if (old >= 0)
    3ae0:	fec42783          	lw	a5,-20(s0)
    3ae4:	0807c863          	bltz	a5,3b74 <alt_open_fd+0xc8>
  {
    fd->dev      = alt_fd_list[old].dev;
    3ae8:	0000a7b7          	lui	a5,0xa
    3aec:	8b078693          	add	a3,a5,-1872 # 98b0 <alt_fd_list>
    3af0:	fec42703          	lw	a4,-20(s0)
    3af4:	00070793          	mv	a5,a4
    3af8:	00179793          	sll	a5,a5,0x1
    3afc:	00e787b3          	add	a5,a5,a4
    3b00:	00279793          	sll	a5,a5,0x2
    3b04:	00f687b3          	add	a5,a3,a5
    3b08:	0007a703          	lw	a4,0(a5)
    3b0c:	fdc42783          	lw	a5,-36(s0)
    3b10:	00e7a023          	sw	a4,0(a5)
    fd->priv     = alt_fd_list[old].priv;
    3b14:	0000a7b7          	lui	a5,0xa
    3b18:	8b078693          	add	a3,a5,-1872 # 98b0 <alt_fd_list>
    3b1c:	fec42703          	lw	a4,-20(s0)
    3b20:	00070793          	mv	a5,a4
    3b24:	00179793          	sll	a5,a5,0x1
    3b28:	00e787b3          	add	a5,a5,a4
    3b2c:	00279793          	sll	a5,a5,0x2
    3b30:	00f687b3          	add	a5,a3,a5
    3b34:	0047a703          	lw	a4,4(a5)
    3b38:	fdc42783          	lw	a5,-36(s0)
    3b3c:	00e7a223          	sw	a4,4(a5)
    fd->fd_flags = alt_fd_list[old].fd_flags;
    3b40:	0000a7b7          	lui	a5,0xa
    3b44:	8b078693          	add	a3,a5,-1872 # 98b0 <alt_fd_list>
    3b48:	fec42703          	lw	a4,-20(s0)
    3b4c:	00070793          	mv	a5,a4
    3b50:	00179793          	sll	a5,a5,0x1
    3b54:	00e787b3          	add	a5,a5,a4
    3b58:	00279793          	sll	a5,a5,0x2
    3b5c:	00f687b3          	add	a5,a3,a5
    3b60:	0087a703          	lw	a4,8(a5)
    3b64:	fdc42783          	lw	a5,-36(s0)
    3b68:	00e7a423          	sw	a4,8(a5)

    alt_release_fd (old);
    3b6c:	fec42503          	lw	a0,-20(s0)
    3b70:	3a8000ef          	jal	3f18 <alt_release_fd>
  }
} 
    3b74:	00000013          	nop
    3b78:	02c12083          	lw	ra,44(sp)
    3b7c:	02812403          	lw	s0,40(sp)
    3b80:	03010113          	add	sp,sp,48
    3b84:	00008067          	ret

00003b88 <alt_io_redirect>:
 */
 
void alt_io_redirect(const char* stdout_dev, 
                     const char* stdin_dev, 
                     const char* stderr_dev)
{
    3b88:	fe010113          	add	sp,sp,-32
    3b8c:	00112e23          	sw	ra,28(sp)
    3b90:	00812c23          	sw	s0,24(sp)
    3b94:	02010413          	add	s0,sp,32
    3b98:	fea42623          	sw	a0,-20(s0)
    3b9c:	feb42423          	sw	a1,-24(s0)
    3ba0:	fec42223          	sw	a2,-28(s0)
  /* Redirect the channels */

  alt_open_fd (&alt_fd_list[STDOUT_FILENO], stdout_dev, O_WRONLY, 0777);
    3ba4:	1ff00693          	li	a3,511
    3ba8:	00100613          	li	a2,1
    3bac:	fec42583          	lw	a1,-20(s0)
    3bb0:	0000a7b7          	lui	a5,0xa
    3bb4:	8bc78513          	add	a0,a5,-1860 # 98bc <alt_fd_list+0xc>
    3bb8:	ef5ff0ef          	jal	3aac <alt_open_fd>
  alt_open_fd (&alt_fd_list[STDIN_FILENO], stdin_dev, O_RDONLY, 0777);
    3bbc:	1ff00693          	li	a3,511
    3bc0:	00000613          	li	a2,0
    3bc4:	fe842583          	lw	a1,-24(s0)
    3bc8:	0000a7b7          	lui	a5,0xa
    3bcc:	8b078513          	add	a0,a5,-1872 # 98b0 <alt_fd_list>
    3bd0:	eddff0ef          	jal	3aac <alt_open_fd>
  alt_open_fd (&alt_fd_list[STDERR_FILENO], stderr_dev, O_WRONLY, 0777);
    3bd4:	1ff00693          	li	a3,511
    3bd8:	00100613          	li	a2,1
    3bdc:	fe442583          	lw	a1,-28(s0)
    3be0:	0000a7b7          	lui	a5,0xa
    3be4:	8c878513          	add	a0,a5,-1848 # 98c8 <alt_fd_list+0x18>
    3be8:	ec5ff0ef          	jal	3aac <alt_open_fd>

#ifndef USE_PICOLIBC
  /* Allocate a stream buffer if it is not yet done.
   * And use no buffering mode by default.
   */
  if ((FILE *)stdin->_bf._base == NULL)
    3bec:	8281a783          	lw	a5,-2008(gp) # 9f90 <_impure_ptr>
    3bf0:	0047a783          	lw	a5,4(a5)
    3bf4:	0107a783          	lw	a5,16(a5)
    3bf8:	02079063          	bnez	a5,3c18 <alt_io_redirect+0x90>
  {
    setvbuf(stdin, NULL, _IONBF, 0);
    3bfc:	8281a783          	lw	a5,-2008(gp) # 9f90 <_impure_ptr>
    3c00:	0047a783          	lw	a5,4(a5)
    3c04:	00000693          	li	a3,0
    3c08:	00200613          	li	a2,2
    3c0c:	00000593          	li	a1,0
    3c10:	00078513          	mv	a0,a5
    3c14:	6f1000ef          	jal	4b04 <setvbuf>
  }

  if ((FILE *)stdout->_bf._base == NULL)
    3c18:	8281a783          	lw	a5,-2008(gp) # 9f90 <_impure_ptr>
    3c1c:	0087a783          	lw	a5,8(a5)
    3c20:	0107a783          	lw	a5,16(a5)
    3c24:	02079063          	bnez	a5,3c44 <alt_io_redirect+0xbc>
  {
    setvbuf(stdout, NULL, _IONBF, 0);
    3c28:	8281a783          	lw	a5,-2008(gp) # 9f90 <_impure_ptr>
    3c2c:	0087a783          	lw	a5,8(a5)
    3c30:	00000693          	li	a3,0
    3c34:	00200613          	li	a2,2
    3c38:	00000593          	li	a1,0
    3c3c:	00078513          	mv	a0,a5
    3c40:	6c5000ef          	jal	4b04 <setvbuf>
  }

  if ((FILE *)stderr->_bf._base == NULL)
    3c44:	8281a783          	lw	a5,-2008(gp) # 9f90 <_impure_ptr>
    3c48:	00c7a783          	lw	a5,12(a5)
    3c4c:	0107a783          	lw	a5,16(a5)
    3c50:	02079063          	bnez	a5,3c70 <alt_io_redirect+0xe8>
  {
    setvbuf(stderr, NULL, _IONBF, 0);
    3c54:	8281a783          	lw	a5,-2008(gp) # 9f90 <_impure_ptr>
    3c58:	00c7a783          	lw	a5,12(a5)
    3c5c:	00000693          	li	a3,0
    3c60:	00200613          	li	a2,2
    3c64:	00000593          	li	a1,0
    3c68:	00078513          	mv	a0,a5
    3c6c:	699000ef          	jal	4b04 <setvbuf>
  }
#endif
}  
    3c70:	00000013          	nop
    3c74:	01c12083          	lw	ra,28(sp)
    3c78:	01812403          	lw	s0,24(sp)
    3c7c:	02010113          	add	sp,sp,32
    3c80:	00008067          	ret

00003c84 <alt_printf>:
/* 
 * ALT printf function 
 */
void 
alt_printf(const char* fmt, ... )
{
    3c84:	f9010113          	add	sp,sp,-112
    3c88:	04112623          	sw	ra,76(sp)
    3c8c:	04812423          	sw	s0,72(sp)
    3c90:	05010413          	add	s0,sp,80
    3c94:	faa42e23          	sw	a0,-68(s0)
    3c98:	00b42223          	sw	a1,4(s0)
    3c9c:	00c42423          	sw	a2,8(s0)
    3ca0:	00d42623          	sw	a3,12(s0)
    3ca4:	00e42823          	sw	a4,16(s0)
    3ca8:	00f42a23          	sw	a5,20(s0)
    3cac:	01042c23          	sw	a6,24(s0)
    3cb0:	01142e23          	sw	a7,28(s0)
    3cb4:	0000b7b7          	lui	a5,0xb
    3cb8:	7b87a703          	lw	a4,1976(a5) # b7b8 <__stack_chk_guard>
    3cbc:	fee42623          	sw	a4,-20(s0)
    3cc0:	00000713          	li	a4,0
	va_list args;
	va_start(args, fmt);
    3cc4:	02040793          	add	a5,s0,32
    3cc8:	faf42c23          	sw	a5,-72(s0)
    3ccc:	fb842783          	lw	a5,-72(s0)
    3cd0:	fe478793          	add	a5,a5,-28
    3cd4:	fcf42823          	sw	a5,-48(s0)
    const char *w;
    char c;

    /* Process format string. */
    w = fmt;
    3cd8:	fbc42783          	lw	a5,-68(s0)
    3cdc:	fcf42a23          	sw	a5,-44(s0)
    while ((c = *w++) != 0)
    3ce0:	1b00006f          	j	3e90 <alt_printf+0x20c>
    {
        /* If not a format escape character, just print  */
        /* character.  Otherwise, process format string. */
        if (c != '%')
    3ce4:	fcf44703          	lbu	a4,-49(s0)
    3ce8:	02500793          	li	a5,37
    3cec:	00f70a63          	beq	a4,a5,3d00 <alt_printf+0x7c>
        {
            alt_putchar(c);
    3cf0:	fcf44783          	lbu	a5,-49(s0)
    3cf4:	00078513          	mv	a0,a5
    3cf8:	1ec000ef          	jal	3ee4 <alt_putchar>
    3cfc:	1940006f          	j	3e90 <alt_printf+0x20c>
        }
        else
        {
            /* Get format character.  If none     */
            /* available, processing is complete. */
            if ((c = *w++) != 0)
    3d00:	fd442783          	lw	a5,-44(s0)
    3d04:	00178713          	add	a4,a5,1
    3d08:	fce42a23          	sw	a4,-44(s0)
    3d0c:	0007c783          	lbu	a5,0(a5)
    3d10:	fcf407a3          	sb	a5,-49(s0)
    3d14:	fcf44783          	lbu	a5,-49(s0)
    3d18:	18078c63          	beqz	a5,3eb0 <alt_printf+0x22c>
            {
                if (c == '%')
    3d1c:	fcf44703          	lbu	a4,-49(s0)
    3d20:	02500793          	li	a5,37
    3d24:	00f71a63          	bne	a4,a5,3d38 <alt_printf+0xb4>
                {
                    /* Process "%" escape sequence. */
                    alt_putchar(c);
    3d28:	fcf44783          	lbu	a5,-49(s0)
    3d2c:	00078513          	mv	a0,a5
    3d30:	1b4000ef          	jal	3ee4 <alt_putchar>
    3d34:	15c0006f          	j	3e90 <alt_printf+0x20c>
                } 
                else if (c == 'c')
    3d38:	fcf44703          	lbu	a4,-49(s0)
    3d3c:	06300793          	li	a5,99
    3d40:	02f71263          	bne	a4,a5,3d64 <alt_printf+0xe0>
                {
                    int v = va_arg(args, int);
    3d44:	fd042783          	lw	a5,-48(s0)
    3d48:	00478713          	add	a4,a5,4
    3d4c:	fce42823          	sw	a4,-48(s0)
    3d50:	0007a783          	lw	a5,0(a5)
    3d54:	fef42423          	sw	a5,-24(s0)
                    alt_putchar(v);
    3d58:	fe842503          	lw	a0,-24(s0)
    3d5c:	188000ef          	jal	3ee4 <alt_putchar>
    3d60:	1300006f          	j	3e90 <alt_printf+0x20c>
                }
                else if (c == 'x')
    3d64:	fcf44703          	lbu	a4,-49(s0)
    3d68:	07800793          	li	a5,120
    3d6c:	0cf71e63          	bne	a4,a5,3e48 <alt_printf+0x1c4>
                {
                    /* Process hexadecimal number format. */
                    unsigned long v = va_arg(args, unsigned long);
    3d70:	fd042783          	lw	a5,-48(s0)
    3d74:	00478713          	add	a4,a5,4
    3d78:	fce42823          	sw	a4,-48(s0)
    3d7c:	0007a783          	lw	a5,0(a5)
    3d80:	fef42023          	sw	a5,-32(s0)
                    unsigned long digit;
                    int digit_shift;

                    /* If the number value is zero, just print and continue. */
                    if (v == 0)
    3d84:	fe042783          	lw	a5,-32(s0)
    3d88:	00079863          	bnez	a5,3d98 <alt_printf+0x114>
                    {
                        alt_putchar('0');
    3d8c:	03000513          	li	a0,48
    3d90:	154000ef          	jal	3ee4 <alt_putchar>
                        continue;
    3d94:	0fc0006f          	j	3e90 <alt_printf+0x20c>
                    }

                    /* Find first non-zero digit. */
                    digit_shift = 28;
    3d98:	01c00793          	li	a5,28
    3d9c:	fcf42c23          	sw	a5,-40(s0)
                    while (!(v & (0xF << digit_shift)))
    3da0:	0100006f          	j	3db0 <alt_printf+0x12c>
                        digit_shift -= 4;
    3da4:	fd842783          	lw	a5,-40(s0)
    3da8:	ffc78793          	add	a5,a5,-4
    3dac:	fcf42c23          	sw	a5,-40(s0)
                    while (!(v & (0xF << digit_shift)))
    3db0:	fd842783          	lw	a5,-40(s0)
    3db4:	00f00713          	li	a4,15
    3db8:	00f717b3          	sll	a5,a4,a5
    3dbc:	00078713          	mv	a4,a5
    3dc0:	fe042783          	lw	a5,-32(s0)
    3dc4:	00f777b3          	and	a5,a4,a5
    3dc8:	fc078ee3          	beqz	a5,3da4 <alt_printf+0x120>

                    /* Print digits. */
                    for (; digit_shift >= 0; digit_shift -= 4)
    3dcc:	0700006f          	j	3e3c <alt_printf+0x1b8>
                    {
                        digit = (v & (0xF << digit_shift)) >> digit_shift;
    3dd0:	fd842783          	lw	a5,-40(s0)
    3dd4:	00f00713          	li	a4,15
    3dd8:	00f717b3          	sll	a5,a4,a5
    3ddc:	00078713          	mv	a4,a5
    3de0:	fe042783          	lw	a5,-32(s0)
    3de4:	00f77733          	and	a4,a4,a5
    3de8:	fd842783          	lw	a5,-40(s0)
    3dec:	00f757b3          	srl	a5,a4,a5
    3df0:	fef42223          	sw	a5,-28(s0)
                        if (digit <= 9)
    3df4:	fe442703          	lw	a4,-28(s0)
    3df8:	00900793          	li	a5,9
    3dfc:	00e7ec63          	bltu	a5,a4,3e14 <alt_printf+0x190>
                            c = '0' + digit;
    3e00:	fe442783          	lw	a5,-28(s0)
    3e04:	0ff7f793          	zext.b	a5,a5
    3e08:	03078793          	add	a5,a5,48
    3e0c:	fcf407a3          	sb	a5,-49(s0)
    3e10:	0140006f          	j	3e24 <alt_printf+0x1a0>
                        else
                            c = 'a' + digit - 10;
    3e14:	fe442783          	lw	a5,-28(s0)
    3e18:	0ff7f793          	zext.b	a5,a5
    3e1c:	05778793          	add	a5,a5,87
    3e20:	fcf407a3          	sb	a5,-49(s0)
                        alt_putchar(c);
    3e24:	fcf44783          	lbu	a5,-49(s0)
    3e28:	00078513          	mv	a0,a5
    3e2c:	0b8000ef          	jal	3ee4 <alt_putchar>
                    for (; digit_shift >= 0; digit_shift -= 4)
    3e30:	fd842783          	lw	a5,-40(s0)
    3e34:	ffc78793          	add	a5,a5,-4
    3e38:	fcf42c23          	sw	a5,-40(s0)
    3e3c:	fd842783          	lw	a5,-40(s0)
    3e40:	f807d8e3          	bgez	a5,3dd0 <alt_printf+0x14c>
    3e44:	04c0006f          	j	3e90 <alt_printf+0x20c>
                    }
                }
                else if (c == 's')
    3e48:	fcf44703          	lbu	a4,-49(s0)
    3e4c:	07300793          	li	a5,115
    3e50:	04f71063          	bne	a4,a5,3e90 <alt_printf+0x20c>
                {
                    /* Process string format. */
                    char *s = va_arg(args, char *);
    3e54:	fd042783          	lw	a5,-48(s0)
    3e58:	00478713          	add	a4,a5,4
    3e5c:	fce42823          	sw	a4,-48(s0)
    3e60:	0007a783          	lw	a5,0(a5)
    3e64:	fcf42e23          	sw	a5,-36(s0)

                    while(*s)
    3e68:	01c0006f          	j	3e84 <alt_printf+0x200>
                      alt_putchar(*s++);
    3e6c:	fdc42783          	lw	a5,-36(s0)
    3e70:	00178713          	add	a4,a5,1
    3e74:	fce42e23          	sw	a4,-36(s0)
    3e78:	0007c783          	lbu	a5,0(a5)
    3e7c:	00078513          	mv	a0,a5
    3e80:	064000ef          	jal	3ee4 <alt_putchar>
                    while(*s)
    3e84:	fdc42783          	lw	a5,-36(s0)
    3e88:	0007c783          	lbu	a5,0(a5)
    3e8c:	fe0790e3          	bnez	a5,3e6c <alt_printf+0x1e8>
    while ((c = *w++) != 0)
    3e90:	fd442783          	lw	a5,-44(s0)
    3e94:	00178713          	add	a4,a5,1
    3e98:	fce42a23          	sw	a4,-44(s0)
    3e9c:	0007c783          	lbu	a5,0(a5)
    3ea0:	fcf407a3          	sb	a5,-49(s0)
    3ea4:	fcf44783          	lbu	a5,-49(s0)
    3ea8:	e2079ee3          	bnez	a5,3ce4 <alt_printf+0x60>
    }
#ifdef ALT_SEMIHOSTING
    alt_putbufflush();
#endif
    va_end(args);
}
    3eac:	0080006f          	j	3eb4 <alt_printf+0x230>
                break;
    3eb0:	00000013          	nop
}
    3eb4:	00000013          	nop
    3eb8:	0000b7b7          	lui	a5,0xb
    3ebc:	fec42703          	lw	a4,-20(s0)
    3ec0:	7b87a783          	lw	a5,1976(a5) # b7b8 <__stack_chk_guard>
    3ec4:	00f747b3          	xor	a5,a4,a5
    3ec8:	00000713          	li	a4,0
    3ecc:	00078463          	beqz	a5,3ed4 <alt_printf+0x250>
    3ed0:	324010ef          	jal	51f4 <__stack_chk_fail>
    3ed4:	04c12083          	lw	ra,76(sp)
    3ed8:	04812403          	lw	s0,72(sp)
    3edc:	07010113          	add	sp,sp,112
    3ee0:	00008067          	ret

00003ee4 <alt_putchar>:
 * Uses the ALT_DRIVER_WRITE() macro to call directly to driver if available.
 * Otherwise, uses newlib provided putchar() routine.
 */
int 
alt_putchar(int c)
{
    3ee4:	fe010113          	add	sp,sp,-32
    3ee8:	00112e23          	sw	ra,28(sp)
    3eec:	00812c23          	sw	s0,24(sp)
    3ef0:	02010413          	add	s0,sp,32
    3ef4:	fea42623          	sw	a0,-20(s0)
    if (ALT_DRIVER_WRITE(ALT_STDOUT_DEV, &c1, 1, 0) == -1) {
        return -1;
    }
    return c;
#else
    return putchar(c);
    3ef8:	fec42503          	lw	a0,-20(s0)
    3efc:	3f5000ef          	jal	4af0 <putchar>
    3f00:	00050793          	mv	a5,a0
#endif
#endif
}
    3f04:	00078513          	mv	a0,a5
    3f08:	01c12083          	lw	ra,28(sp)
    3f0c:	01812403          	lw	s0,24(sp)
    3f10:	02010113          	add	sp,sp,32
    3f14:	00008067          	ret

00003f18 <alt_release_fd>:
 * File descriptors correcponding to standard in, standard out and standard 
 * error cannont be released backed to the pool. They are always reserved.
 */

void alt_release_fd (int fd)
{
    3f18:	fe010113          	add	sp,sp,-32
    3f1c:	00812e23          	sw	s0,28(sp)
    3f20:	02010413          	add	s0,sp,32
    3f24:	fea42623          	sw	a0,-20(s0)
  if (fd > 2)
    3f28:	fec42703          	lw	a4,-20(s0)
    3f2c:	00200793          	li	a5,2
    3f30:	04e7d663          	bge	a5,a4,3f7c <alt_release_fd+0x64>
  {
    alt_fd_list[fd].fd_flags = 0;
    3f34:	0000a7b7          	lui	a5,0xa
    3f38:	8b078693          	add	a3,a5,-1872 # 98b0 <alt_fd_list>
    3f3c:	fec42703          	lw	a4,-20(s0)
    3f40:	00070793          	mv	a5,a4
    3f44:	00179793          	sll	a5,a5,0x1
    3f48:	00e787b3          	add	a5,a5,a4
    3f4c:	00279793          	sll	a5,a5,0x2
    3f50:	00f687b3          	add	a5,a3,a5
    3f54:	0007a423          	sw	zero,8(a5)
    alt_fd_list[fd].dev      = 0;
    3f58:	0000a7b7          	lui	a5,0xa
    3f5c:	8b078693          	add	a3,a5,-1872 # 98b0 <alt_fd_list>
    3f60:	fec42703          	lw	a4,-20(s0)
    3f64:	00070793          	mv	a5,a4
    3f68:	00179793          	sll	a5,a5,0x1
    3f6c:	00e787b3          	add	a5,a5,a4
    3f70:	00279793          	sll	a5,a5,0x2
    3f74:	00f687b3          	add	a5,a3,a5
    3f78:	0007a023          	sw	zero,0(a5)
  }
}
    3f7c:	00000013          	nop
    3f80:	01c12403          	lw	s0,28(sp)
    3f84:	02010113          	add	sp,sp,32
    3f88:	00008067          	ret

00003f8c <alt_alarm_stop>:
 * alarms. Alternatively an alarm can unregister itself by returning zero when 
 * the alarm executes.
 */

void alt_alarm_stop (alt_alarm* alarm)
{
    3f8c:	fd010113          	add	sp,sp,-48
    3f90:	02812623          	sw	s0,44(sp)
    3f94:	03010413          	add	s0,sp,48
    3f98:	fca42e23          	sw	a0,-36(s0)
    NIOSV_READ_AND_CLR_CSR(NIOSV_MSTATUS_CSR, context, NIOSV_MSTATUS_MIE_MASK);
    3f9c:	00800793          	li	a5,8
    3fa0:	3007b7f3          	csrrc	a5,mstatus,a5
    3fa4:	fef42623          	sw	a5,-20(s0)
    return context;
    3fa8:	fec42783          	lw	a5,-20(s0)
  alt_irq_context irq_context;

  irq_context = alt_irq_disable_all();
    3fac:	fef42023          	sw	a5,-32(s0)
  alt_llist_remove (&alarm->llist);
    3fb0:	fdc42783          	lw	a5,-36(s0)
    3fb4:	fef42423          	sw	a5,-24(s0)
 * input argument is the element to remove.
 */
     
static ALT_INLINE void ALT_ALWAYS_INLINE alt_llist_remove(alt_llist* entry)
{
  entry->next->previous = entry->previous;
    3fb8:	fe842783          	lw	a5,-24(s0)
    3fbc:	0007a783          	lw	a5,0(a5)
    3fc0:	fe842703          	lw	a4,-24(s0)
    3fc4:	00472703          	lw	a4,4(a4)
    3fc8:	00e7a223          	sw	a4,4(a5)
  entry->previous->next = entry->next;
    3fcc:	fe842783          	lw	a5,-24(s0)
    3fd0:	0047a783          	lw	a5,4(a5)
    3fd4:	fe842703          	lw	a4,-24(s0)
    3fd8:	00072703          	lw	a4,0(a4)
    3fdc:	00e7a023          	sw	a4,0(a5)
  /* 
   * Set the entry to point to itself, so that any further calls to
   * alt_llist_remove() are harmless.
   */

  entry->previous = entry;
    3fe0:	fe842783          	lw	a5,-24(s0)
    3fe4:	fe842703          	lw	a4,-24(s0)
    3fe8:	00e7a223          	sw	a4,4(a5)
  entry->next     = entry;
    3fec:	fe842783          	lw	a5,-24(s0)
    3ff0:	fe842703          	lw	a4,-24(s0)
    3ff4:	00e7a023          	sw	a4,0(a5)
} 
    3ff8:	00000013          	nop
    3ffc:	fe042783          	lw	a5,-32(s0)
    4000:	fef42223          	sw	a5,-28(s0)
    NIOSV_SET_CSR(NIOSV_MSTATUS_CSR, context & NIOSV_MSTATUS_MIE_MASK);
    4004:	fe442783          	lw	a5,-28(s0)
    4008:	0087f793          	and	a5,a5,8
    400c:	3007a073          	csrs	mstatus,a5
}
    4010:	00000013          	nop
  alt_irq_enable_all (irq_context);
}
    4014:	00000013          	nop
    4018:	02c12403          	lw	s0,44(sp)
    401c:	03010113          	add	sp,sp,48
    4020:	00008067          	ret

00004024 <alt_tick>:
 * 
 * alt_tick() is expected to run at interrupt level.
 */

void alt_tick (void)
{
    4024:	fe010113          	add	sp,sp,-32
    4028:	00112e23          	sw	ra,28(sp)
    402c:	00812c23          	sw	s0,24(sp)
    4030:	01212a23          	sw	s2,20(sp)
    4034:	01312823          	sw	s3,16(sp)
    4038:	02010413          	add	s0,sp,32
  alt_alarm* next;
  alt_alarm* alarm = (alt_alarm*) alt_alarm_list.next;
    403c:	82018793          	add	a5,gp,-2016 # 9f88 <alt_alarm_list>
    4040:	0007a783          	lw	a5,0(a5)
    4044:	fef42223          	sw	a5,-28(s0)

  alt_u32    next_callback;

  /* update the tick counter */

  _alt_nticks++;
    4048:	0000b7b7          	lui	a5,0xb
    404c:	7807a703          	lw	a4,1920(a5) # b780 <_alt_nticks>
    4050:	7847a783          	lw	a5,1924(a5)
    4054:	00100513          	li	a0,1
    4058:	00000593          	li	a1,0
    405c:	00a70633          	add	a2,a4,a0
    4060:	00060813          	mv	a6,a2
    4064:	00e83833          	sltu	a6,a6,a4
    4068:	00b786b3          	add	a3,a5,a1
    406c:	00d807b3          	add	a5,a6,a3
    4070:	00078693          	mv	a3,a5
    4074:	00060713          	mv	a4,a2
    4078:	00068793          	mv	a5,a3
    407c:	0000b6b7          	lui	a3,0xb
    4080:	78e6a023          	sw	a4,1920(a3) # b780 <_alt_nticks>
    4084:	78f6a223          	sw	a5,1924(a3)
 
  /* process the registered callbacks */

  while (alarm != (alt_alarm*) &alt_alarm_list)
    4088:	0c80006f          	j	4150 <alt_tick+0x12c>
  {
    next = (alt_alarm*) alarm->llist.next;
    408c:	fe442783          	lw	a5,-28(s0)
    4090:	0007a783          	lw	a5,0(a5)
    4094:	fef42423          	sw	a5,-24(s0)
    
    /* if the alarm period has expired, make the callback */    
    if (alarm->time <= _alt_nticks)
    4098:	fe442783          	lw	a5,-28(s0)
    409c:	0087a603          	lw	a2,8(a5)
    40a0:	00c7a683          	lw	a3,12(a5)
    40a4:	0000b7b7          	lui	a5,0xb
    40a8:	7807a703          	lw	a4,1920(a5) # b780 <_alt_nticks>
    40ac:	7847a783          	lw	a5,1924(a5)
    40b0:	00068513          	mv	a0,a3
    40b4:	00078593          	mv	a1,a5
    40b8:	08a5e863          	bltu	a1,a0,4148 <alt_tick+0x124>
    40bc:	00068513          	mv	a0,a3
    40c0:	00078593          	mv	a1,a5
    40c4:	00b51863          	bne	a0,a1,40d4 <alt_tick+0xb0>
    40c8:	00060693          	mv	a3,a2
    40cc:	00070793          	mv	a5,a4
    40d0:	06d7ec63          	bltu	a5,a3,4148 <alt_tick+0x124>
    {
      next_callback = alarm->callback (alarm->context);
    40d4:	fe442783          	lw	a5,-28(s0)
    40d8:	0107a783          	lw	a5,16(a5)
    40dc:	fe442703          	lw	a4,-28(s0)
    40e0:	01472703          	lw	a4,20(a4)
    40e4:	00070513          	mv	a0,a4
    40e8:	000780e7          	jalr	a5
    40ec:	fea42623          	sw	a0,-20(s0)

      /* deactivate the alarm if the return value is zero */

      if (next_callback == 0)
    40f0:	fec42783          	lw	a5,-20(s0)
    40f4:	00079863          	bnez	a5,4104 <alt_tick+0xe0>
      {
        alt_alarm_stop (alarm);
    40f8:	fe442503          	lw	a0,-28(s0)
    40fc:	e91ff0ef          	jal	3f8c <alt_alarm_stop>
    4100:	0480006f          	j	4148 <alt_tick+0x124>
      }
      else
      {
        alarm->time += next_callback;
    4104:	fe442783          	lw	a5,-28(s0)
    4108:	0087a703          	lw	a4,8(a5)
    410c:	00c7a783          	lw	a5,12(a5)
    4110:	fec42683          	lw	a3,-20(s0)
    4114:	00068913          	mv	s2,a3
    4118:	00000993          	li	s3,0
    411c:	01270633          	add	a2,a4,s2
    4120:	00060593          	mv	a1,a2
    4124:	00e5b5b3          	sltu	a1,a1,a4
    4128:	013786b3          	add	a3,a5,s3
    412c:	00d587b3          	add	a5,a1,a3
    4130:	00078693          	mv	a3,a5
    4134:	00060713          	mv	a4,a2
    4138:	00068793          	mv	a5,a3
    413c:	fe442683          	lw	a3,-28(s0)
    4140:	00e6a423          	sw	a4,8(a3)
    4144:	00f6a623          	sw	a5,12(a3)
      }
    }
    alarm = next;
    4148:	fe842783          	lw	a5,-24(s0)
    414c:	fef42223          	sw	a5,-28(s0)
  while (alarm != (alt_alarm*) &alt_alarm_list)
    4150:	fe442703          	lw	a4,-28(s0)
    4154:	82018793          	add	a5,gp,-2016 # 9f88 <alt_alarm_list>
    4158:	f2f71ae3          	bne	a4,a5,408c <alt_tick+0x68>

  /* 
   * Update the operating system specific timer facilities.
   */

  ALT_OS_TIME_TICK();
    415c:	00000013          	nop
}
    4160:	00000013          	nop
    4164:	01c12083          	lw	ra,28(sp)
    4168:	01812403          	lw	s0,24(sp)
    416c:	01412903          	lw	s2,20(sp)
    4170:	01012983          	lw	s3,16(sp)
    4174:	02010113          	add	sp,sp,32
    4178:	00008067          	ret

0000417c <intel_niosv_irq_init>:
/*
 * To initialize the internal interrupt controller, just clear the mie
 * register so that all possible IRQs are disabled.
 */
void intel_niosv_irq_init(void) 
{
    417c:	ff010113          	add	sp,sp,-16
    4180:	00812623          	sw	s0,12(sp)
    4184:	01010413          	add	s0,sp,16
#if ALT_HAS_IRQ_SUPPORT
    NIOSV_CLR_CSR(NIOSV_MIE_CSR, NIOSV_MIE_MASK);
    4188:	fff00793          	li	a5,-1
    418c:	3047b073          	csrc	mie,a5
    NIOSV_WRITE_CSR(NIOSV_MTVEC_CSR, (alt_u32) &VIC_VECTOR_TABLE | ALT_CPU_INT_MODE_VIC);
#endif /* ALT_CPU_INT_MODE == ALT_CPU_INT_MODE_VIC */
#endif /* ALT_CPU_INT_MODE */

#endif
}
    4190:	00000013          	nop
    4194:	00c12403          	lw	s0,12(sp)
    4198:	01010113          	add	sp,sp,16
    419c:	00008067          	ret

000041a0 <alt_timestamp_start>:
#define INTEL_NIOSV_TIMER_DEVICE_TYPE 2

#if (ALT_TIMESTAMP_CLK_TIMER_DEVICE_TYPE == INTEL_NIOSV_TIMER_DEVICE_TYPE)
alt_u64 alt_niosv_timestamp_offset = 0;

int alt_timestamp_start() {
    41a0:	ff010113          	add	sp,sp,-16
    41a4:	00112623          	sw	ra,12(sp)
    41a8:	00812423          	sw	s0,8(sp)
    41ac:	01010413          	add	s0,sp,16
void alt_niosv_timer_sc_isr(alt_u32 cause, alt_u32 epc, alt_u32 tval);

extern alt_u64 alt_niosv_timestamp_offset;

static ALT_INLINE int ALT_ALWAYS_INLINE alt_niosv_timer_timestamp_start() {
    alt_niosv_timestamp_offset = alt_niosv_mtime_get();
    41b0:	0ac000ef          	jal	425c <alt_niosv_mtime_get>
    41b4:	00050713          	mv	a4,a0
    41b8:	00058793          	mv	a5,a1
    41bc:	0000b6b7          	lui	a3,0xb
    41c0:	78e6a423          	sw	a4,1928(a3) # b788 <alt_niosv_timestamp_offset>
    41c4:	78f6a623          	sw	a5,1932(a3)
    return 0;
    41c8:	00000793          	li	a5,0
    return alt_niosv_timer_timestamp_start();
}
    41cc:	00078513          	mv	a0,a5
    41d0:	00c12083          	lw	ra,12(sp)
    41d4:	00812403          	lw	s0,8(sp)
    41d8:	01010113          	add	sp,sp,16
    41dc:	00008067          	ret

000041e0 <alt_timestamp>:

alt_timestamp_type alt_timestamp() {
    41e0:	ff010113          	add	sp,sp,-16
    41e4:	00112623          	sw	ra,12(sp)
    41e8:	00812423          	sw	s0,8(sp)
    41ec:	01010413          	add	s0,sp,16
}

static ALT_INLINE alt_u64 ALT_ALWAYS_INLINE alt_niosv_timer_timestamp() {
    return alt_niosv_mtime_get() - alt_niosv_timestamp_offset;
    41f0:	06c000ef          	jal	425c <alt_niosv_mtime_get>
    41f4:	00050613          	mv	a2,a0
    41f8:	00058693          	mv	a3,a1
    41fc:	0000b7b7          	lui	a5,0xb
    4200:	7887a503          	lw	a0,1928(a5) # b788 <alt_niosv_timestamp_offset>
    4204:	78c7a583          	lw	a1,1932(a5)
    4208:	40a60733          	sub	a4,a2,a0
    420c:	00070813          	mv	a6,a4
    4210:	01063833          	sltu	a6,a2,a6
    4214:	40b687b3          	sub	a5,a3,a1
    4218:	410786b3          	sub	a3,a5,a6
    421c:	00068793          	mv	a5,a3
    return alt_niosv_timer_timestamp();
}
    4220:	00070513          	mv	a0,a4
    4224:	00078593          	mv	a1,a5
    4228:	00c12083          	lw	ra,12(sp)
    422c:	00812403          	lw	s0,8(sp)
    4230:	01010113          	add	sp,sp,16
    4234:	00008067          	ret

00004238 <alt_timestamp_freq>:

alt_u32 alt_timestamp_freq() {
    4238:	ff010113          	add	sp,sp,-16
    423c:	00812623          	sw	s0,12(sp)
    4240:	01010413          	add	s0,sp,16
}

static ALT_INLINE alt_u32 ALT_ALWAYS_INLINE alt_niosv_timer_timestamp_freq() {
    return ALT_CPU_CPU_FREQ;
    4244:	02faf7b7          	lui	a5,0x2faf
    4248:	08078793          	add	a5,a5,128 # 2faf080 <__alt_data_end+0x2f8f080>
    return alt_niosv_timer_timestamp_freq();
}
    424c:	00078513          	mv	a0,a5
    4250:	00c12403          	lw	s0,12(sp)
    4254:	01010113          	add	sp,sp,16
    4258:	00008067          	ret

0000425c <alt_niosv_mtime_get>:
#endif

alt_u64 alt_niosv_mtime_get() {
    425c:	fe010113          	add	sp,sp,-32
    4260:	00812e23          	sw	s0,28(sp)
    4264:	02010413          	add	s0,sp,32
    alt_u32 lowbits;
    alt_u32 highbits;

    // Guard against rollover while acquiring each word
    do {
        highbits = ALT_VOLATILE_ACCESS((alt_u32 *)(NIOSV_MTIME_ADDR + 4));
    4268:	00030337          	lui	t1,0x30
    426c:	00430313          	add	t1,t1,4 # 30004 <__alt_data_end+0x10004>
    4270:	00032303          	lw	t1,0(t1)
    4274:	fe642423          	sw	t1,-24(s0)
        lowbits = ALT_VOLATILE_ACCESS((alt_u32 *)NIOSV_MTIME_ADDR);
    4278:	00030337          	lui	t1,0x30
    427c:	00032303          	lw	t1,0(t1) # 30000 <__alt_data_end+0x10000>
    4280:	fe642623          	sw	t1,-20(s0)
    } while (ALT_VOLATILE_ACCESS((alt_u32 *)(NIOSV_MTIME_ADDR + 4)) != highbits);
    4284:	00030337          	lui	t1,0x30
    4288:	00430313          	add	t1,t1,4 # 30004 <__alt_data_end+0x10004>
    428c:	00032303          	lw	t1,0(t1)
    4290:	fe842e03          	lw	t3,-24(s0)
    4294:	fc6e1ae3          	bne	t3,t1,4268 <alt_niosv_mtime_get+0xc>

    return (((alt_u64)highbits) << 32) | lowbits;
    4298:	fe842303          	lw	t1,-24(s0)
    429c:	00030813          	mv	a6,t1
    42a0:	00000893          	li	a7,0
    42a4:	00081793          	sll	a5,a6,0x0
    42a8:	00000713          	li	a4,0
    42ac:	fec42803          	lw	a6,-20(s0)
    42b0:	00080613          	mv	a2,a6
    42b4:	00000693          	li	a3,0
    42b8:	00c76533          	or	a0,a4,a2
    42bc:	00d7e5b3          	or	a1,a5,a3
    42c0:	00050713          	mv	a4,a0
    42c4:	00058793          	mv	a5,a1
}
    42c8:	00070513          	mv	a0,a4
    42cc:	00078593          	mv	a1,a5
    42d0:	01c12403          	lw	s0,28(sp)
    42d4:	02010113          	add	sp,sp,32
    42d8:	00008067          	ret

000042dc <alt_niosv_mtimecmp_set>:

void alt_niosv_mtimecmp_set(alt_u64 time) {
    42dc:	fd010113          	add	sp,sp,-48
    42e0:	02812623          	sw	s0,44(sp)
    42e4:	03010413          	add	s0,sp,48
    42e8:	fca42c23          	sw	a0,-40(s0)
    42ec:	fcb42e23          	sw	a1,-36(s0)
    NIOSV_READ_CSR(NIOSV_MHARTID_CSR, mhartid_val);
    42f0:	f14026f3          	csrr	a3,mhartid
    42f4:	fed42623          	sw	a3,-20(s0)
    return mhartid_val;
    42f8:	fec42603          	lw	a2,-20(s0)
    return (alt_u32 *)(NIOSV_MTIMECMP_ADDR + (8 * alt_niosv_read_mhartid()));
    42fc:	000066b7          	lui	a3,0x6
    4300:	00168693          	add	a3,a3,1 # 6001 <_malloc_r+0x389>
    4304:	00d606b3          	add	a3,a2,a3
    4308:	00369693          	sll	a3,a3,0x3
    volatile alt_u32 *const mtimecmp_addr = alt_niosv_get_mtimecmp_addr();
    430c:	fed42423          	sw	a3,-24(s0)

    // Make sure to set the high word to a max value first to prevent triggering inadvertently
    ALT_VOLATILE_ACCESS((alt_u32 *)(mtimecmp_addr + 1)) = 0xFFFFFFFF;
    4310:	fe842683          	lw	a3,-24(s0)
    4314:	00468693          	add	a3,a3,4
    4318:	fff00613          	li	a2,-1
    431c:	00c6a023          	sw	a2,0(a3)
    ALT_VOLATILE_ACCESS(mtimecmp_addr) = (alt_u32)time;
    4320:	fd842603          	lw	a2,-40(s0)
    4324:	fe842683          	lw	a3,-24(s0)
    4328:	00c6a023          	sw	a2,0(a3)
    ALT_VOLATILE_ACCESS((alt_u32 *)(mtimecmp_addr + 1)) = (alt_u32)(time >> 32);
    432c:	fdc42683          	lw	a3,-36(s0)
    4330:	0006d713          	srl	a4,a3,0x0
    4334:	00000793          	li	a5,0
    4338:	fe842683          	lw	a3,-24(s0)
    433c:	00468693          	add	a3,a3,4
    4340:	00070793          	mv	a5,a4
    4344:	00f6a023          	sw	a5,0(a3)
}
    4348:	00000013          	nop
    434c:	02c12403          	lw	s0,44(sp)
    4350:	03010113          	add	sp,sp,48
    4354:	00008067          	ret

00004358 <alt_niosv_mtimecmp_get>:

alt_u64 alt_niosv_mtimecmp_get() {
    4358:	fe010113          	add	sp,sp,-32
    435c:	00812e23          	sw	s0,28(sp)
    4360:	02010413          	add	s0,sp,32
    NIOSV_READ_CSR(NIOSV_MHARTID_CSR, mhartid_val);
    4364:	f1402373          	csrr	t1,mhartid
    4368:	fe642623          	sw	t1,-20(s0)
    return mhartid_val;
    436c:	fec42e03          	lw	t3,-20(s0)
    return (alt_u32 *)(NIOSV_MTIMECMP_ADDR + (8 * alt_niosv_read_mhartid()));
    4370:	00006337          	lui	t1,0x6
    4374:	00130313          	add	t1,t1,1 # 6001 <_malloc_r+0x389>
    4378:	006e0333          	add	t1,t3,t1
    437c:	00331313          	sll	t1,t1,0x3
    volatile alt_u32 *const mtimecmp_addr = alt_niosv_get_mtimecmp_addr();
    4380:	fe642023          	sw	t1,-32(s0)

    alt_u32 lowbits = ALT_VOLATILE_ACCESS(mtimecmp_addr);
    4384:	fe042303          	lw	t1,-32(s0)
    4388:	00032303          	lw	t1,0(t1)
    438c:	fe642223          	sw	t1,-28(s0)
    alt_u32 highbits = ALT_VOLATILE_ACCESS((alt_u32 *)(mtimecmp_addr + 1));
    4390:	fe042303          	lw	t1,-32(s0)
    4394:	00430313          	add	t1,t1,4
    4398:	00032303          	lw	t1,0(t1)
    439c:	fe642423          	sw	t1,-24(s0)
    return (((alt_u64)highbits) << 32) | lowbits;
    43a0:	fe842303          	lw	t1,-24(s0)
    43a4:	00030813          	mv	a6,t1
    43a8:	00000893          	li	a7,0
    43ac:	00081793          	sll	a5,a6,0x0
    43b0:	00000713          	li	a4,0
    43b4:	fe442803          	lw	a6,-28(s0)
    43b8:	00080613          	mv	a2,a6
    43bc:	00000693          	li	a3,0
    43c0:	00c76533          	or	a0,a4,a2
    43c4:	00d7e5b3          	or	a1,a5,a3
    43c8:	00050713          	mv	a4,a0
    43cc:	00058793          	mv	a5,a1
}
    43d0:	00070513          	mv	a0,a4
    43d4:	00078593          	mv	a1,a5
    43d8:	01c12403          	lw	s0,28(sp)
    43dc:	02010113          	add	sp,sp,32
    43e0:	00008067          	ret

000043e4 <alt_niosv_timer_sc_isr>:
// Let's the OS port handles the machine timer configuration and interrupt if
// the OS port has it (ex: FreeRTOS).
void alt_niosv_timer_sc_isr(alt_u32 cause, alt_u32 epc, alt_u32 tval) {}
void alt_niosv_mtimecmp_interrupt_init() {}
#else
void alt_niosv_timer_sc_isr(alt_u32 cause, alt_u32 epc, alt_u32 tval) {
    43e4:	fc010113          	add	sp,sp,-64
    43e8:	02112e23          	sw	ra,60(sp)
    43ec:	02812c23          	sw	s0,56(sp)
    43f0:	04010413          	add	s0,sp,64
    43f4:	fca42623          	sw	a0,-52(s0)
    43f8:	fcb42423          	sw	a1,-56(s0)
    43fc:	fcc42223          	sw	a2,-60(s0)
    // Schedule the next interrupt.  This is done first since who knows how long
    // the following code takes, and the contract is ticks per second, irrespective
    // of how long a given clock tick may take.

    alt_u64 curr_time = alt_niosv_mtime_get();
    4400:	e5dff0ef          	jal	425c <alt_niosv_mtime_get>
    4404:	fea42423          	sw	a0,-24(s0)
    4408:	feb42623          	sw	a1,-20(s0)
    alt_niosv_mtimecmp_set(curr_time + MTIMECMP_DELTA_AMT);
    440c:	fe842703          	lw	a4,-24(s0)
    4410:	fec42783          	lw	a5,-20(s0)
    4414:	0000c537          	lui	a0,0xc
    4418:	35050513          	add	a0,a0,848 # c350 <__alt_heap_start+0x810>
    441c:	00000593          	li	a1,0
    4420:	00a70633          	add	a2,a4,a0
    4424:	00060813          	mv	a6,a2
    4428:	00e83833          	sltu	a6,a6,a4
    442c:	00b786b3          	add	a3,a5,a1
    4430:	00d807b3          	add	a5,a6,a3
    4434:	00078693          	mv	a3,a5
    4438:	00060713          	mv	a4,a2
    443c:	00068793          	mv	a5,a3
    4440:	00070513          	mv	a0,a4
    4444:	00078593          	mv	a1,a5
    4448:	e95ff0ef          	jal	42dc <alt_niosv_mtimecmp_set>
    NIOSV_READ_AND_CLR_CSR(NIOSV_MSTATUS_CSR, context, NIOSV_MSTATUS_MIE_MASK);
    444c:	00800793          	li	a5,8
    4450:	3007b7f3          	csrrc	a5,mstatus,a5
    4454:	fef42223          	sw	a5,-28(s0)
    return context;
    4458:	fe442783          	lw	a5,-28(s0)

    /* 
    * Notify the system of a clock tick. disable interrupts 
    * during this time to safely support ISR preemption
    */
    alt_irq_context cpu_sr = alt_irq_disable_all();
    445c:	fcf42e23          	sw	a5,-36(s0)
    alt_tick();
    4460:	bc5ff0ef          	jal	4024 <alt_tick>
    4464:	fdc42783          	lw	a5,-36(s0)
    4468:	fef42023          	sw	a5,-32(s0)
    NIOSV_SET_CSR(NIOSV_MSTATUS_CSR, context & NIOSV_MSTATUS_MIE_MASK);
    446c:	fe042783          	lw	a5,-32(s0)
    4470:	0087f793          	and	a5,a5,8
    4474:	3007a073          	csrs	mstatus,a5
}
    4478:	00000013          	nop
    alt_irq_enable_all(cpu_sr);
}
    447c:	00000013          	nop
    4480:	03c12083          	lw	ra,60(sp)
    4484:	03812403          	lw	s0,56(sp)
    4488:	04010113          	add	sp,sp,64
    448c:	00008067          	ret

00004490 <alt_niosv_mtimecmp_interrupt_init>:

void alt_niosv_mtimecmp_interrupt_init() {
    4490:	fe010113          	add	sp,sp,-32
    4494:	00112e23          	sw	ra,28(sp)
    4498:	00812c23          	sw	s0,24(sp)
    449c:	02010413          	add	s0,sp,32
    alt_u64 curr_time = alt_niosv_mtime_get();
    44a0:	dbdff0ef          	jal	425c <alt_niosv_mtime_get>
    44a4:	fea42423          	sw	a0,-24(s0)
    44a8:	feb42623          	sw	a1,-20(s0)
    alt_niosv_mtimecmp_set(curr_time + MTIMECMP_DELTA_AMT);
    44ac:	fe842703          	lw	a4,-24(s0)
    44b0:	fec42783          	lw	a5,-20(s0)
    44b4:	0000c537          	lui	a0,0xc
    44b8:	35050513          	add	a0,a0,848 # c350 <__alt_heap_start+0x810>
    44bc:	00000593          	li	a1,0
    44c0:	00a70633          	add	a2,a4,a0
    44c4:	00060813          	mv	a6,a2
    44c8:	00e83833          	sltu	a6,a6,a4
    44cc:	00b786b3          	add	a3,a5,a1
    44d0:	00d807b3          	add	a5,a6,a3
    44d4:	00078693          	mv	a3,a5
    44d8:	00060713          	mv	a4,a2
    44dc:	00068793          	mv	a5,a3
    44e0:	00070513          	mv	a0,a4
    44e4:	00078593          	mv	a1,a5
    44e8:	df5ff0ef          	jal	42dc <alt_niosv_mtimecmp_set>
    NIOSV_SET_CSR(NIOSV_MIE_CSR, (0x1 << NIOSV_TIMER_IRQ));
    44ec:	08000793          	li	a5,128
    44f0:	3047a073          	csrs	mie,a5
}
    44f4:	00000013          	nop
    alt_niosv_enable_timer_interrupt();
}
    44f8:	00000013          	nop
    44fc:	01c12083          	lw	ra,28(sp)
    4500:	01812403          	lw	s0,24(sp)
    4504:	02010113          	add	sp,sp,32
    4508:	00008067          	ret

0000450c <atexit>:
    450c:	00050593          	mv	a1,a0
    4510:	00000693          	li	a3,0
    4514:	00000613          	li	a2,0
    4518:	00000513          	li	a0,0
    451c:	0a40106f          	j	55c0 <__register_exitproc>

00004520 <exit>:
    4520:	ff010113          	add	sp,sp,-16
    4524:	00000593          	li	a1,0
    4528:	00812423          	sw	s0,8(sp)
    452c:	00112623          	sw	ra,12(sp)
    4530:	00050413          	mv	s0,a0
    4534:	178010ef          	jal	56ac <__call_exitprocs>
    4538:	00007797          	auipc	a5,0x7
    453c:	2587a783          	lw	a5,600(a5) # b790 <__stdio_exit_handler>
    4540:	00078463          	beqz	a5,4548 <exit+0x28>
    4544:	000780e7          	jalr	a5
    4548:	00040513          	mv	a0,s0
    454c:	518030ef          	jal	7a64 <_exit>

00004550 <stdio_exit_handler>:
    4550:	00005617          	auipc	a2,0x5
    4554:	4e060613          	add	a2,a2,1248 # 9a30 <__sglue>
    4558:	00002597          	auipc	a1,0x2
    455c:	f1458593          	add	a1,a1,-236 # 646c <_fclose_r>
    4560:	00005517          	auipc	a0,0x5
    4564:	4e050513          	add	a0,a0,1248 # 9a40 <_impure_data>
    4568:	4cc0006f          	j	4a34 <_fwalk_sglue>

0000456c <cleanup_stdio>:
    456c:	00452583          	lw	a1,4(a0)
    4570:	ff010113          	add	sp,sp,-16
    4574:	00812423          	sw	s0,8(sp)
    4578:	00112623          	sw	ra,12(sp)
    457c:	00007797          	auipc	a5,0x7
    4580:	2d478793          	add	a5,a5,724 # b850 <__sf>
    4584:	00050413          	mv	s0,a0
    4588:	00f58463          	beq	a1,a5,4590 <cleanup_stdio+0x24>
    458c:	6e1010ef          	jal	646c <_fclose_r>
    4590:	00842583          	lw	a1,8(s0)
    4594:	00007797          	auipc	a5,0x7
    4598:	32478793          	add	a5,a5,804 # b8b8 <__sf+0x68>
    459c:	00f58663          	beq	a1,a5,45a8 <cleanup_stdio+0x3c>
    45a0:	00040513          	mv	a0,s0
    45a4:	6c9010ef          	jal	646c <_fclose_r>
    45a8:	00c42583          	lw	a1,12(s0)
    45ac:	00007797          	auipc	a5,0x7
    45b0:	37478793          	add	a5,a5,884 # b920 <__sf+0xd0>
    45b4:	00f58c63          	beq	a1,a5,45cc <cleanup_stdio+0x60>
    45b8:	00040513          	mv	a0,s0
    45bc:	00812403          	lw	s0,8(sp)
    45c0:	00c12083          	lw	ra,12(sp)
    45c4:	01010113          	add	sp,sp,16
    45c8:	6a50106f          	j	646c <_fclose_r>
    45cc:	00c12083          	lw	ra,12(sp)
    45d0:	00812403          	lw	s0,8(sp)
    45d4:	01010113          	add	sp,sp,16
    45d8:	00008067          	ret

000045dc <__fp_lock>:
    45dc:	0645a783          	lw	a5,100(a1)
    45e0:	0017f793          	and	a5,a5,1
    45e4:	00079863          	bnez	a5,45f4 <__fp_lock+0x18>
    45e8:	00c5d783          	lhu	a5,12(a1)
    45ec:	2007f793          	and	a5,a5,512
    45f0:	00078663          	beqz	a5,45fc <__fp_lock+0x20>
    45f4:	00000513          	li	a0,0
    45f8:	00008067          	ret
    45fc:	0585a503          	lw	a0,88(a1)
    4600:	ff010113          	add	sp,sp,-16
    4604:	00112623          	sw	ra,12(sp)
    4608:	37d000ef          	jal	5184 <__retarget_lock_acquire_recursive>
    460c:	00c12083          	lw	ra,12(sp)
    4610:	00000513          	li	a0,0
    4614:	01010113          	add	sp,sp,16
    4618:	00008067          	ret

0000461c <__fp_unlock>:
    461c:	0645a783          	lw	a5,100(a1)
    4620:	0017f793          	and	a5,a5,1
    4624:	00079863          	bnez	a5,4634 <__fp_unlock+0x18>
    4628:	00c5d783          	lhu	a5,12(a1)
    462c:	2007f793          	and	a5,a5,512
    4630:	00078663          	beqz	a5,463c <__fp_unlock+0x20>
    4634:	00000513          	li	a0,0
    4638:	00008067          	ret
    463c:	0585a503          	lw	a0,88(a1)
    4640:	ff010113          	add	sp,sp,-16
    4644:	00112623          	sw	ra,12(sp)
    4648:	355000ef          	jal	519c <__retarget_lock_release_recursive>
    464c:	00c12083          	lw	ra,12(sp)
    4650:	00000513          	li	a0,0
    4654:	01010113          	add	sp,sp,16
    4658:	00008067          	ret

0000465c <global_stdio_init.part.0>:
    465c:	fe010113          	add	sp,sp,-32
    4660:	00000797          	auipc	a5,0x0
    4664:	ef078793          	add	a5,a5,-272 # 4550 <stdio_exit_handler>
    4668:	00112e23          	sw	ra,28(sp)
    466c:	00812c23          	sw	s0,24(sp)
    4670:	00912a23          	sw	s1,20(sp)
    4674:	00007417          	auipc	s0,0x7
    4678:	1dc40413          	add	s0,s0,476 # b850 <__sf>
    467c:	01212823          	sw	s2,16(sp)
    4680:	01312623          	sw	s3,12(sp)
    4684:	01412423          	sw	s4,8(sp)
    4688:	00800613          	li	a2,8
    468c:	00000593          	li	a1,0
    4690:	00007717          	auipc	a4,0x7
    4694:	10f72023          	sw	a5,256(a4) # b790 <__stdio_exit_handler>
    4698:	00007517          	auipc	a0,0x7
    469c:	21450513          	add	a0,a0,532 # b8ac <__sf+0x5c>
    46a0:	00400793          	li	a5,4
    46a4:	00f42623          	sw	a5,12(s0)
    46a8:	00042023          	sw	zero,0(s0)
    46ac:	00042223          	sw	zero,4(s0)
    46b0:	00042423          	sw	zero,8(s0)
    46b4:	06042223          	sw	zero,100(s0)
    46b8:	00042823          	sw	zero,16(s0)
    46bc:	00042a23          	sw	zero,20(s0)
    46c0:	00042c23          	sw	zero,24(s0)
    46c4:	3f1000ef          	jal	52b4 <memset>
    46c8:	00000a17          	auipc	s4,0x0
    46cc:	6d4a0a13          	add	s4,s4,1748 # 4d9c <__sread>
    46d0:	00000997          	auipc	s3,0x0
    46d4:	73098993          	add	s3,s3,1840 # 4e00 <__swrite>
    46d8:	00000917          	auipc	s2,0x0
    46dc:	7b090913          	add	s2,s2,1968 # 4e88 <__sseek>
    46e0:	00001497          	auipc	s1,0x1
    46e4:	82048493          	add	s1,s1,-2016 # 4f00 <__sclose>
    46e8:	00007517          	auipc	a0,0x7
    46ec:	1c050513          	add	a0,a0,448 # b8a8 <__sf+0x58>
    46f0:	03442023          	sw	s4,32(s0)
    46f4:	03342223          	sw	s3,36(s0)
    46f8:	03242423          	sw	s2,40(s0)
    46fc:	02942623          	sw	s1,44(s0)
    4700:	00842e23          	sw	s0,28(s0)
    4704:	271000ef          	jal	5174 <__retarget_lock_init_recursive>
    4708:	000107b7          	lui	a5,0x10
    470c:	00878793          	add	a5,a5,8 # 10008 <__alt_heap_start+0x44c8>
    4710:	00800613          	li	a2,8
    4714:	00000593          	li	a1,0
    4718:	00007517          	auipc	a0,0x7
    471c:	1fc50513          	add	a0,a0,508 # b914 <__sf+0xc4>
    4720:	06f42a23          	sw	a5,116(s0)
    4724:	06042423          	sw	zero,104(s0)
    4728:	06042623          	sw	zero,108(s0)
    472c:	06042823          	sw	zero,112(s0)
    4730:	0c042623          	sw	zero,204(s0)
    4734:	06042c23          	sw	zero,120(s0)
    4738:	06042e23          	sw	zero,124(s0)
    473c:	08042023          	sw	zero,128(s0)
    4740:	375000ef          	jal	52b4 <memset>
    4744:	00007797          	auipc	a5,0x7
    4748:	17478793          	add	a5,a5,372 # b8b8 <__sf+0x68>
    474c:	00007517          	auipc	a0,0x7
    4750:	1c450513          	add	a0,a0,452 # b910 <__sf+0xc0>
    4754:	08f42223          	sw	a5,132(s0)
    4758:	09442423          	sw	s4,136(s0)
    475c:	09342623          	sw	s3,140(s0)
    4760:	09242823          	sw	s2,144(s0)
    4764:	08942a23          	sw	s1,148(s0)
    4768:	20d000ef          	jal	5174 <__retarget_lock_init_recursive>
    476c:	000207b7          	lui	a5,0x20
    4770:	01278793          	add	a5,a5,18 # 20012 <__alt_data_end+0x12>
    4774:	00800613          	li	a2,8
    4778:	00000593          	li	a1,0
    477c:	00007517          	auipc	a0,0x7
    4780:	20050513          	add	a0,a0,512 # b97c <__sf+0x12c>
    4784:	0cf42e23          	sw	a5,220(s0)
    4788:	0c042823          	sw	zero,208(s0)
    478c:	0c042a23          	sw	zero,212(s0)
    4790:	0c042c23          	sw	zero,216(s0)
    4794:	12042a23          	sw	zero,308(s0)
    4798:	0e042023          	sw	zero,224(s0)
    479c:	0e042223          	sw	zero,228(s0)
    47a0:	0e042423          	sw	zero,232(s0)
    47a4:	311000ef          	jal	52b4 <memset>
    47a8:	00007797          	auipc	a5,0x7
    47ac:	17878793          	add	a5,a5,376 # b920 <__sf+0xd0>
    47b0:	0f442823          	sw	s4,240(s0)
    47b4:	0f342a23          	sw	s3,244(s0)
    47b8:	0f242c23          	sw	s2,248(s0)
    47bc:	0e942e23          	sw	s1,252(s0)
    47c0:	0ef42623          	sw	a5,236(s0)
    47c4:	01812403          	lw	s0,24(sp)
    47c8:	01c12083          	lw	ra,28(sp)
    47cc:	01412483          	lw	s1,20(sp)
    47d0:	01012903          	lw	s2,16(sp)
    47d4:	00c12983          	lw	s3,12(sp)
    47d8:	00812a03          	lw	s4,8(sp)
    47dc:	00007517          	auipc	a0,0x7
    47e0:	19c50513          	add	a0,a0,412 # b978 <__sf+0x128>
    47e4:	02010113          	add	sp,sp,32
    47e8:	18d0006f          	j	5174 <__retarget_lock_init_recursive>

000047ec <__sfp>:
    47ec:	fe010113          	add	sp,sp,-32
    47f0:	01312623          	sw	s3,12(sp)
    47f4:	00050993          	mv	s3,a0
    47f8:	00007517          	auipc	a0,0x7
    47fc:	fbc50513          	add	a0,a0,-68 # b7b4 <__lock___sfp_recursive_mutex>
    4800:	00112e23          	sw	ra,28(sp)
    4804:	00812c23          	sw	s0,24(sp)
    4808:	00912a23          	sw	s1,20(sp)
    480c:	01212823          	sw	s2,16(sp)
    4810:	175000ef          	jal	5184 <__retarget_lock_acquire_recursive>
    4814:	00007797          	auipc	a5,0x7
    4818:	f7c7a783          	lw	a5,-132(a5) # b790 <__stdio_exit_handler>
    481c:	10078263          	beqz	a5,4920 <__sfp+0x134>
    4820:	00005917          	auipc	s2,0x5
    4824:	21090913          	add	s2,s2,528 # 9a30 <__sglue>
    4828:	fff00493          	li	s1,-1
    482c:	00492783          	lw	a5,4(s2)
    4830:	00892403          	lw	s0,8(s2)
    4834:	fff78793          	add	a5,a5,-1
    4838:	0007d863          	bgez	a5,4848 <__sfp+0x5c>
    483c:	0940006f          	j	48d0 <__sfp+0xe4>
    4840:	06840413          	add	s0,s0,104
    4844:	08978663          	beq	a5,s1,48d0 <__sfp+0xe4>
    4848:	00c41703          	lh	a4,12(s0)
    484c:	fff78793          	add	a5,a5,-1
    4850:	fe0718e3          	bnez	a4,4840 <__sfp+0x54>
    4854:	ffff07b7          	lui	a5,0xffff0
    4858:	00178793          	add	a5,a5,1 # ffff0001 <__alt_data_end+0xfffd0001>
    485c:	00f42623          	sw	a5,12(s0)
    4860:	05840513          	add	a0,s0,88
    4864:	06042223          	sw	zero,100(s0)
    4868:	10d000ef          	jal	5174 <__retarget_lock_init_recursive>
    486c:	00007517          	auipc	a0,0x7
    4870:	f4850513          	add	a0,a0,-184 # b7b4 <__lock___sfp_recursive_mutex>
    4874:	129000ef          	jal	519c <__retarget_lock_release_recursive>
    4878:	00800613          	li	a2,8
    487c:	00042023          	sw	zero,0(s0)
    4880:	00042423          	sw	zero,8(s0)
    4884:	00042223          	sw	zero,4(s0)
    4888:	00042823          	sw	zero,16(s0)
    488c:	00042a23          	sw	zero,20(s0)
    4890:	00042c23          	sw	zero,24(s0)
    4894:	00000593          	li	a1,0
    4898:	05c40513          	add	a0,s0,92
    489c:	219000ef          	jal	52b4 <memset>
    48a0:	02042823          	sw	zero,48(s0)
    48a4:	02042a23          	sw	zero,52(s0)
    48a8:	04042223          	sw	zero,68(s0)
    48ac:	04042423          	sw	zero,72(s0)
    48b0:	01c12083          	lw	ra,28(sp)
    48b4:	00040513          	mv	a0,s0
    48b8:	01812403          	lw	s0,24(sp)
    48bc:	01412483          	lw	s1,20(sp)
    48c0:	01012903          	lw	s2,16(sp)
    48c4:	00c12983          	lw	s3,12(sp)
    48c8:	02010113          	add	sp,sp,32
    48cc:	00008067          	ret
    48d0:	00092403          	lw	s0,0(s2)
    48d4:	00040663          	beqz	s0,48e0 <__sfp+0xf4>
    48d8:	00040913          	mv	s2,s0
    48dc:	f51ff06f          	j	482c <__sfp+0x40>
    48e0:	1ac00593          	li	a1,428
    48e4:	00098513          	mv	a0,s3
    48e8:	390010ef          	jal	5c78 <_malloc_r>
    48ec:	00050413          	mv	s0,a0
    48f0:	02050c63          	beqz	a0,4928 <__sfp+0x13c>
    48f4:	00c50513          	add	a0,a0,12
    48f8:	00400793          	li	a5,4
    48fc:	00042023          	sw	zero,0(s0)
    4900:	00f42223          	sw	a5,4(s0)
    4904:	00a42423          	sw	a0,8(s0)
    4908:	1a000613          	li	a2,416
    490c:	00000593          	li	a1,0
    4910:	1a5000ef          	jal	52b4 <memset>
    4914:	00892023          	sw	s0,0(s2)
    4918:	00040913          	mv	s2,s0
    491c:	f11ff06f          	j	482c <__sfp+0x40>
    4920:	d3dff0ef          	jal	465c <global_stdio_init.part.0>
    4924:	efdff06f          	j	4820 <__sfp+0x34>
    4928:	00092023          	sw	zero,0(s2)
    492c:	00007517          	auipc	a0,0x7
    4930:	e8850513          	add	a0,a0,-376 # b7b4 <__lock___sfp_recursive_mutex>
    4934:	069000ef          	jal	519c <__retarget_lock_release_recursive>
    4938:	00c00793          	li	a5,12
    493c:	00f9a023          	sw	a5,0(s3)
    4940:	f71ff06f          	j	48b0 <__sfp+0xc4>

00004944 <__sinit>:
    4944:	ff010113          	add	sp,sp,-16
    4948:	00812423          	sw	s0,8(sp)
    494c:	00050413          	mv	s0,a0
    4950:	00007517          	auipc	a0,0x7
    4954:	e6450513          	add	a0,a0,-412 # b7b4 <__lock___sfp_recursive_mutex>
    4958:	00112623          	sw	ra,12(sp)
    495c:	029000ef          	jal	5184 <__retarget_lock_acquire_recursive>
    4960:	03442783          	lw	a5,52(s0)
    4964:	00079e63          	bnez	a5,4980 <__sinit+0x3c>
    4968:	00000797          	auipc	a5,0x0
    496c:	c0478793          	add	a5,a5,-1020 # 456c <cleanup_stdio>
    4970:	02f42a23          	sw	a5,52(s0)
    4974:	00007797          	auipc	a5,0x7
    4978:	e1c7a783          	lw	a5,-484(a5) # b790 <__stdio_exit_handler>
    497c:	00078e63          	beqz	a5,4998 <__sinit+0x54>
    4980:	00812403          	lw	s0,8(sp)
    4984:	00c12083          	lw	ra,12(sp)
    4988:	00007517          	auipc	a0,0x7
    498c:	e2c50513          	add	a0,a0,-468 # b7b4 <__lock___sfp_recursive_mutex>
    4990:	01010113          	add	sp,sp,16
    4994:	0090006f          	j	519c <__retarget_lock_release_recursive>
    4998:	cc5ff0ef          	jal	465c <global_stdio_init.part.0>
    499c:	00812403          	lw	s0,8(sp)
    49a0:	00c12083          	lw	ra,12(sp)
    49a4:	00007517          	auipc	a0,0x7
    49a8:	e1050513          	add	a0,a0,-496 # b7b4 <__lock___sfp_recursive_mutex>
    49ac:	01010113          	add	sp,sp,16
    49b0:	7ec0006f          	j	519c <__retarget_lock_release_recursive>

000049b4 <__sfp_lock_acquire>:
    49b4:	00007517          	auipc	a0,0x7
    49b8:	e0050513          	add	a0,a0,-512 # b7b4 <__lock___sfp_recursive_mutex>
    49bc:	7c80006f          	j	5184 <__retarget_lock_acquire_recursive>

000049c0 <__sfp_lock_release>:
    49c0:	00007517          	auipc	a0,0x7
    49c4:	df450513          	add	a0,a0,-524 # b7b4 <__lock___sfp_recursive_mutex>
    49c8:	7d40006f          	j	519c <__retarget_lock_release_recursive>

000049cc <__fp_lock_all>:
    49cc:	ff010113          	add	sp,sp,-16
    49d0:	00007517          	auipc	a0,0x7
    49d4:	de450513          	add	a0,a0,-540 # b7b4 <__lock___sfp_recursive_mutex>
    49d8:	00112623          	sw	ra,12(sp)
    49dc:	7a8000ef          	jal	5184 <__retarget_lock_acquire_recursive>
    49e0:	00c12083          	lw	ra,12(sp)
    49e4:	00005617          	auipc	a2,0x5
    49e8:	04c60613          	add	a2,a2,76 # 9a30 <__sglue>
    49ec:	00000597          	auipc	a1,0x0
    49f0:	bf058593          	add	a1,a1,-1040 # 45dc <__fp_lock>
    49f4:	00000513          	li	a0,0
    49f8:	01010113          	add	sp,sp,16
    49fc:	0380006f          	j	4a34 <_fwalk_sglue>

00004a00 <__fp_unlock_all>:
    4a00:	ff010113          	add	sp,sp,-16
    4a04:	00005617          	auipc	a2,0x5
    4a08:	02c60613          	add	a2,a2,44 # 9a30 <__sglue>
    4a0c:	00000597          	auipc	a1,0x0
    4a10:	c1058593          	add	a1,a1,-1008 # 461c <__fp_unlock>
    4a14:	00000513          	li	a0,0
    4a18:	00112623          	sw	ra,12(sp)
    4a1c:	018000ef          	jal	4a34 <_fwalk_sglue>
    4a20:	00c12083          	lw	ra,12(sp)
    4a24:	00007517          	auipc	a0,0x7
    4a28:	d9050513          	add	a0,a0,-624 # b7b4 <__lock___sfp_recursive_mutex>
    4a2c:	01010113          	add	sp,sp,16
    4a30:	76c0006f          	j	519c <__retarget_lock_release_recursive>

00004a34 <_fwalk_sglue>:
    4a34:	fd010113          	add	sp,sp,-48
    4a38:	03212023          	sw	s2,32(sp)
    4a3c:	01312e23          	sw	s3,28(sp)
    4a40:	01412c23          	sw	s4,24(sp)
    4a44:	01512a23          	sw	s5,20(sp)
    4a48:	01612823          	sw	s6,16(sp)
    4a4c:	01712623          	sw	s7,12(sp)
    4a50:	02112623          	sw	ra,44(sp)
    4a54:	02812423          	sw	s0,40(sp)
    4a58:	02912223          	sw	s1,36(sp)
    4a5c:	00050b13          	mv	s6,a0
    4a60:	00058b93          	mv	s7,a1
    4a64:	00060a93          	mv	s5,a2
    4a68:	00000a13          	li	s4,0
    4a6c:	00100993          	li	s3,1
    4a70:	fff00913          	li	s2,-1
    4a74:	004aa483          	lw	s1,4(s5)
    4a78:	008aa403          	lw	s0,8(s5)
    4a7c:	fff48493          	add	s1,s1,-1
    4a80:	0204c863          	bltz	s1,4ab0 <_fwalk_sglue+0x7c>
    4a84:	00c45783          	lhu	a5,12(s0)
    4a88:	00f9fe63          	bgeu	s3,a5,4aa4 <_fwalk_sglue+0x70>
    4a8c:	00e41783          	lh	a5,14(s0)
    4a90:	00040593          	mv	a1,s0
    4a94:	000b0513          	mv	a0,s6
    4a98:	01278663          	beq	a5,s2,4aa4 <_fwalk_sglue+0x70>
    4a9c:	000b80e7          	jalr	s7
    4aa0:	00aa6a33          	or	s4,s4,a0
    4aa4:	fff48493          	add	s1,s1,-1
    4aa8:	06840413          	add	s0,s0,104
    4aac:	fd249ce3          	bne	s1,s2,4a84 <_fwalk_sglue+0x50>
    4ab0:	000aaa83          	lw	s5,0(s5)
    4ab4:	fc0a90e3          	bnez	s5,4a74 <_fwalk_sglue+0x40>
    4ab8:	02c12083          	lw	ra,44(sp)
    4abc:	02812403          	lw	s0,40(sp)
    4ac0:	02412483          	lw	s1,36(sp)
    4ac4:	02012903          	lw	s2,32(sp)
    4ac8:	01c12983          	lw	s3,28(sp)
    4acc:	01412a83          	lw	s5,20(sp)
    4ad0:	01012b03          	lw	s6,16(sp)
    4ad4:	00c12b83          	lw	s7,12(sp)
    4ad8:	000a0513          	mv	a0,s4
    4adc:	01812a03          	lw	s4,24(sp)
    4ae0:	03010113          	add	sp,sp,48
    4ae4:	00008067          	ret

00004ae8 <_putchar_r>:
    4ae8:	00852603          	lw	a2,8(a0)
    4aec:	1680206f          	j	6c54 <_putc_r>

00004af0 <putchar>:
    4af0:	8281a783          	lw	a5,-2008(gp) # 9f90 <_impure_ptr>
    4af4:	0087a603          	lw	a2,8(a5)
    4af8:	00050593          	mv	a1,a0
    4afc:	00078513          	mv	a0,a5
    4b00:	1540206f          	j	6c54 <_putc_r>

00004b04 <setvbuf>:
    4b04:	fd010113          	add	sp,sp,-48
    4b08:	02812423          	sw	s0,40(sp)
    4b0c:	02912223          	sw	s1,36(sp)
    4b10:	03212023          	sw	s2,32(sp)
    4b14:	01312e23          	sw	s3,28(sp)
    4b18:	01412c23          	sw	s4,24(sp)
    4b1c:	02112623          	sw	ra,44(sp)
    4b20:	8281aa03          	lw	s4,-2008(gp) # 9f90 <_impure_ptr>
    4b24:	00050413          	mv	s0,a0
    4b28:	00058913          	mv	s2,a1
    4b2c:	00060993          	mv	s3,a2
    4b30:	00068493          	mv	s1,a3
    4b34:	000a0663          	beqz	s4,4b40 <setvbuf+0x3c>
    4b38:	034a2783          	lw	a5,52(s4)
    4b3c:	20078a63          	beqz	a5,4d50 <setvbuf+0x24c>
    4b40:	00200793          	li	a5,2
    4b44:	00f98863          	beq	s3,a5,4b54 <setvbuf+0x50>
    4b48:	00100793          	li	a5,1
    4b4c:	2137e863          	bltu	a5,s3,4d5c <setvbuf+0x258>
    4b50:	2004c663          	bltz	s1,4d5c <setvbuf+0x258>
    4b54:	06442783          	lw	a5,100(s0)
    4b58:	0017f793          	and	a5,a5,1
    4b5c:	10078863          	beqz	a5,4c6c <setvbuf+0x168>
    4b60:	00040593          	mv	a1,s0
    4b64:	000a0513          	mv	a0,s4
    4b68:	4cd010ef          	jal	6834 <_fflush_r>
    4b6c:	03042583          	lw	a1,48(s0)
    4b70:	00058c63          	beqz	a1,4b88 <setvbuf+0x84>
    4b74:	04040793          	add	a5,s0,64
    4b78:	00f58663          	beq	a1,a5,4b84 <setvbuf+0x80>
    4b7c:	000a0513          	mv	a0,s4
    4b80:	5d9000ef          	jal	5958 <_free_r>
    4b84:	02042823          	sw	zero,48(s0)
    4b88:	00c41783          	lh	a5,12(s0)
    4b8c:	00042c23          	sw	zero,24(s0)
    4b90:	00042223          	sw	zero,4(s0)
    4b94:	0807f713          	and	a4,a5,128
    4b98:	14071263          	bnez	a4,4cdc <setvbuf+0x1d8>
    4b9c:	fffff737          	lui	a4,0xfffff
    4ba0:	35c70713          	add	a4,a4,860 # fffff35c <__alt_data_end+0xfffdf35c>
    4ba4:	00e7f7b3          	and	a5,a5,a4
    4ba8:	00f41623          	sh	a5,12(s0)
    4bac:	00200713          	li	a4,2
    4bb0:	14e98a63          	beq	s3,a4,4d04 <setvbuf+0x200>
    4bb4:	00c10693          	add	a3,sp,12
    4bb8:	00810613          	add	a2,sp,8
    4bbc:	00040593          	mv	a1,s0
    4bc0:	000a0513          	mv	a0,s4
    4bc4:	7b9010ef          	jal	6b7c <__swhatbuf_r>
    4bc8:	00c45783          	lhu	a5,12(s0)
    4bcc:	00a7e7b3          	or	a5,a5,a0
    4bd0:	00f41623          	sh	a5,12(s0)
    4bd4:	0a048863          	beqz	s1,4c84 <setvbuf+0x180>
    4bd8:	0a090863          	beqz	s2,4c88 <setvbuf+0x184>
    4bdc:	034a2783          	lw	a5,52(s4)
    4be0:	0c078663          	beqz	a5,4cac <setvbuf+0x1a8>
    4be4:	00812703          	lw	a4,8(sp)
    4be8:	00c41783          	lh	a5,12(s0)
    4bec:	00970a63          	beq	a4,s1,4c00 <setvbuf+0xfc>
    4bf0:	00001737          	lui	a4,0x1
    4bf4:	80070713          	add	a4,a4,-2048 # 800 <alt_main+0x20>
    4bf8:	00e7e7b3          	or	a5,a5,a4
    4bfc:	00f41623          	sh	a5,12(s0)
    4c00:	00100713          	li	a4,1
    4c04:	00e99663          	bne	s3,a4,4c10 <setvbuf+0x10c>
    4c08:	0017e793          	or	a5,a5,1
    4c0c:	00f41623          	sh	a5,12(s0)
    4c10:	01242023          	sw	s2,0(s0)
    4c14:	01242823          	sw	s2,16(s0)
    4c18:	00942a23          	sw	s1,20(s0)
    4c1c:	0087f713          	and	a4,a5,8
    4c20:	08070c63          	beqz	a4,4cb8 <setvbuf+0x1b4>
    4c24:	0017f713          	and	a4,a5,1
    4c28:	12070063          	beqz	a4,4d48 <setvbuf+0x244>
    4c2c:	06442703          	lw	a4,100(s0)
    4c30:	409004b3          	neg	s1,s1
    4c34:	00042423          	sw	zero,8(s0)
    4c38:	00942c23          	sw	s1,24(s0)
    4c3c:	00177713          	and	a4,a4,1
    4c40:	08070463          	beqz	a4,4cc8 <setvbuf+0x1c4>
    4c44:	00000493          	li	s1,0
    4c48:	02c12083          	lw	ra,44(sp)
    4c4c:	02812403          	lw	s0,40(sp)
    4c50:	02012903          	lw	s2,32(sp)
    4c54:	01c12983          	lw	s3,28(sp)
    4c58:	01812a03          	lw	s4,24(sp)
    4c5c:	00048513          	mv	a0,s1
    4c60:	02412483          	lw	s1,36(sp)
    4c64:	03010113          	add	sp,sp,48
    4c68:	00008067          	ret
    4c6c:	00c45783          	lhu	a5,12(s0)
    4c70:	2007f793          	and	a5,a5,512
    4c74:	ee0796e3          	bnez	a5,4b60 <setvbuf+0x5c>
    4c78:	05842503          	lw	a0,88(s0)
    4c7c:	508000ef          	jal	5184 <__retarget_lock_acquire_recursive>
    4c80:	ee1ff06f          	j	4b60 <setvbuf+0x5c>
    4c84:	00812483          	lw	s1,8(sp)
    4c88:	00048513          	mv	a0,s1
    4c8c:	7d5000ef          	jal	5c60 <malloc>
    4c90:	00050913          	mv	s2,a0
    4c94:	0c050863          	beqz	a0,4d64 <setvbuf+0x260>
    4c98:	00c45783          	lhu	a5,12(s0)
    4c9c:	0807e793          	or	a5,a5,128
    4ca0:	00f41623          	sh	a5,12(s0)
    4ca4:	034a2783          	lw	a5,52(s4)
    4ca8:	f2079ee3          	bnez	a5,4be4 <setvbuf+0xe0>
    4cac:	000a0513          	mv	a0,s4
    4cb0:	c95ff0ef          	jal	4944 <__sinit>
    4cb4:	f31ff06f          	j	4be4 <setvbuf+0xe0>
    4cb8:	00042423          	sw	zero,8(s0)
    4cbc:	06442703          	lw	a4,100(s0)
    4cc0:	00177713          	and	a4,a4,1
    4cc4:	f80710e3          	bnez	a4,4c44 <setvbuf+0x140>
    4cc8:	2007f793          	and	a5,a5,512
    4ccc:	f6079ce3          	bnez	a5,4c44 <setvbuf+0x140>
    4cd0:	05842503          	lw	a0,88(s0)
    4cd4:	4c8000ef          	jal	519c <__retarget_lock_release_recursive>
    4cd8:	f6dff06f          	j	4c44 <setvbuf+0x140>
    4cdc:	01042583          	lw	a1,16(s0)
    4ce0:	000a0513          	mv	a0,s4
    4ce4:	475000ef          	jal	5958 <_free_r>
    4ce8:	00c41783          	lh	a5,12(s0)
    4cec:	fffff737          	lui	a4,0xfffff
    4cf0:	35c70713          	add	a4,a4,860 # fffff35c <__alt_data_end+0xfffdf35c>
    4cf4:	00e7f7b3          	and	a5,a5,a4
    4cf8:	00f41623          	sh	a5,12(s0)
    4cfc:	00200713          	li	a4,2
    4d00:	eae99ae3          	bne	s3,a4,4bb4 <setvbuf+0xb0>
    4d04:	00000493          	li	s1,0
    4d08:	06442703          	lw	a4,100(s0)
    4d0c:	04340693          	add	a3,s0,67
    4d10:	0027e613          	or	a2,a5,2
    4d14:	00d42023          	sw	a3,0(s0)
    4d18:	00d42823          	sw	a3,16(s0)
    4d1c:	00100693          	li	a3,1
    4d20:	00c41623          	sh	a2,12(s0)
    4d24:	00042423          	sw	zero,8(s0)
    4d28:	00d42a23          	sw	a3,20(s0)
    4d2c:	00177713          	and	a4,a4,1
    4d30:	f0071ce3          	bnez	a4,4c48 <setvbuf+0x144>
    4d34:	2007f793          	and	a5,a5,512
    4d38:	f00798e3          	bnez	a5,4c48 <setvbuf+0x144>
    4d3c:	05842503          	lw	a0,88(s0)
    4d40:	45c000ef          	jal	519c <__retarget_lock_release_recursive>
    4d44:	f05ff06f          	j	4c48 <setvbuf+0x144>
    4d48:	00942423          	sw	s1,8(s0)
    4d4c:	f71ff06f          	j	4cbc <setvbuf+0x1b8>
    4d50:	000a0513          	mv	a0,s4
    4d54:	bf1ff0ef          	jal	4944 <__sinit>
    4d58:	de9ff06f          	j	4b40 <setvbuf+0x3c>
    4d5c:	fff00493          	li	s1,-1
    4d60:	ee9ff06f          	j	4c48 <setvbuf+0x144>
    4d64:	01512a23          	sw	s5,20(sp)
    4d68:	00812a83          	lw	s5,8(sp)
    4d6c:	029a8063          	beq	s5,s1,4d8c <setvbuf+0x288>
    4d70:	000a8513          	mv	a0,s5
    4d74:	6ed000ef          	jal	5c60 <malloc>
    4d78:	00050913          	mv	s2,a0
    4d7c:	000a8493          	mv	s1,s5
    4d80:	00050663          	beqz	a0,4d8c <setvbuf+0x288>
    4d84:	01412a83          	lw	s5,20(sp)
    4d88:	f11ff06f          	j	4c98 <setvbuf+0x194>
    4d8c:	00c41783          	lh	a5,12(s0)
    4d90:	01412a83          	lw	s5,20(sp)
    4d94:	fff00493          	li	s1,-1
    4d98:	f71ff06f          	j	4d08 <setvbuf+0x204>

00004d9c <__sread>:
    4d9c:	ff010113          	add	sp,sp,-16
    4da0:	00812423          	sw	s0,8(sp)
    4da4:	00058413          	mv	s0,a1
    4da8:	00e59583          	lh	a1,14(a1)
    4dac:	00112623          	sw	ra,12(sp)
    4db0:	2f8000ef          	jal	50a8 <_read_r>
    4db4:	02054063          	bltz	a0,4dd4 <__sread+0x38>
    4db8:	05042783          	lw	a5,80(s0)
    4dbc:	00c12083          	lw	ra,12(sp)
    4dc0:	00a787b3          	add	a5,a5,a0
    4dc4:	04f42823          	sw	a5,80(s0)
    4dc8:	00812403          	lw	s0,8(sp)
    4dcc:	01010113          	add	sp,sp,16
    4dd0:	00008067          	ret
    4dd4:	00c45783          	lhu	a5,12(s0)
    4dd8:	fffff737          	lui	a4,0xfffff
    4ddc:	fff70713          	add	a4,a4,-1 # ffffefff <__alt_data_end+0xfffdefff>
    4de0:	00e7f7b3          	and	a5,a5,a4
    4de4:	00c12083          	lw	ra,12(sp)
    4de8:	00f41623          	sh	a5,12(s0)
    4dec:	00812403          	lw	s0,8(sp)
    4df0:	01010113          	add	sp,sp,16
    4df4:	00008067          	ret

00004df8 <__seofread>:
    4df8:	00000513          	li	a0,0
    4dfc:	00008067          	ret

00004e00 <__swrite>:
    4e00:	00c59783          	lh	a5,12(a1)
    4e04:	fe010113          	add	sp,sp,-32
    4e08:	00812c23          	sw	s0,24(sp)
    4e0c:	00912a23          	sw	s1,20(sp)
    4e10:	01212823          	sw	s2,16(sp)
    4e14:	01312623          	sw	s3,12(sp)
    4e18:	00112e23          	sw	ra,28(sp)
    4e1c:	1007f713          	and	a4,a5,256
    4e20:	00058413          	mv	s0,a1
    4e24:	00050493          	mv	s1,a0
    4e28:	00060913          	mv	s2,a2
    4e2c:	00068993          	mv	s3,a3
    4e30:	04071063          	bnez	a4,4e70 <__swrite+0x70>
    4e34:	fffff737          	lui	a4,0xfffff
    4e38:	fff70713          	add	a4,a4,-1 # ffffefff <__alt_data_end+0xfffdefff>
    4e3c:	00e7f7b3          	and	a5,a5,a4
    4e40:	00e41583          	lh	a1,14(s0)
    4e44:	00f41623          	sh	a5,12(s0)
    4e48:	01812403          	lw	s0,24(sp)
    4e4c:	01c12083          	lw	ra,28(sp)
    4e50:	00098693          	mv	a3,s3
    4e54:	00090613          	mv	a2,s2
    4e58:	00c12983          	lw	s3,12(sp)
    4e5c:	01012903          	lw	s2,16(sp)
    4e60:	00048513          	mv	a0,s1
    4e64:	01412483          	lw	s1,20(sp)
    4e68:	02010113          	add	sp,sp,32
    4e6c:	2a00006f          	j	510c <_write_r>
    4e70:	00e59583          	lh	a1,14(a1)
    4e74:	00200693          	li	a3,2
    4e78:	00000613          	li	a2,0
    4e7c:	1c8000ef          	jal	5044 <_lseek_r>
    4e80:	00c41783          	lh	a5,12(s0)
    4e84:	fb1ff06f          	j	4e34 <__swrite+0x34>

00004e88 <__sseek>:
    4e88:	ff010113          	add	sp,sp,-16
    4e8c:	00812423          	sw	s0,8(sp)
    4e90:	00058413          	mv	s0,a1
    4e94:	00e59583          	lh	a1,14(a1)
    4e98:	00112623          	sw	ra,12(sp)
    4e9c:	1a8000ef          	jal	5044 <_lseek_r>
    4ea0:	fff00793          	li	a5,-1
    4ea4:	02f50863          	beq	a0,a5,4ed4 <__sseek+0x4c>
    4ea8:	00c45783          	lhu	a5,12(s0)
    4eac:	00001737          	lui	a4,0x1
    4eb0:	00c12083          	lw	ra,12(sp)
    4eb4:	00e7e7b3          	or	a5,a5,a4
    4eb8:	01079793          	sll	a5,a5,0x10
    4ebc:	4107d793          	sra	a5,a5,0x10
    4ec0:	04a42823          	sw	a0,80(s0)
    4ec4:	00f41623          	sh	a5,12(s0)
    4ec8:	00812403          	lw	s0,8(sp)
    4ecc:	01010113          	add	sp,sp,16
    4ed0:	00008067          	ret
    4ed4:	00c45783          	lhu	a5,12(s0)
    4ed8:	fffff737          	lui	a4,0xfffff
    4edc:	fff70713          	add	a4,a4,-1 # ffffefff <__alt_data_end+0xfffdefff>
    4ee0:	00e7f7b3          	and	a5,a5,a4
    4ee4:	01079793          	sll	a5,a5,0x10
    4ee8:	4107d793          	sra	a5,a5,0x10
    4eec:	00c12083          	lw	ra,12(sp)
    4ef0:	00f41623          	sh	a5,12(s0)
    4ef4:	00812403          	lw	s0,8(sp)
    4ef8:	01010113          	add	sp,sp,16
    4efc:	00008067          	ret

00004f00 <__sclose>:
    4f00:	00e59583          	lh	a1,14(a1)
    4f04:	0040006f          	j	4f08 <_close_r>

00004f08 <_close_r>:
    4f08:	ff010113          	add	sp,sp,-16
    4f0c:	00812423          	sw	s0,8(sp)
    4f10:	00050413          	mv	s0,a0
    4f14:	00058513          	mv	a0,a1
    4f18:	00007797          	auipc	a5,0x7
    4f1c:	8607ae23          	sw	zero,-1924(a5) # b794 <errno>
    4f20:	00112623          	sw	ra,12(sp)
    4f24:	261020ef          	jal	7984 <_close>
    4f28:	fff00793          	li	a5,-1
    4f2c:	00f50a63          	beq	a0,a5,4f40 <_close_r+0x38>
    4f30:	00c12083          	lw	ra,12(sp)
    4f34:	00812403          	lw	s0,8(sp)
    4f38:	01010113          	add	sp,sp,16
    4f3c:	00008067          	ret
    4f40:	00007797          	auipc	a5,0x7
    4f44:	8547a783          	lw	a5,-1964(a5) # b794 <errno>
    4f48:	fe0784e3          	beqz	a5,4f30 <_close_r+0x28>
    4f4c:	00c12083          	lw	ra,12(sp)
    4f50:	00f42023          	sw	a5,0(s0)
    4f54:	00812403          	lw	s0,8(sp)
    4f58:	01010113          	add	sp,sp,16
    4f5c:	00008067          	ret

00004f60 <_reclaim_reent>:
    4f60:	8281a783          	lw	a5,-2008(gp) # 9f90 <_impure_ptr>
    4f64:	0ca78e63          	beq	a5,a0,5040 <_reclaim_reent+0xe0>
    4f68:	04452583          	lw	a1,68(a0)
    4f6c:	fe010113          	add	sp,sp,-32
    4f70:	00912a23          	sw	s1,20(sp)
    4f74:	00112e23          	sw	ra,28(sp)
    4f78:	00812c23          	sw	s0,24(sp)
    4f7c:	00050493          	mv	s1,a0
    4f80:	04058863          	beqz	a1,4fd0 <_reclaim_reent+0x70>
    4f84:	01212823          	sw	s2,16(sp)
    4f88:	01312623          	sw	s3,12(sp)
    4f8c:	00000913          	li	s2,0
    4f90:	08000993          	li	s3,128
    4f94:	012587b3          	add	a5,a1,s2
    4f98:	0007a403          	lw	s0,0(a5)
    4f9c:	00040e63          	beqz	s0,4fb8 <_reclaim_reent+0x58>
    4fa0:	00040593          	mv	a1,s0
    4fa4:	00042403          	lw	s0,0(s0)
    4fa8:	00048513          	mv	a0,s1
    4fac:	1ad000ef          	jal	5958 <_free_r>
    4fb0:	fe0418e3          	bnez	s0,4fa0 <_reclaim_reent+0x40>
    4fb4:	0444a583          	lw	a1,68(s1)
    4fb8:	00490913          	add	s2,s2,4
    4fbc:	fd391ce3          	bne	s2,s3,4f94 <_reclaim_reent+0x34>
    4fc0:	00048513          	mv	a0,s1
    4fc4:	195000ef          	jal	5958 <_free_r>
    4fc8:	01012903          	lw	s2,16(sp)
    4fcc:	00c12983          	lw	s3,12(sp)
    4fd0:	0384a583          	lw	a1,56(s1)
    4fd4:	00058663          	beqz	a1,4fe0 <_reclaim_reent+0x80>
    4fd8:	00048513          	mv	a0,s1
    4fdc:	17d000ef          	jal	5958 <_free_r>
    4fe0:	0404a403          	lw	s0,64(s1)
    4fe4:	00040c63          	beqz	s0,4ffc <_reclaim_reent+0x9c>
    4fe8:	00040593          	mv	a1,s0
    4fec:	00042403          	lw	s0,0(s0)
    4ff0:	00048513          	mv	a0,s1
    4ff4:	165000ef          	jal	5958 <_free_r>
    4ff8:	fe0418e3          	bnez	s0,4fe8 <_reclaim_reent+0x88>
    4ffc:	04c4a583          	lw	a1,76(s1)
    5000:	00058663          	beqz	a1,500c <_reclaim_reent+0xac>
    5004:	00048513          	mv	a0,s1
    5008:	151000ef          	jal	5958 <_free_r>
    500c:	0344a783          	lw	a5,52(s1)
    5010:	00078e63          	beqz	a5,502c <_reclaim_reent+0xcc>
    5014:	01812403          	lw	s0,24(sp)
    5018:	01c12083          	lw	ra,28(sp)
    501c:	00048513          	mv	a0,s1
    5020:	01412483          	lw	s1,20(sp)
    5024:	02010113          	add	sp,sp,32
    5028:	00078067          	jr	a5
    502c:	01c12083          	lw	ra,28(sp)
    5030:	01812403          	lw	s0,24(sp)
    5034:	01412483          	lw	s1,20(sp)
    5038:	02010113          	add	sp,sp,32
    503c:	00008067          	ret
    5040:	00008067          	ret

00005044 <_lseek_r>:
    5044:	ff010113          	add	sp,sp,-16
    5048:	00058713          	mv	a4,a1
    504c:	00812423          	sw	s0,8(sp)
    5050:	00060593          	mv	a1,a2
    5054:	00050413          	mv	s0,a0
    5058:	00068613          	mv	a2,a3
    505c:	00070513          	mv	a0,a4
    5060:	00006797          	auipc	a5,0x6
    5064:	7207aa23          	sw	zero,1844(a5) # b794 <errno>
    5068:	00112623          	sw	ra,12(sp)
    506c:	619020ef          	jal	7e84 <_lseek>
    5070:	fff00793          	li	a5,-1
    5074:	00f50a63          	beq	a0,a5,5088 <_lseek_r+0x44>
    5078:	00c12083          	lw	ra,12(sp)
    507c:	00812403          	lw	s0,8(sp)
    5080:	01010113          	add	sp,sp,16
    5084:	00008067          	ret
    5088:	00006797          	auipc	a5,0x6
    508c:	70c7a783          	lw	a5,1804(a5) # b794 <errno>
    5090:	fe0784e3          	beqz	a5,5078 <_lseek_r+0x34>
    5094:	00c12083          	lw	ra,12(sp)
    5098:	00f42023          	sw	a5,0(s0)
    509c:	00812403          	lw	s0,8(sp)
    50a0:	01010113          	add	sp,sp,16
    50a4:	00008067          	ret

000050a8 <_read_r>:
    50a8:	ff010113          	add	sp,sp,-16
    50ac:	00058713          	mv	a4,a1
    50b0:	00812423          	sw	s0,8(sp)
    50b4:	00060593          	mv	a1,a2
    50b8:	00050413          	mv	s0,a0
    50bc:	00068613          	mv	a2,a3
    50c0:	00070513          	mv	a0,a4
    50c4:	00006797          	auipc	a5,0x6
    50c8:	6c07a823          	sw	zero,1744(a5) # b794 <errno>
    50cc:	00112623          	sw	ra,12(sp)
    50d0:	168030ef          	jal	8238 <_read>
    50d4:	fff00793          	li	a5,-1
    50d8:	00f50a63          	beq	a0,a5,50ec <_read_r+0x44>
    50dc:	00c12083          	lw	ra,12(sp)
    50e0:	00812403          	lw	s0,8(sp)
    50e4:	01010113          	add	sp,sp,16
    50e8:	00008067          	ret
    50ec:	00006797          	auipc	a5,0x6
    50f0:	6a87a783          	lw	a5,1704(a5) # b794 <errno>
    50f4:	fe0784e3          	beqz	a5,50dc <_read_r+0x34>
    50f8:	00c12083          	lw	ra,12(sp)
    50fc:	00f42023          	sw	a5,0(s0)
    5100:	00812403          	lw	s0,8(sp)
    5104:	01010113          	add	sp,sp,16
    5108:	00008067          	ret

0000510c <_write_r>:
    510c:	ff010113          	add	sp,sp,-16
    5110:	00058713          	mv	a4,a1
    5114:	00812423          	sw	s0,8(sp)
    5118:	00060593          	mv	a1,a2
    511c:	00050413          	mv	s0,a0
    5120:	00068613          	mv	a2,a3
    5124:	00070513          	mv	a0,a4
    5128:	00006797          	auipc	a5,0x6
    512c:	6607a623          	sw	zero,1644(a5) # b794 <errno>
    5130:	00112623          	sw	ra,12(sp)
    5134:	304030ef          	jal	8438 <_write>
    5138:	fff00793          	li	a5,-1
    513c:	00f50a63          	beq	a0,a5,5150 <_write_r+0x44>
    5140:	00c12083          	lw	ra,12(sp)
    5144:	00812403          	lw	s0,8(sp)
    5148:	01010113          	add	sp,sp,16
    514c:	00008067          	ret
    5150:	00006797          	auipc	a5,0x6
    5154:	6447a783          	lw	a5,1604(a5) # b794 <errno>
    5158:	fe0784e3          	beqz	a5,5140 <_write_r+0x34>
    515c:	00c12083          	lw	ra,12(sp)
    5160:	00f42023          	sw	a5,0(s0)
    5164:	00812403          	lw	s0,8(sp)
    5168:	01010113          	add	sp,sp,16
    516c:	00008067          	ret

00005170 <__retarget_lock_init>:
    5170:	00008067          	ret

00005174 <__retarget_lock_init_recursive>:
    5174:	00008067          	ret

00005178 <__retarget_lock_close>:
    5178:	00008067          	ret

0000517c <__retarget_lock_close_recursive>:
    517c:	00008067          	ret

00005180 <__retarget_lock_acquire>:
    5180:	00008067          	ret

00005184 <__retarget_lock_acquire_recursive>:
    5184:	00008067          	ret

00005188 <__retarget_lock_try_acquire>:
    5188:	00100513          	li	a0,1
    518c:	00008067          	ret

00005190 <__retarget_lock_try_acquire_recursive>:
    5190:	00100513          	li	a0,1
    5194:	00008067          	ret

00005198 <__retarget_lock_release>:
    5198:	00008067          	ret

0000519c <__retarget_lock_release_recursive>:
    519c:	00008067          	ret

000051a0 <close>:
    51a0:	00050593          	mv	a1,a0
    51a4:	8281a503          	lw	a0,-2008(gp) # 9f90 <_impure_ptr>
    51a8:	d61ff06f          	j	4f08 <_close_r>

000051ac <open>:
    51ac:	fc010113          	add	sp,sp,-64
    51b0:	02c12423          	sw	a2,40(sp)
    51b4:	02d12623          	sw	a3,44(sp)
    51b8:	02f12a23          	sw	a5,52(sp)
    51bc:	00060693          	mv	a3,a2
    51c0:	02810793          	add	a5,sp,40
    51c4:	00058613          	mv	a2,a1
    51c8:	00050593          	mv	a1,a0
    51cc:	8281a503          	lw	a0,-2008(gp) # 9f90 <_impure_ptr>
    51d0:	00112e23          	sw	ra,28(sp)
    51d4:	02e12823          	sw	a4,48(sp)
    51d8:	03012c23          	sw	a6,56(sp)
    51dc:	03112e23          	sw	a7,60(sp)
    51e0:	00f12623          	sw	a5,12(sp)
    51e4:	518020ef          	jal	76fc <_open_r>
    51e8:	01c12083          	lw	ra,28(sp)
    51ec:	04010113          	add	sp,sp,64
    51f0:	00008067          	ret

000051f4 <__stack_chk_fail>:
    51f4:	00003797          	auipc	a5,0x3
    51f8:	5c878793          	add	a5,a5,1480 # 87bc <__fini_array_end+0x6c>
    51fc:	0007af83          	lw	t6,0(a5)
    5200:	0047af03          	lw	t5,4(a5)
    5204:	0087ae83          	lw	t4,8(a5)
    5208:	00c7ae03          	lw	t3,12(a5)
    520c:	0107a303          	lw	t1,16(a5)
    5210:	0147a883          	lw	a7,20(a5)
    5214:	0187a803          	lw	a6,24(a5)
    5218:	0247a683          	lw	a3,36(a5)
    521c:	0287a703          	lw	a4,40(a5)
    5220:	01c7a583          	lw	a1,28(a5)
    5224:	0207a603          	lw	a2,32(a5)
    5228:	02c7c783          	lbu	a5,44(a5)
    522c:	fc010113          	add	sp,sp,-64
    5230:	00010513          	mv	a0,sp
    5234:	02112e23          	sw	ra,60(sp)
    5238:	01f12023          	sw	t6,0(sp)
    523c:	01e12223          	sw	t5,4(sp)
    5240:	01d12423          	sw	t4,8(sp)
    5244:	01c12623          	sw	t3,12(sp)
    5248:	00612823          	sw	t1,16(sp)
    524c:	01112a23          	sw	a7,20(sp)
    5250:	01012c23          	sw	a6,24(sp)
    5254:	02d12223          	sw	a3,36(sp)
    5258:	02e12423          	sw	a4,40(sp)
    525c:	02f10623          	sb	a5,44(sp)
    5260:	00b12e23          	sw	a1,28(sp)
    5264:	02c12023          	sw	a2,32(sp)
    5268:	2cc000ef          	jal	5534 <strlen>
    526c:	00050613          	mv	a2,a0
    5270:	00010593          	mv	a1,sp
    5274:	00200513          	li	a0,2
    5278:	600020ef          	jal	7878 <write>
    527c:	00600513          	li	a0,6
    5280:	120020ef          	jal	73a0 <raise>
    5284:	07f00513          	li	a0,127
    5288:	7dc020ef          	jal	7a64 <_exit>

0000528c <__stack_chk_fail_local>:
    528c:	ff010113          	add	sp,sp,-16
    5290:	00112623          	sw	ra,12(sp)
    5294:	f61ff0ef          	jal	51f4 <__stack_chk_fail>

00005298 <__stack_chk_init>:
    5298:	00006797          	auipc	a5,0x6
    529c:	52078793          	add	a5,a5,1312 # b7b8 <__stack_chk_guard>
    52a0:	0007a703          	lw	a4,0(a5)
    52a4:	00071663          	bnez	a4,52b0 <__stack_chk_init+0x18>
    52a8:	ff0a0737          	lui	a4,0xff0a0
    52ac:	00e7a023          	sw	a4,0(a5)
    52b0:	00008067          	ret

000052b4 <memset>:
    52b4:	00f00313          	li	t1,15
    52b8:	00050713          	mv	a4,a0
    52bc:	02c37e63          	bgeu	t1,a2,52f8 <memset+0x44>
    52c0:	00f77793          	and	a5,a4,15
    52c4:	0a079063          	bnez	a5,5364 <memset+0xb0>
    52c8:	08059263          	bnez	a1,534c <memset+0x98>
    52cc:	ff067693          	and	a3,a2,-16
    52d0:	00f67613          	and	a2,a2,15
    52d4:	00e686b3          	add	a3,a3,a4
    52d8:	00b72023          	sw	a1,0(a4) # ff0a0000 <__alt_data_end+0xff080000>
    52dc:	00b72223          	sw	a1,4(a4)
    52e0:	00b72423          	sw	a1,8(a4)
    52e4:	00b72623          	sw	a1,12(a4)
    52e8:	01070713          	add	a4,a4,16
    52ec:	fed766e3          	bltu	a4,a3,52d8 <memset+0x24>
    52f0:	00061463          	bnez	a2,52f8 <memset+0x44>
    52f4:	00008067          	ret
    52f8:	40c306b3          	sub	a3,t1,a2
    52fc:	00269693          	sll	a3,a3,0x2
    5300:	00000297          	auipc	t0,0x0
    5304:	005686b3          	add	a3,a3,t0
    5308:	00c68067          	jr	12(a3)
    530c:	00b70723          	sb	a1,14(a4)
    5310:	00b706a3          	sb	a1,13(a4)
    5314:	00b70623          	sb	a1,12(a4)
    5318:	00b705a3          	sb	a1,11(a4)
    531c:	00b70523          	sb	a1,10(a4)
    5320:	00b704a3          	sb	a1,9(a4)
    5324:	00b70423          	sb	a1,8(a4)
    5328:	00b703a3          	sb	a1,7(a4)
    532c:	00b70323          	sb	a1,6(a4)
    5330:	00b702a3          	sb	a1,5(a4)
    5334:	00b70223          	sb	a1,4(a4)
    5338:	00b701a3          	sb	a1,3(a4)
    533c:	00b70123          	sb	a1,2(a4)
    5340:	00b700a3          	sb	a1,1(a4)
    5344:	00b70023          	sb	a1,0(a4)
    5348:	00008067          	ret
    534c:	0ff5f593          	zext.b	a1,a1
    5350:	00859693          	sll	a3,a1,0x8
    5354:	00d5e5b3          	or	a1,a1,a3
    5358:	01059693          	sll	a3,a1,0x10
    535c:	00d5e5b3          	or	a1,a1,a3
    5360:	f6dff06f          	j	52cc <memset+0x18>
    5364:	00279693          	sll	a3,a5,0x2
    5368:	00000297          	auipc	t0,0x0
    536c:	005686b3          	add	a3,a3,t0
    5370:	00008293          	mv	t0,ra
    5374:	fa0680e7          	jalr	-96(a3)
    5378:	00028093          	mv	ra,t0
    537c:	ff078793          	add	a5,a5,-16
    5380:	40f70733          	sub	a4,a4,a5
    5384:	00f60633          	add	a2,a2,a5
    5388:	f6c378e3          	bgeu	t1,a2,52f8 <memset+0x44>
    538c:	f3dff06f          	j	52c8 <memset+0x14>

00005390 <memcpy>:
    5390:	00a5c7b3          	xor	a5,a1,a0
    5394:	0037f793          	and	a5,a5,3
    5398:	00c508b3          	add	a7,a0,a2
    539c:	06079463          	bnez	a5,5404 <memcpy+0x74>
    53a0:	00300793          	li	a5,3
    53a4:	06c7f063          	bgeu	a5,a2,5404 <memcpy+0x74>
    53a8:	00357793          	and	a5,a0,3
    53ac:	00050713          	mv	a4,a0
    53b0:	06079a63          	bnez	a5,5424 <memcpy+0x94>
    53b4:	ffc8f613          	and	a2,a7,-4
    53b8:	40e606b3          	sub	a3,a2,a4
    53bc:	02000793          	li	a5,32
    53c0:	08d7ce63          	blt	a5,a3,545c <memcpy+0xcc>
    53c4:	00058693          	mv	a3,a1
    53c8:	00070793          	mv	a5,a4
    53cc:	02c77863          	bgeu	a4,a2,53fc <memcpy+0x6c>
    53d0:	0006a803          	lw	a6,0(a3)
    53d4:	00478793          	add	a5,a5,4
    53d8:	00468693          	add	a3,a3,4
    53dc:	ff07ae23          	sw	a6,-4(a5)
    53e0:	fec7e8e3          	bltu	a5,a2,53d0 <memcpy+0x40>
    53e4:	fff60793          	add	a5,a2,-1
    53e8:	40e787b3          	sub	a5,a5,a4
    53ec:	ffc7f793          	and	a5,a5,-4
    53f0:	00478793          	add	a5,a5,4
    53f4:	00f70733          	add	a4,a4,a5
    53f8:	00f585b3          	add	a1,a1,a5
    53fc:	01176863          	bltu	a4,a7,540c <memcpy+0x7c>
    5400:	00008067          	ret
    5404:	00050713          	mv	a4,a0
    5408:	05157863          	bgeu	a0,a7,5458 <memcpy+0xc8>
    540c:	0005c783          	lbu	a5,0(a1)
    5410:	00170713          	add	a4,a4,1
    5414:	00158593          	add	a1,a1,1
    5418:	fef70fa3          	sb	a5,-1(a4)
    541c:	fee898e3          	bne	a7,a4,540c <memcpy+0x7c>
    5420:	00008067          	ret
    5424:	0005c683          	lbu	a3,0(a1)
    5428:	00170713          	add	a4,a4,1
    542c:	00377793          	and	a5,a4,3
    5430:	fed70fa3          	sb	a3,-1(a4)
    5434:	00158593          	add	a1,a1,1
    5438:	f6078ee3          	beqz	a5,53b4 <memcpy+0x24>
    543c:	0005c683          	lbu	a3,0(a1)
    5440:	00170713          	add	a4,a4,1
    5444:	00377793          	and	a5,a4,3
    5448:	fed70fa3          	sb	a3,-1(a4)
    544c:	00158593          	add	a1,a1,1
    5450:	fc079ae3          	bnez	a5,5424 <memcpy+0x94>
    5454:	f61ff06f          	j	53b4 <memcpy+0x24>
    5458:	00008067          	ret
    545c:	ff010113          	add	sp,sp,-16
    5460:	00812623          	sw	s0,12(sp)
    5464:	02000413          	li	s0,32
    5468:	0005a383          	lw	t2,0(a1)
    546c:	0045a283          	lw	t0,4(a1)
    5470:	0085af83          	lw	t6,8(a1)
    5474:	00c5af03          	lw	t5,12(a1)
    5478:	0105ae83          	lw	t4,16(a1)
    547c:	0145ae03          	lw	t3,20(a1)
    5480:	0185a303          	lw	t1,24(a1)
    5484:	01c5a803          	lw	a6,28(a1)
    5488:	0205a683          	lw	a3,32(a1)
    548c:	02470713          	add	a4,a4,36
    5490:	40e607b3          	sub	a5,a2,a4
    5494:	fc772e23          	sw	t2,-36(a4)
    5498:	fe572023          	sw	t0,-32(a4)
    549c:	fff72223          	sw	t6,-28(a4)
    54a0:	ffe72423          	sw	t5,-24(a4)
    54a4:	ffd72623          	sw	t4,-20(a4)
    54a8:	ffc72823          	sw	t3,-16(a4)
    54ac:	fe672a23          	sw	t1,-12(a4)
    54b0:	ff072c23          	sw	a6,-8(a4)
    54b4:	fed72e23          	sw	a3,-4(a4)
    54b8:	02458593          	add	a1,a1,36
    54bc:	faf446e3          	blt	s0,a5,5468 <memcpy+0xd8>
    54c0:	00058693          	mv	a3,a1
    54c4:	00070793          	mv	a5,a4
    54c8:	02c77863          	bgeu	a4,a2,54f8 <memcpy+0x168>
    54cc:	0006a803          	lw	a6,0(a3)
    54d0:	00478793          	add	a5,a5,4
    54d4:	00468693          	add	a3,a3,4
    54d8:	ff07ae23          	sw	a6,-4(a5)
    54dc:	fec7e8e3          	bltu	a5,a2,54cc <memcpy+0x13c>
    54e0:	fff60793          	add	a5,a2,-1
    54e4:	40e787b3          	sub	a5,a5,a4
    54e8:	ffc7f793          	and	a5,a5,-4
    54ec:	00478793          	add	a5,a5,4
    54f0:	00f70733          	add	a4,a4,a5
    54f4:	00f585b3          	add	a1,a1,a5
    54f8:	01176863          	bltu	a4,a7,5508 <memcpy+0x178>
    54fc:	00c12403          	lw	s0,12(sp)
    5500:	01010113          	add	sp,sp,16
    5504:	00008067          	ret
    5508:	0005c783          	lbu	a5,0(a1)
    550c:	00170713          	add	a4,a4,1
    5510:	00158593          	add	a1,a1,1
    5514:	fef70fa3          	sb	a5,-1(a4)
    5518:	fee882e3          	beq	a7,a4,54fc <memcpy+0x16c>
    551c:	0005c783          	lbu	a5,0(a1)
    5520:	00170713          	add	a4,a4,1
    5524:	00158593          	add	a1,a1,1
    5528:	fef70fa3          	sb	a5,-1(a4)
    552c:	fce89ee3          	bne	a7,a4,5508 <memcpy+0x178>
    5530:	fcdff06f          	j	54fc <memcpy+0x16c>

00005534 <strlen>:
    5534:	00357793          	and	a5,a0,3
    5538:	00050713          	mv	a4,a0
    553c:	04079c63          	bnez	a5,5594 <strlen+0x60>
    5540:	7f7f86b7          	lui	a3,0x7f7f8
    5544:	f7f68693          	add	a3,a3,-129 # 7f7f7f7f <__alt_data_end+0x7f7d7f7f>
    5548:	fff00593          	li	a1,-1
    554c:	00072603          	lw	a2,0(a4)
    5550:	00470713          	add	a4,a4,4
    5554:	00d677b3          	and	a5,a2,a3
    5558:	00d787b3          	add	a5,a5,a3
    555c:	00c7e7b3          	or	a5,a5,a2
    5560:	00d7e7b3          	or	a5,a5,a3
    5564:	feb784e3          	beq	a5,a1,554c <strlen+0x18>
    5568:	ffc74683          	lbu	a3,-4(a4)
    556c:	40a707b3          	sub	a5,a4,a0
    5570:	04068463          	beqz	a3,55b8 <strlen+0x84>
    5574:	ffd74683          	lbu	a3,-3(a4)
    5578:	02068c63          	beqz	a3,55b0 <strlen+0x7c>
    557c:	ffe74503          	lbu	a0,-2(a4)
    5580:	00a03533          	snez	a0,a0
    5584:	00f50533          	add	a0,a0,a5
    5588:	ffe50513          	add	a0,a0,-2
    558c:	00008067          	ret
    5590:	fa0688e3          	beqz	a3,5540 <strlen+0xc>
    5594:	00074783          	lbu	a5,0(a4)
    5598:	00170713          	add	a4,a4,1
    559c:	00377693          	and	a3,a4,3
    55a0:	fe0798e3          	bnez	a5,5590 <strlen+0x5c>
    55a4:	40a70733          	sub	a4,a4,a0
    55a8:	fff70513          	add	a0,a4,-1
    55ac:	00008067          	ret
    55b0:	ffd78513          	add	a0,a5,-3
    55b4:	00008067          	ret
    55b8:	ffc78513          	add	a0,a5,-4
    55bc:	00008067          	ret

000055c0 <__register_exitproc>:
    55c0:	fe010113          	add	sp,sp,-32
    55c4:	01212823          	sw	s2,16(sp)
    55c8:	82c18913          	add	s2,gp,-2004 # 9f94 <__atexit_recursive_mutex>
    55cc:	00812c23          	sw	s0,24(sp)
    55d0:	00050413          	mv	s0,a0
    55d4:	00092503          	lw	a0,0(s2)
    55d8:	00912a23          	sw	s1,20(sp)
    55dc:	01312623          	sw	s3,12(sp)
    55e0:	01412423          	sw	s4,8(sp)
    55e4:	00112e23          	sw	ra,28(sp)
    55e8:	00058493          	mv	s1,a1
    55ec:	00060a13          	mv	s4,a2
    55f0:	00068993          	mv	s3,a3
    55f4:	b91ff0ef          	jal	5184 <__retarget_lock_acquire_recursive>
    55f8:	00006717          	auipc	a4,0x6
    55fc:	1c470713          	add	a4,a4,452 # b7bc <__atexit>
    5600:	00072783          	lw	a5,0(a4)
    5604:	08078663          	beqz	a5,5690 <__register_exitproc+0xd0>
    5608:	0047a703          	lw	a4,4(a5)
    560c:	01f00593          	li	a1,31
    5610:	00092503          	lw	a0,0(s2)
    5614:	08e5c663          	blt	a1,a4,56a0 <__register_exitproc+0xe0>
    5618:	00271593          	sll	a1,a4,0x2
    561c:	02041e63          	bnez	s0,5658 <__register_exitproc+0x98>
    5620:	00170713          	add	a4,a4,1
    5624:	00e7a223          	sw	a4,4(a5)
    5628:	00b787b3          	add	a5,a5,a1
    562c:	0097a423          	sw	s1,8(a5)
    5630:	b6dff0ef          	jal	519c <__retarget_lock_release_recursive>
    5634:	00000513          	li	a0,0
    5638:	01c12083          	lw	ra,28(sp)
    563c:	01812403          	lw	s0,24(sp)
    5640:	01412483          	lw	s1,20(sp)
    5644:	01012903          	lw	s2,16(sp)
    5648:	00c12983          	lw	s3,12(sp)
    564c:	00812a03          	lw	s4,8(sp)
    5650:	02010113          	add	sp,sp,32
    5654:	00008067          	ret
    5658:	00b78833          	add	a6,a5,a1
    565c:	09482423          	sw	s4,136(a6)
    5660:	1887a683          	lw	a3,392(a5)
    5664:	00100613          	li	a2,1
    5668:	00e61633          	sll	a2,a2,a4
    566c:	00c6e6b3          	or	a3,a3,a2
    5670:	18d7a423          	sw	a3,392(a5)
    5674:	11382423          	sw	s3,264(a6)
    5678:	00200693          	li	a3,2
    567c:	fad412e3          	bne	s0,a3,5620 <__register_exitproc+0x60>
    5680:	18c7a683          	lw	a3,396(a5)
    5684:	00c6e6b3          	or	a3,a3,a2
    5688:	18d7a623          	sw	a3,396(a5)
    568c:	f95ff06f          	j	5620 <__register_exitproc+0x60>
    5690:	00006797          	auipc	a5,0x6
    5694:	2f878793          	add	a5,a5,760 # b988 <__atexit0>
    5698:	00f72023          	sw	a5,0(a4)
    569c:	f6dff06f          	j	5608 <__register_exitproc+0x48>
    56a0:	afdff0ef          	jal	519c <__retarget_lock_release_recursive>
    56a4:	fff00513          	li	a0,-1
    56a8:	f91ff06f          	j	5638 <__register_exitproc+0x78>

000056ac <__call_exitprocs>:
    56ac:	fd010113          	add	sp,sp,-48
    56b0:	01712623          	sw	s7,12(sp)
    56b4:	82c18b93          	add	s7,gp,-2004 # 9f94 <__atexit_recursive_mutex>
    56b8:	01612823          	sw	s6,16(sp)
    56bc:	00050b13          	mv	s6,a0
    56c0:	000ba503          	lw	a0,0(s7)
    56c4:	01412c23          	sw	s4,24(sp)
    56c8:	00006a17          	auipc	s4,0x6
    56cc:	0f4a0a13          	add	s4,s4,244 # b7bc <__atexit>
    56d0:	03212023          	sw	s2,32(sp)
    56d4:	01812423          	sw	s8,8(sp)
    56d8:	02112623          	sw	ra,44(sp)
    56dc:	00058c13          	mv	s8,a1
    56e0:	aa5ff0ef          	jal	5184 <__retarget_lock_acquire_recursive>
    56e4:	000a2903          	lw	s2,0(s4)
    56e8:	08090c63          	beqz	s2,5780 <__call_exitprocs+0xd4>
    56ec:	01312e23          	sw	s3,28(sp)
    56f0:	01512a23          	sw	s5,20(sp)
    56f4:	02812423          	sw	s0,40(sp)
    56f8:	02912223          	sw	s1,36(sp)
    56fc:	01912223          	sw	s9,4(sp)
    5700:	fff00993          	li	s3,-1
    5704:	00100a93          	li	s5,1
    5708:	00492483          	lw	s1,4(s2)
    570c:	fff48413          	add	s0,s1,-1
    5710:	04044e63          	bltz	s0,576c <__call_exitprocs+0xc0>
    5714:	00249493          	sll	s1,s1,0x2
    5718:	009904b3          	add	s1,s2,s1
    571c:	080c1463          	bnez	s8,57a4 <__call_exitprocs+0xf8>
    5720:	00492783          	lw	a5,4(s2)
    5724:	0044a683          	lw	a3,4(s1)
    5728:	fff78793          	add	a5,a5,-1
    572c:	0c878063          	beq	a5,s0,57ec <__call_exitprocs+0x140>
    5730:	0004a223          	sw	zero,4(s1)
    5734:	02068663          	beqz	a3,5760 <__call_exitprocs+0xb4>
    5738:	18892783          	lw	a5,392(s2)
    573c:	008a9733          	sll	a4,s5,s0
    5740:	00492c83          	lw	s9,4(s2)
    5744:	00f777b3          	and	a5,a4,a5
    5748:	06079a63          	bnez	a5,57bc <__call_exitprocs+0x110>
    574c:	000680e7          	jalr	a3
    5750:	00492703          	lw	a4,4(s2)
    5754:	000a2783          	lw	a5,0(s4)
    5758:	09971463          	bne	a4,s9,57e0 <__call_exitprocs+0x134>
    575c:	09279263          	bne	a5,s2,57e0 <__call_exitprocs+0x134>
    5760:	fff40413          	add	s0,s0,-1
    5764:	ffc48493          	add	s1,s1,-4
    5768:	fb341ae3          	bne	s0,s3,571c <__call_exitprocs+0x70>
    576c:	02812403          	lw	s0,40(sp)
    5770:	02412483          	lw	s1,36(sp)
    5774:	01c12983          	lw	s3,28(sp)
    5778:	01412a83          	lw	s5,20(sp)
    577c:	00412c83          	lw	s9,4(sp)
    5780:	000ba503          	lw	a0,0(s7)
    5784:	02c12083          	lw	ra,44(sp)
    5788:	02012903          	lw	s2,32(sp)
    578c:	01812a03          	lw	s4,24(sp)
    5790:	01012b03          	lw	s6,16(sp)
    5794:	00c12b83          	lw	s7,12(sp)
    5798:	00812c03          	lw	s8,8(sp)
    579c:	03010113          	add	sp,sp,48
    57a0:	9fdff06f          	j	519c <__retarget_lock_release_recursive>
    57a4:	1044a783          	lw	a5,260(s1)
    57a8:	f7878ce3          	beq	a5,s8,5720 <__call_exitprocs+0x74>
    57ac:	fff40413          	add	s0,s0,-1
    57b0:	ffc48493          	add	s1,s1,-4
    57b4:	ff3418e3          	bne	s0,s3,57a4 <__call_exitprocs+0xf8>
    57b8:	fb5ff06f          	j	576c <__call_exitprocs+0xc0>
    57bc:	18c92783          	lw	a5,396(s2)
    57c0:	0844a583          	lw	a1,132(s1)
    57c4:	00f77733          	and	a4,a4,a5
    57c8:	02071663          	bnez	a4,57f4 <__call_exitprocs+0x148>
    57cc:	000b0513          	mv	a0,s6
    57d0:	000680e7          	jalr	a3
    57d4:	00492703          	lw	a4,4(s2)
    57d8:	000a2783          	lw	a5,0(s4)
    57dc:	f99700e3          	beq	a4,s9,575c <__call_exitprocs+0xb0>
    57e0:	f80786e3          	beqz	a5,576c <__call_exitprocs+0xc0>
    57e4:	00078913          	mv	s2,a5
    57e8:	f21ff06f          	j	5708 <__call_exitprocs+0x5c>
    57ec:	00892223          	sw	s0,4(s2)
    57f0:	f45ff06f          	j	5734 <__call_exitprocs+0x88>
    57f4:	00058513          	mv	a0,a1
    57f8:	000680e7          	jalr	a3
    57fc:	f55ff06f          	j	5750 <__call_exitprocs+0xa4>

00005800 <register_fini>:
    5800:	00000793          	li	a5,0
    5804:	00078863          	beqz	a5,5814 <register_fini+0x14>
    5808:	00002517          	auipc	a0,0x2
    580c:	01450513          	add	a0,a0,20 # 781c <__libc_fini_array>
    5810:	cfdfe06f          	j	450c <atexit>
    5814:	00008067          	ret

00005818 <_malloc_trim_r>:
    5818:	fe010113          	add	sp,sp,-32
    581c:	00812c23          	sw	s0,24(sp)
    5820:	00912a23          	sw	s1,20(sp)
    5824:	01212823          	sw	s2,16(sp)
    5828:	01312623          	sw	s3,12(sp)
    582c:	01412423          	sw	s4,8(sp)
    5830:	00058993          	mv	s3,a1
    5834:	00112e23          	sw	ra,28(sp)
    5838:	00050913          	mv	s2,a0
    583c:	00004a17          	auipc	s4,0x4
    5840:	324a0a13          	add	s4,s4,804 # 9b60 <__malloc_av_>
    5844:	411000ef          	jal	6454 <__malloc_lock>
    5848:	008a2703          	lw	a4,8(s4)
    584c:	000017b7          	lui	a5,0x1
    5850:	fef78793          	add	a5,a5,-17 # fef <alt_avalon_i2c_master_config_speed_get+0x13>
    5854:	00472483          	lw	s1,4(a4)
    5858:	00001737          	lui	a4,0x1
    585c:	ffc4f493          	and	s1,s1,-4
    5860:	00f48433          	add	s0,s1,a5
    5864:	41340433          	sub	s0,s0,s3
    5868:	00c45413          	srl	s0,s0,0xc
    586c:	fff40413          	add	s0,s0,-1
    5870:	00c41413          	sll	s0,s0,0xc
    5874:	00e44e63          	blt	s0,a4,5890 <_malloc_trim_r+0x78>
    5878:	00000593          	li	a1,0
    587c:	00090513          	mv	a0,s2
    5880:	745010ef          	jal	77c4 <_sbrk_r>
    5884:	008a2783          	lw	a5,8(s4)
    5888:	009787b3          	add	a5,a5,s1
    588c:	02f50863          	beq	a0,a5,58bc <_malloc_trim_r+0xa4>
    5890:	00090513          	mv	a0,s2
    5894:	3cd000ef          	jal	6460 <__malloc_unlock>
    5898:	01c12083          	lw	ra,28(sp)
    589c:	01812403          	lw	s0,24(sp)
    58a0:	01412483          	lw	s1,20(sp)
    58a4:	01012903          	lw	s2,16(sp)
    58a8:	00c12983          	lw	s3,12(sp)
    58ac:	00812a03          	lw	s4,8(sp)
    58b0:	00000513          	li	a0,0
    58b4:	02010113          	add	sp,sp,32
    58b8:	00008067          	ret
    58bc:	408005b3          	neg	a1,s0
    58c0:	00090513          	mv	a0,s2
    58c4:	701010ef          	jal	77c4 <_sbrk_r>
    58c8:	fff00793          	li	a5,-1
    58cc:	04f50a63          	beq	a0,a5,5920 <_malloc_trim_r+0x108>
    58d0:	00006717          	auipc	a4,0x6
    58d4:	24870713          	add	a4,a4,584 # bb18 <__malloc_current_mallinfo>
    58d8:	00072783          	lw	a5,0(a4)
    58dc:	008a2683          	lw	a3,8(s4)
    58e0:	408484b3          	sub	s1,s1,s0
    58e4:	0014e493          	or	s1,s1,1
    58e8:	408787b3          	sub	a5,a5,s0
    58ec:	00090513          	mv	a0,s2
    58f0:	0096a223          	sw	s1,4(a3)
    58f4:	00f72023          	sw	a5,0(a4)
    58f8:	369000ef          	jal	6460 <__malloc_unlock>
    58fc:	01c12083          	lw	ra,28(sp)
    5900:	01812403          	lw	s0,24(sp)
    5904:	01412483          	lw	s1,20(sp)
    5908:	01012903          	lw	s2,16(sp)
    590c:	00c12983          	lw	s3,12(sp)
    5910:	00812a03          	lw	s4,8(sp)
    5914:	00100513          	li	a0,1
    5918:	02010113          	add	sp,sp,32
    591c:	00008067          	ret
    5920:	00000593          	li	a1,0
    5924:	00090513          	mv	a0,s2
    5928:	69d010ef          	jal	77c4 <_sbrk_r>
    592c:	008a2703          	lw	a4,8(s4)
    5930:	00f00693          	li	a3,15
    5934:	40e507b3          	sub	a5,a0,a4
    5938:	f4f6dce3          	bge	a3,a5,5890 <_malloc_trim_r+0x78>
    593c:	8301a683          	lw	a3,-2000(gp) # 9f98 <__malloc_sbrk_base>
    5940:	40d50533          	sub	a0,a0,a3
    5944:	0017e793          	or	a5,a5,1
    5948:	00006697          	auipc	a3,0x6
    594c:	1ca6a823          	sw	a0,464(a3) # bb18 <__malloc_current_mallinfo>
    5950:	00f72223          	sw	a5,4(a4)
    5954:	f3dff06f          	j	5890 <_malloc_trim_r+0x78>

00005958 <_free_r>:
    5958:	18058263          	beqz	a1,5adc <_free_r+0x184>
    595c:	ff010113          	add	sp,sp,-16
    5960:	00812423          	sw	s0,8(sp)
    5964:	00912223          	sw	s1,4(sp)
    5968:	00058413          	mv	s0,a1
    596c:	00050493          	mv	s1,a0
    5970:	00112623          	sw	ra,12(sp)
    5974:	2e1000ef          	jal	6454 <__malloc_lock>
    5978:	ffc42583          	lw	a1,-4(s0)
    597c:	ff840713          	add	a4,s0,-8
    5980:	00004517          	auipc	a0,0x4
    5984:	1e050513          	add	a0,a0,480 # 9b60 <__malloc_av_>
    5988:	ffe5f793          	and	a5,a1,-2
    598c:	00f70633          	add	a2,a4,a5
    5990:	00462683          	lw	a3,4(a2)
    5994:	00852803          	lw	a6,8(a0)
    5998:	ffc6f693          	and	a3,a3,-4
    599c:	1ac80263          	beq	a6,a2,5b40 <_free_r+0x1e8>
    59a0:	00d62223          	sw	a3,4(a2)
    59a4:	0015f593          	and	a1,a1,1
    59a8:	00d60833          	add	a6,a2,a3
    59ac:	0a059063          	bnez	a1,5a4c <_free_r+0xf4>
    59b0:	ff842303          	lw	t1,-8(s0)
    59b4:	00482583          	lw	a1,4(a6)
    59b8:	00004897          	auipc	a7,0x4
    59bc:	1b088893          	add	a7,a7,432 # 9b68 <__malloc_av_+0x8>
    59c0:	40670733          	sub	a4,a4,t1
    59c4:	00872803          	lw	a6,8(a4)
    59c8:	006787b3          	add	a5,a5,t1
    59cc:	0015f593          	and	a1,a1,1
    59d0:	15180263          	beq	a6,a7,5b14 <_free_r+0x1bc>
    59d4:	00c72303          	lw	t1,12(a4)
    59d8:	00682623          	sw	t1,12(a6)
    59dc:	01032423          	sw	a6,8(t1)
    59e0:	1a058863          	beqz	a1,5b90 <_free_r+0x238>
    59e4:	0017e693          	or	a3,a5,1
    59e8:	00d72223          	sw	a3,4(a4)
    59ec:	00f62023          	sw	a5,0(a2)
    59f0:	1ff00693          	li	a3,511
    59f4:	06f6ec63          	bltu	a3,a5,5a6c <_free_r+0x114>
    59f8:	ff87f693          	and	a3,a5,-8
    59fc:	00868693          	add	a3,a3,8
    5a00:	00452583          	lw	a1,4(a0)
    5a04:	00d506b3          	add	a3,a0,a3
    5a08:	0006a603          	lw	a2,0(a3)
    5a0c:	0057d813          	srl	a6,a5,0x5
    5a10:	00100793          	li	a5,1
    5a14:	010797b3          	sll	a5,a5,a6
    5a18:	00b7e7b3          	or	a5,a5,a1
    5a1c:	ff868593          	add	a1,a3,-8
    5a20:	00b72623          	sw	a1,12(a4)
    5a24:	00c72423          	sw	a2,8(a4)
    5a28:	00f52223          	sw	a5,4(a0)
    5a2c:	00e6a023          	sw	a4,0(a3)
    5a30:	00e62623          	sw	a4,12(a2)
    5a34:	00812403          	lw	s0,8(sp)
    5a38:	00c12083          	lw	ra,12(sp)
    5a3c:	00048513          	mv	a0,s1
    5a40:	00412483          	lw	s1,4(sp)
    5a44:	01010113          	add	sp,sp,16
    5a48:	2190006f          	j	6460 <__malloc_unlock>
    5a4c:	00482583          	lw	a1,4(a6)
    5a50:	0015f593          	and	a1,a1,1
    5a54:	08058663          	beqz	a1,5ae0 <_free_r+0x188>
    5a58:	0017e693          	or	a3,a5,1
    5a5c:	fed42e23          	sw	a3,-4(s0)
    5a60:	00f62023          	sw	a5,0(a2)
    5a64:	1ff00693          	li	a3,511
    5a68:	f8f6f8e3          	bgeu	a3,a5,59f8 <_free_r+0xa0>
    5a6c:	0097d693          	srl	a3,a5,0x9
    5a70:	00400613          	li	a2,4
    5a74:	12d66263          	bltu	a2,a3,5b98 <_free_r+0x240>
    5a78:	0067d693          	srl	a3,a5,0x6
    5a7c:	03968593          	add	a1,a3,57
    5a80:	03868613          	add	a2,a3,56
    5a84:	00359593          	sll	a1,a1,0x3
    5a88:	00b505b3          	add	a1,a0,a1
    5a8c:	0005a683          	lw	a3,0(a1)
    5a90:	ff858593          	add	a1,a1,-8
    5a94:	00d59863          	bne	a1,a3,5aa4 <_free_r+0x14c>
    5a98:	1580006f          	j	5bf0 <_free_r+0x298>
    5a9c:	0086a683          	lw	a3,8(a3)
    5aa0:	00d58863          	beq	a1,a3,5ab0 <_free_r+0x158>
    5aa4:	0046a603          	lw	a2,4(a3)
    5aa8:	ffc67613          	and	a2,a2,-4
    5aac:	fec7e8e3          	bltu	a5,a2,5a9c <_free_r+0x144>
    5ab0:	00c6a583          	lw	a1,12(a3)
    5ab4:	00b72623          	sw	a1,12(a4)
    5ab8:	00d72423          	sw	a3,8(a4)
    5abc:	00812403          	lw	s0,8(sp)
    5ac0:	00c12083          	lw	ra,12(sp)
    5ac4:	00e5a423          	sw	a4,8(a1)
    5ac8:	00048513          	mv	a0,s1
    5acc:	00412483          	lw	s1,4(sp)
    5ad0:	00e6a623          	sw	a4,12(a3)
    5ad4:	01010113          	add	sp,sp,16
    5ad8:	1890006f          	j	6460 <__malloc_unlock>
    5adc:	00008067          	ret
    5ae0:	00d787b3          	add	a5,a5,a3
    5ae4:	00004897          	auipc	a7,0x4
    5ae8:	08488893          	add	a7,a7,132 # 9b68 <__malloc_av_+0x8>
    5aec:	00862683          	lw	a3,8(a2)
    5af0:	0d168e63          	beq	a3,a7,5bcc <_free_r+0x274>
    5af4:	00c62803          	lw	a6,12(a2)
    5af8:	0017e593          	or	a1,a5,1
    5afc:	00f70633          	add	a2,a4,a5
    5b00:	0106a623          	sw	a6,12(a3)
    5b04:	00d82423          	sw	a3,8(a6)
    5b08:	00b72223          	sw	a1,4(a4)
    5b0c:	00f62023          	sw	a5,0(a2)
    5b10:	ee1ff06f          	j	59f0 <_free_r+0x98>
    5b14:	12059e63          	bnez	a1,5c50 <_free_r+0x2f8>
    5b18:	00862583          	lw	a1,8(a2)
    5b1c:	00c62603          	lw	a2,12(a2)
    5b20:	00f686b3          	add	a3,a3,a5
    5b24:	0016e793          	or	a5,a3,1
    5b28:	00c5a623          	sw	a2,12(a1)
    5b2c:	00b62423          	sw	a1,8(a2)
    5b30:	00f72223          	sw	a5,4(a4)
    5b34:	00d70733          	add	a4,a4,a3
    5b38:	00d72023          	sw	a3,0(a4)
    5b3c:	ef9ff06f          	j	5a34 <_free_r+0xdc>
    5b40:	0015f593          	and	a1,a1,1
    5b44:	00d786b3          	add	a3,a5,a3
    5b48:	02059063          	bnez	a1,5b68 <_free_r+0x210>
    5b4c:	ff842583          	lw	a1,-8(s0)
    5b50:	40b70733          	sub	a4,a4,a1
    5b54:	00c72783          	lw	a5,12(a4)
    5b58:	00872603          	lw	a2,8(a4)
    5b5c:	00b686b3          	add	a3,a3,a1
    5b60:	00f62623          	sw	a5,12(a2)
    5b64:	00c7a423          	sw	a2,8(a5)
    5b68:	0016e793          	or	a5,a3,1
    5b6c:	00f72223          	sw	a5,4(a4)
    5b70:	00e52423          	sw	a4,8(a0)
    5b74:	8341a783          	lw	a5,-1996(gp) # 9f9c <__malloc_trim_threshold>
    5b78:	eaf6eee3          	bltu	a3,a5,5a34 <_free_r+0xdc>
    5b7c:	00006597          	auipc	a1,0x6
    5b80:	c4c5a583          	lw	a1,-948(a1) # b7c8 <__malloc_top_pad>
    5b84:	00048513          	mv	a0,s1
    5b88:	c91ff0ef          	jal	5818 <_malloc_trim_r>
    5b8c:	ea9ff06f          	j	5a34 <_free_r+0xdc>
    5b90:	00d787b3          	add	a5,a5,a3
    5b94:	f59ff06f          	j	5aec <_free_r+0x194>
    5b98:	01400613          	li	a2,20
    5b9c:	02d67063          	bgeu	a2,a3,5bbc <_free_r+0x264>
    5ba0:	05400613          	li	a2,84
    5ba4:	06d66463          	bltu	a2,a3,5c0c <_free_r+0x2b4>
    5ba8:	00c7d693          	srl	a3,a5,0xc
    5bac:	06f68593          	add	a1,a3,111
    5bb0:	06e68613          	add	a2,a3,110
    5bb4:	00359593          	sll	a1,a1,0x3
    5bb8:	ed1ff06f          	j	5a88 <_free_r+0x130>
    5bbc:	05c68593          	add	a1,a3,92
    5bc0:	05b68613          	add	a2,a3,91
    5bc4:	00359593          	sll	a1,a1,0x3
    5bc8:	ec1ff06f          	j	5a88 <_free_r+0x130>
    5bcc:	00e52a23          	sw	a4,20(a0)
    5bd0:	00e52823          	sw	a4,16(a0)
    5bd4:	0017e693          	or	a3,a5,1
    5bd8:	01172623          	sw	a7,12(a4)
    5bdc:	01172423          	sw	a7,8(a4)
    5be0:	00d72223          	sw	a3,4(a4)
    5be4:	00f70733          	add	a4,a4,a5
    5be8:	00f72023          	sw	a5,0(a4)
    5bec:	e49ff06f          	j	5a34 <_free_r+0xdc>
    5bf0:	00452803          	lw	a6,4(a0)
    5bf4:	40265613          	sra	a2,a2,0x2
    5bf8:	00100793          	li	a5,1
    5bfc:	00c797b3          	sll	a5,a5,a2
    5c00:	0107e7b3          	or	a5,a5,a6
    5c04:	00f52223          	sw	a5,4(a0)
    5c08:	eadff06f          	j	5ab4 <_free_r+0x15c>
    5c0c:	15400613          	li	a2,340
    5c10:	00d66c63          	bltu	a2,a3,5c28 <_free_r+0x2d0>
    5c14:	00f7d693          	srl	a3,a5,0xf
    5c18:	07868593          	add	a1,a3,120
    5c1c:	07768613          	add	a2,a3,119
    5c20:	00359593          	sll	a1,a1,0x3
    5c24:	e65ff06f          	j	5a88 <_free_r+0x130>
    5c28:	55400613          	li	a2,1364
    5c2c:	00d66c63          	bltu	a2,a3,5c44 <_free_r+0x2ec>
    5c30:	0127d693          	srl	a3,a5,0x12
    5c34:	07d68593          	add	a1,a3,125
    5c38:	07c68613          	add	a2,a3,124
    5c3c:	00359593          	sll	a1,a1,0x3
    5c40:	e49ff06f          	j	5a88 <_free_r+0x130>
    5c44:	3f800593          	li	a1,1016
    5c48:	07e00613          	li	a2,126
    5c4c:	e3dff06f          	j	5a88 <_free_r+0x130>
    5c50:	0017e693          	or	a3,a5,1
    5c54:	00d72223          	sw	a3,4(a4)
    5c58:	00f62023          	sw	a5,0(a2)
    5c5c:	dd9ff06f          	j	5a34 <_free_r+0xdc>

00005c60 <malloc>:
    5c60:	00050593          	mv	a1,a0
    5c64:	8281a503          	lw	a0,-2008(gp) # 9f90 <_impure_ptr>
    5c68:	0100006f          	j	5c78 <_malloc_r>

00005c6c <free>:
    5c6c:	00050593          	mv	a1,a0
    5c70:	8281a503          	lw	a0,-2008(gp) # 9f90 <_impure_ptr>
    5c74:	ce5ff06f          	j	5958 <_free_r>

00005c78 <_malloc_r>:
    5c78:	fd010113          	add	sp,sp,-48
    5c7c:	03212023          	sw	s2,32(sp)
    5c80:	02112623          	sw	ra,44(sp)
    5c84:	02812423          	sw	s0,40(sp)
    5c88:	02912223          	sw	s1,36(sp)
    5c8c:	01312e23          	sw	s3,28(sp)
    5c90:	00b58793          	add	a5,a1,11
    5c94:	01600713          	li	a4,22
    5c98:	00050913          	mv	s2,a0
    5c9c:	08f76263          	bltu	a4,a5,5d20 <_malloc_r+0xa8>
    5ca0:	01000793          	li	a5,16
    5ca4:	20b7e663          	bltu	a5,a1,5eb0 <_malloc_r+0x238>
    5ca8:	7ac000ef          	jal	6454 <__malloc_lock>
    5cac:	01800793          	li	a5,24
    5cb0:	00200593          	li	a1,2
    5cb4:	01000493          	li	s1,16
    5cb8:	00004997          	auipc	s3,0x4
    5cbc:	ea898993          	add	s3,s3,-344 # 9b60 <__malloc_av_>
    5cc0:	00f987b3          	add	a5,s3,a5
    5cc4:	0047a403          	lw	s0,4(a5)
    5cc8:	ff878713          	add	a4,a5,-8
    5ccc:	36e40263          	beq	s0,a4,6030 <_malloc_r+0x3b8>
    5cd0:	00442783          	lw	a5,4(s0)
    5cd4:	00c42683          	lw	a3,12(s0)
    5cd8:	00842603          	lw	a2,8(s0)
    5cdc:	ffc7f793          	and	a5,a5,-4
    5ce0:	00f407b3          	add	a5,s0,a5
    5ce4:	0047a703          	lw	a4,4(a5)
    5ce8:	00d62623          	sw	a3,12(a2)
    5cec:	00c6a423          	sw	a2,8(a3)
    5cf0:	00176713          	or	a4,a4,1
    5cf4:	00090513          	mv	a0,s2
    5cf8:	00e7a223          	sw	a4,4(a5)
    5cfc:	764000ef          	jal	6460 <__malloc_unlock>
    5d00:	00840513          	add	a0,s0,8
    5d04:	02c12083          	lw	ra,44(sp)
    5d08:	02812403          	lw	s0,40(sp)
    5d0c:	02412483          	lw	s1,36(sp)
    5d10:	02012903          	lw	s2,32(sp)
    5d14:	01c12983          	lw	s3,28(sp)
    5d18:	03010113          	add	sp,sp,48
    5d1c:	00008067          	ret
    5d20:	ff87f493          	and	s1,a5,-8
    5d24:	1807c663          	bltz	a5,5eb0 <_malloc_r+0x238>
    5d28:	18b4e463          	bltu	s1,a1,5eb0 <_malloc_r+0x238>
    5d2c:	728000ef          	jal	6454 <__malloc_lock>
    5d30:	1f700793          	li	a5,503
    5d34:	4097f863          	bgeu	a5,s1,6144 <_malloc_r+0x4cc>
    5d38:	0094d793          	srl	a5,s1,0x9
    5d3c:	18078263          	beqz	a5,5ec0 <_malloc_r+0x248>
    5d40:	00400713          	li	a4,4
    5d44:	34f76e63          	bltu	a4,a5,60a0 <_malloc_r+0x428>
    5d48:	0064d793          	srl	a5,s1,0x6
    5d4c:	03978593          	add	a1,a5,57
    5d50:	03878813          	add	a6,a5,56
    5d54:	00359613          	sll	a2,a1,0x3
    5d58:	00004997          	auipc	s3,0x4
    5d5c:	e0898993          	add	s3,s3,-504 # 9b60 <__malloc_av_>
    5d60:	00c98633          	add	a2,s3,a2
    5d64:	00462403          	lw	s0,4(a2)
    5d68:	ff860613          	add	a2,a2,-8
    5d6c:	02860863          	beq	a2,s0,5d9c <_malloc_r+0x124>
    5d70:	00f00513          	li	a0,15
    5d74:	0140006f          	j	5d88 <_malloc_r+0x110>
    5d78:	00c42683          	lw	a3,12(s0)
    5d7c:	2a075663          	bgez	a4,6028 <_malloc_r+0x3b0>
    5d80:	00d60e63          	beq	a2,a3,5d9c <_malloc_r+0x124>
    5d84:	00068413          	mv	s0,a3
    5d88:	00442783          	lw	a5,4(s0)
    5d8c:	ffc7f793          	and	a5,a5,-4
    5d90:	40978733          	sub	a4,a5,s1
    5d94:	fee552e3          	bge	a0,a4,5d78 <_malloc_r+0x100>
    5d98:	00080593          	mv	a1,a6
    5d9c:	0109a403          	lw	s0,16(s3)
    5da0:	00004897          	auipc	a7,0x4
    5da4:	dc888893          	add	a7,a7,-568 # 9b68 <__malloc_av_+0x8>
    5da8:	27140c63          	beq	s0,a7,6020 <_malloc_r+0x3a8>
    5dac:	00442783          	lw	a5,4(s0)
    5db0:	00f00693          	li	a3,15
    5db4:	ffc7f793          	and	a5,a5,-4
    5db8:	40978733          	sub	a4,a5,s1
    5dbc:	38e6ca63          	blt	a3,a4,6150 <_malloc_r+0x4d8>
    5dc0:	0119aa23          	sw	a7,20(s3)
    5dc4:	0119a823          	sw	a7,16(s3)
    5dc8:	34075e63          	bgez	a4,6124 <_malloc_r+0x4ac>
    5dcc:	1ff00713          	li	a4,511
    5dd0:	0049a503          	lw	a0,4(s3)
    5dd4:	26f76663          	bltu	a4,a5,6040 <_malloc_r+0x3c8>
    5dd8:	ff87f713          	and	a4,a5,-8
    5ddc:	00870713          	add	a4,a4,8
    5de0:	00e98733          	add	a4,s3,a4
    5de4:	00072683          	lw	a3,0(a4)
    5de8:	0057d613          	srl	a2,a5,0x5
    5dec:	00100793          	li	a5,1
    5df0:	00c797b3          	sll	a5,a5,a2
    5df4:	00f56533          	or	a0,a0,a5
    5df8:	ff870793          	add	a5,a4,-8
    5dfc:	00f42623          	sw	a5,12(s0)
    5e00:	00d42423          	sw	a3,8(s0)
    5e04:	00a9a223          	sw	a0,4(s3)
    5e08:	00872023          	sw	s0,0(a4)
    5e0c:	0086a623          	sw	s0,12(a3)
    5e10:	4025d793          	sra	a5,a1,0x2
    5e14:	00100613          	li	a2,1
    5e18:	00f61633          	sll	a2,a2,a5
    5e1c:	0ac56a63          	bltu	a0,a2,5ed0 <_malloc_r+0x258>
    5e20:	00a677b3          	and	a5,a2,a0
    5e24:	02079463          	bnez	a5,5e4c <_malloc_r+0x1d4>
    5e28:	00161613          	sll	a2,a2,0x1
    5e2c:	ffc5f593          	and	a1,a1,-4
    5e30:	00a677b3          	and	a5,a2,a0
    5e34:	00458593          	add	a1,a1,4
    5e38:	00079a63          	bnez	a5,5e4c <_malloc_r+0x1d4>
    5e3c:	00161613          	sll	a2,a2,0x1
    5e40:	00a677b3          	and	a5,a2,a0
    5e44:	00458593          	add	a1,a1,4
    5e48:	fe078ae3          	beqz	a5,5e3c <_malloc_r+0x1c4>
    5e4c:	00f00813          	li	a6,15
    5e50:	00359313          	sll	t1,a1,0x3
    5e54:	00698333          	add	t1,s3,t1
    5e58:	00030513          	mv	a0,t1
    5e5c:	00c52783          	lw	a5,12(a0)
    5e60:	00058e13          	mv	t3,a1
    5e64:	26f50063          	beq	a0,a5,60c4 <_malloc_r+0x44c>
    5e68:	0047a703          	lw	a4,4(a5)
    5e6c:	00078413          	mv	s0,a5
    5e70:	00c7a783          	lw	a5,12(a5)
    5e74:	ffc77713          	and	a4,a4,-4
    5e78:	409706b3          	sub	a3,a4,s1
    5e7c:	26d84063          	blt	a6,a3,60dc <_malloc_r+0x464>
    5e80:	fe06c2e3          	bltz	a3,5e64 <_malloc_r+0x1ec>
    5e84:	00e40733          	add	a4,s0,a4
    5e88:	00472683          	lw	a3,4(a4)
    5e8c:	00842603          	lw	a2,8(s0)
    5e90:	00090513          	mv	a0,s2
    5e94:	0016e693          	or	a3,a3,1
    5e98:	00d72223          	sw	a3,4(a4)
    5e9c:	00f62623          	sw	a5,12(a2)
    5ea0:	00c7a423          	sw	a2,8(a5)
    5ea4:	5bc000ef          	jal	6460 <__malloc_unlock>
    5ea8:	00840513          	add	a0,s0,8
    5eac:	e59ff06f          	j	5d04 <_malloc_r+0x8c>
    5eb0:	00c00793          	li	a5,12
    5eb4:	00f92023          	sw	a5,0(s2)
    5eb8:	00000513          	li	a0,0
    5ebc:	e49ff06f          	j	5d04 <_malloc_r+0x8c>
    5ec0:	20000613          	li	a2,512
    5ec4:	04000593          	li	a1,64
    5ec8:	03f00813          	li	a6,63
    5ecc:	e8dff06f          	j	5d58 <_malloc_r+0xe0>
    5ed0:	0089a403          	lw	s0,8(s3)
    5ed4:	01612823          	sw	s6,16(sp)
    5ed8:	00442783          	lw	a5,4(s0)
    5edc:	ffc7fb13          	and	s6,a5,-4
    5ee0:	009b6863          	bltu	s6,s1,5ef0 <_malloc_r+0x278>
    5ee4:	409b0733          	sub	a4,s6,s1
    5ee8:	00f00793          	li	a5,15
    5eec:	0ee7c863          	blt	a5,a4,5fdc <_malloc_r+0x364>
    5ef0:	01912223          	sw	s9,4(sp)
    5ef4:	83018c93          	add	s9,gp,-2000 # 9f98 <__malloc_sbrk_base>
    5ef8:	000ca703          	lw	a4,0(s9)
    5efc:	01412c23          	sw	s4,24(sp)
    5f00:	01512a23          	sw	s5,20(sp)
    5f04:	01712623          	sw	s7,12(sp)
    5f08:	00006a97          	auipc	s5,0x6
    5f0c:	8c0aaa83          	lw	s5,-1856(s5) # b7c8 <__malloc_top_pad>
    5f10:	fff00793          	li	a5,-1
    5f14:	01640a33          	add	s4,s0,s6
    5f18:	01548ab3          	add	s5,s1,s5
    5f1c:	3ef70263          	beq	a4,a5,6300 <_malloc_r+0x688>
    5f20:	000017b7          	lui	a5,0x1
    5f24:	00f78793          	add	a5,a5,15 # 100f <alt_avalon_i2c_master_config_speed_get+0x33>
    5f28:	00fa8ab3          	add	s5,s5,a5
    5f2c:	fffff7b7          	lui	a5,0xfffff
    5f30:	00fafab3          	and	s5,s5,a5
    5f34:	000a8593          	mv	a1,s5
    5f38:	00090513          	mv	a0,s2
    5f3c:	089010ef          	jal	77c4 <_sbrk_r>
    5f40:	fff00793          	li	a5,-1
    5f44:	00050b93          	mv	s7,a0
    5f48:	46f50663          	beq	a0,a5,63b4 <_malloc_r+0x73c>
    5f4c:	01812423          	sw	s8,8(sp)
    5f50:	25456863          	bltu	a0,s4,61a0 <_malloc_r+0x528>
    5f54:	00006c17          	auipc	s8,0x6
    5f58:	bc4c0c13          	add	s8,s8,-1084 # bb18 <__malloc_current_mallinfo>
    5f5c:	000c2583          	lw	a1,0(s8)
    5f60:	00ba85b3          	add	a1,s5,a1
    5f64:	00bc2023          	sw	a1,0(s8)
    5f68:	00058713          	mv	a4,a1
    5f6c:	2caa1063          	bne	s4,a0,622c <_malloc_r+0x5b4>
    5f70:	01451793          	sll	a5,a0,0x14
    5f74:	2a079c63          	bnez	a5,622c <_malloc_r+0x5b4>
    5f78:	0089ab83          	lw	s7,8(s3)
    5f7c:	015b07b3          	add	a5,s6,s5
    5f80:	0017e793          	or	a5,a5,1
    5f84:	00fba223          	sw	a5,4(s7)
    5f88:	00006717          	auipc	a4,0x6
    5f8c:	83c70713          	add	a4,a4,-1988 # b7c4 <__malloc_max_sbrked_mem>
    5f90:	00072683          	lw	a3,0(a4)
    5f94:	00b6f463          	bgeu	a3,a1,5f9c <_malloc_r+0x324>
    5f98:	00b72023          	sw	a1,0(a4)
    5f9c:	00006717          	auipc	a4,0x6
    5fa0:	82470713          	add	a4,a4,-2012 # b7c0 <__malloc_max_total_mem>
    5fa4:	00072683          	lw	a3,0(a4)
    5fa8:	00b6f463          	bgeu	a3,a1,5fb0 <_malloc_r+0x338>
    5fac:	00b72023          	sw	a1,0(a4)
    5fb0:	00812c03          	lw	s8,8(sp)
    5fb4:	000b8413          	mv	s0,s7
    5fb8:	ffc7f793          	and	a5,a5,-4
    5fbc:	40978733          	sub	a4,a5,s1
    5fc0:	3897ec63          	bltu	a5,s1,6358 <_malloc_r+0x6e0>
    5fc4:	00f00793          	li	a5,15
    5fc8:	38e7d863          	bge	a5,a4,6358 <_malloc_r+0x6e0>
    5fcc:	01812a03          	lw	s4,24(sp)
    5fd0:	01412a83          	lw	s5,20(sp)
    5fd4:	00c12b83          	lw	s7,12(sp)
    5fd8:	00412c83          	lw	s9,4(sp)
    5fdc:	0014e793          	or	a5,s1,1
    5fe0:	00f42223          	sw	a5,4(s0)
    5fe4:	009404b3          	add	s1,s0,s1
    5fe8:	0099a423          	sw	s1,8(s3)
    5fec:	00176713          	or	a4,a4,1
    5ff0:	00090513          	mv	a0,s2
    5ff4:	00e4a223          	sw	a4,4(s1)
    5ff8:	468000ef          	jal	6460 <__malloc_unlock>
    5ffc:	02c12083          	lw	ra,44(sp)
    6000:	00840513          	add	a0,s0,8
    6004:	02812403          	lw	s0,40(sp)
    6008:	01012b03          	lw	s6,16(sp)
    600c:	02412483          	lw	s1,36(sp)
    6010:	02012903          	lw	s2,32(sp)
    6014:	01c12983          	lw	s3,28(sp)
    6018:	03010113          	add	sp,sp,48
    601c:	00008067          	ret
    6020:	0049a503          	lw	a0,4(s3)
    6024:	dedff06f          	j	5e10 <_malloc_r+0x198>
    6028:	00842603          	lw	a2,8(s0)
    602c:	cb5ff06f          	j	5ce0 <_malloc_r+0x68>
    6030:	00c7a403          	lw	s0,12(a5) # fffff00c <__alt_data_end+0xfffdf00c>
    6034:	00258593          	add	a1,a1,2
    6038:	d68782e3          	beq	a5,s0,5d9c <_malloc_r+0x124>
    603c:	c95ff06f          	j	5cd0 <_malloc_r+0x58>
    6040:	0097d713          	srl	a4,a5,0x9
    6044:	00400693          	li	a3,4
    6048:	14e6f263          	bgeu	a3,a4,618c <_malloc_r+0x514>
    604c:	01400693          	li	a3,20
    6050:	32e6e663          	bltu	a3,a4,637c <_malloc_r+0x704>
    6054:	05c70613          	add	a2,a4,92
    6058:	05b70693          	add	a3,a4,91
    605c:	00361613          	sll	a2,a2,0x3
    6060:	00c98633          	add	a2,s3,a2
    6064:	00062703          	lw	a4,0(a2)
    6068:	ff860613          	add	a2,a2,-8
    606c:	00e61863          	bne	a2,a4,607c <_malloc_r+0x404>
    6070:	2980006f          	j	6308 <_malloc_r+0x690>
    6074:	00872703          	lw	a4,8(a4)
    6078:	00e60863          	beq	a2,a4,6088 <_malloc_r+0x410>
    607c:	00472683          	lw	a3,4(a4)
    6080:	ffc6f693          	and	a3,a3,-4
    6084:	fed7e8e3          	bltu	a5,a3,6074 <_malloc_r+0x3fc>
    6088:	00c72603          	lw	a2,12(a4)
    608c:	00c42623          	sw	a2,12(s0)
    6090:	00e42423          	sw	a4,8(s0)
    6094:	00862423          	sw	s0,8(a2)
    6098:	00872623          	sw	s0,12(a4)
    609c:	d75ff06f          	j	5e10 <_malloc_r+0x198>
    60a0:	01400713          	li	a4,20
    60a4:	10f77863          	bgeu	a4,a5,61b4 <_malloc_r+0x53c>
    60a8:	05400713          	li	a4,84
    60ac:	2ef76663          	bltu	a4,a5,6398 <_malloc_r+0x720>
    60b0:	00c4d793          	srl	a5,s1,0xc
    60b4:	06f78593          	add	a1,a5,111
    60b8:	06e78813          	add	a6,a5,110
    60bc:	00359613          	sll	a2,a1,0x3
    60c0:	c99ff06f          	j	5d58 <_malloc_r+0xe0>
    60c4:	001e0e13          	add	t3,t3,1
    60c8:	003e7793          	and	a5,t3,3
    60cc:	00850513          	add	a0,a0,8
    60d0:	10078063          	beqz	a5,61d0 <_malloc_r+0x558>
    60d4:	00c52783          	lw	a5,12(a0)
    60d8:	d8dff06f          	j	5e64 <_malloc_r+0x1ec>
    60dc:	00842603          	lw	a2,8(s0)
    60e0:	0014e593          	or	a1,s1,1
    60e4:	00b42223          	sw	a1,4(s0)
    60e8:	00f62623          	sw	a5,12(a2)
    60ec:	00c7a423          	sw	a2,8(a5)
    60f0:	009404b3          	add	s1,s0,s1
    60f4:	0099aa23          	sw	s1,20(s3)
    60f8:	0099a823          	sw	s1,16(s3)
    60fc:	0016e793          	or	a5,a3,1
    6100:	0114a623          	sw	a7,12(s1)
    6104:	0114a423          	sw	a7,8(s1)
    6108:	00f4a223          	sw	a5,4(s1)
    610c:	00e40733          	add	a4,s0,a4
    6110:	00090513          	mv	a0,s2
    6114:	00d72023          	sw	a3,0(a4)
    6118:	348000ef          	jal	6460 <__malloc_unlock>
    611c:	00840513          	add	a0,s0,8
    6120:	be5ff06f          	j	5d04 <_malloc_r+0x8c>
    6124:	00f407b3          	add	a5,s0,a5
    6128:	0047a703          	lw	a4,4(a5)
    612c:	00090513          	mv	a0,s2
    6130:	00176713          	or	a4,a4,1
    6134:	00e7a223          	sw	a4,4(a5)
    6138:	328000ef          	jal	6460 <__malloc_unlock>
    613c:	00840513          	add	a0,s0,8
    6140:	bc5ff06f          	j	5d04 <_malloc_r+0x8c>
    6144:	0034d593          	srl	a1,s1,0x3
    6148:	00848793          	add	a5,s1,8
    614c:	b6dff06f          	j	5cb8 <_malloc_r+0x40>
    6150:	0014e693          	or	a3,s1,1
    6154:	00d42223          	sw	a3,4(s0)
    6158:	009404b3          	add	s1,s0,s1
    615c:	0099aa23          	sw	s1,20(s3)
    6160:	0099a823          	sw	s1,16(s3)
    6164:	00176693          	or	a3,a4,1
    6168:	0114a623          	sw	a7,12(s1)
    616c:	0114a423          	sw	a7,8(s1)
    6170:	00d4a223          	sw	a3,4(s1)
    6174:	00f407b3          	add	a5,s0,a5
    6178:	00090513          	mv	a0,s2
    617c:	00e7a023          	sw	a4,0(a5)
    6180:	2e0000ef          	jal	6460 <__malloc_unlock>
    6184:	00840513          	add	a0,s0,8
    6188:	b7dff06f          	j	5d04 <_malloc_r+0x8c>
    618c:	0067d713          	srl	a4,a5,0x6
    6190:	03970613          	add	a2,a4,57
    6194:	03870693          	add	a3,a4,56
    6198:	00361613          	sll	a2,a2,0x3
    619c:	ec5ff06f          	j	6060 <_malloc_r+0x3e8>
    61a0:	07340c63          	beq	s0,s3,6218 <_malloc_r+0x5a0>
    61a4:	0089a403          	lw	s0,8(s3)
    61a8:	00812c03          	lw	s8,8(sp)
    61ac:	00442783          	lw	a5,4(s0)
    61b0:	e09ff06f          	j	5fb8 <_malloc_r+0x340>
    61b4:	05c78593          	add	a1,a5,92
    61b8:	05b78813          	add	a6,a5,91
    61bc:	00359613          	sll	a2,a1,0x3
    61c0:	b99ff06f          	j	5d58 <_malloc_r+0xe0>
    61c4:	00832783          	lw	a5,8(t1)
    61c8:	fff58593          	add	a1,a1,-1
    61cc:	28679063          	bne	a5,t1,644c <_malloc_r+0x7d4>
    61d0:	0035f793          	and	a5,a1,3
    61d4:	ff830313          	add	t1,t1,-8
    61d8:	fe0796e3          	bnez	a5,61c4 <_malloc_r+0x54c>
    61dc:	0049a703          	lw	a4,4(s3)
    61e0:	fff64793          	not	a5,a2
    61e4:	00e7f7b3          	and	a5,a5,a4
    61e8:	00f9a223          	sw	a5,4(s3)
    61ec:	00161613          	sll	a2,a2,0x1
    61f0:	cec7e0e3          	bltu	a5,a2,5ed0 <_malloc_r+0x258>
    61f4:	cc060ee3          	beqz	a2,5ed0 <_malloc_r+0x258>
    61f8:	00f67733          	and	a4,a2,a5
    61fc:	00071a63          	bnez	a4,6210 <_malloc_r+0x598>
    6200:	00161613          	sll	a2,a2,0x1
    6204:	00f67733          	and	a4,a2,a5
    6208:	004e0e13          	add	t3,t3,4
    620c:	fe070ae3          	beqz	a4,6200 <_malloc_r+0x588>
    6210:	000e0593          	mv	a1,t3
    6214:	c3dff06f          	j	5e50 <_malloc_r+0x1d8>
    6218:	00006c17          	auipc	s8,0x6
    621c:	900c0c13          	add	s8,s8,-1792 # bb18 <__malloc_current_mallinfo>
    6220:	000c2703          	lw	a4,0(s8)
    6224:	00ea8733          	add	a4,s5,a4
    6228:	00ec2023          	sw	a4,0(s8)
    622c:	000ca683          	lw	a3,0(s9)
    6230:	fff00793          	li	a5,-1
    6234:	18f68663          	beq	a3,a5,63c0 <_malloc_r+0x748>
    6238:	414b87b3          	sub	a5,s7,s4
    623c:	00e787b3          	add	a5,a5,a4
    6240:	00fc2023          	sw	a5,0(s8)
    6244:	007bfc93          	and	s9,s7,7
    6248:	0c0c8c63          	beqz	s9,6320 <_malloc_r+0x6a8>
    624c:	419b8bb3          	sub	s7,s7,s9
    6250:	000017b7          	lui	a5,0x1
    6254:	00878793          	add	a5,a5,8 # 1008 <alt_avalon_i2c_master_config_speed_get+0x2c>
    6258:	008b8b93          	add	s7,s7,8
    625c:	419785b3          	sub	a1,a5,s9
    6260:	015b8ab3          	add	s5,s7,s5
    6264:	415585b3          	sub	a1,a1,s5
    6268:	01459593          	sll	a1,a1,0x14
    626c:	0145da13          	srl	s4,a1,0x14
    6270:	000a0593          	mv	a1,s4
    6274:	00090513          	mv	a0,s2
    6278:	54c010ef          	jal	77c4 <_sbrk_r>
    627c:	fff00793          	li	a5,-1
    6280:	18f50063          	beq	a0,a5,6400 <_malloc_r+0x788>
    6284:	41750533          	sub	a0,a0,s7
    6288:	01450ab3          	add	s5,a0,s4
    628c:	000c2703          	lw	a4,0(s8)
    6290:	0179a423          	sw	s7,8(s3)
    6294:	001ae793          	or	a5,s5,1
    6298:	00ea05b3          	add	a1,s4,a4
    629c:	00bc2023          	sw	a1,0(s8)
    62a0:	00fba223          	sw	a5,4(s7)
    62a4:	cf3402e3          	beq	s0,s3,5f88 <_malloc_r+0x310>
    62a8:	00f00693          	li	a3,15
    62ac:	0b66f063          	bgeu	a3,s6,634c <_malloc_r+0x6d4>
    62b0:	00442703          	lw	a4,4(s0)
    62b4:	ff4b0793          	add	a5,s6,-12
    62b8:	ff87f793          	and	a5,a5,-8
    62bc:	00177713          	and	a4,a4,1
    62c0:	00f76733          	or	a4,a4,a5
    62c4:	00e42223          	sw	a4,4(s0)
    62c8:	00500613          	li	a2,5
    62cc:	00f40733          	add	a4,s0,a5
    62d0:	00c72223          	sw	a2,4(a4)
    62d4:	00c72423          	sw	a2,8(a4)
    62d8:	00f6e663          	bltu	a3,a5,62e4 <_malloc_r+0x66c>
    62dc:	004ba783          	lw	a5,4(s7)
    62e0:	ca9ff06f          	j	5f88 <_malloc_r+0x310>
    62e4:	00840593          	add	a1,s0,8
    62e8:	00090513          	mv	a0,s2
    62ec:	e6cff0ef          	jal	5958 <_free_r>
    62f0:	0089ab83          	lw	s7,8(s3)
    62f4:	000c2583          	lw	a1,0(s8)
    62f8:	004ba783          	lw	a5,4(s7)
    62fc:	c8dff06f          	j	5f88 <_malloc_r+0x310>
    6300:	010a8a93          	add	s5,s5,16
    6304:	c31ff06f          	j	5f34 <_malloc_r+0x2bc>
    6308:	4026d693          	sra	a3,a3,0x2
    630c:	00100793          	li	a5,1
    6310:	00d797b3          	sll	a5,a5,a3
    6314:	00f56533          	or	a0,a0,a5
    6318:	00a9a223          	sw	a0,4(s3)
    631c:	d71ff06f          	j	608c <_malloc_r+0x414>
    6320:	015b85b3          	add	a1,s7,s5
    6324:	40b005b3          	neg	a1,a1
    6328:	01459593          	sll	a1,a1,0x14
    632c:	0145da13          	srl	s4,a1,0x14
    6330:	000a0593          	mv	a1,s4
    6334:	00090513          	mv	a0,s2
    6338:	48c010ef          	jal	77c4 <_sbrk_r>
    633c:	fff00793          	li	a5,-1
    6340:	f4f512e3          	bne	a0,a5,6284 <_malloc_r+0x60c>
    6344:	00000a13          	li	s4,0
    6348:	f45ff06f          	j	628c <_malloc_r+0x614>
    634c:	00812c03          	lw	s8,8(sp)
    6350:	00100793          	li	a5,1
    6354:	00fba223          	sw	a5,4(s7)
    6358:	00090513          	mv	a0,s2
    635c:	104000ef          	jal	6460 <__malloc_unlock>
    6360:	00000513          	li	a0,0
    6364:	01812a03          	lw	s4,24(sp)
    6368:	01412a83          	lw	s5,20(sp)
    636c:	01012b03          	lw	s6,16(sp)
    6370:	00c12b83          	lw	s7,12(sp)
    6374:	00412c83          	lw	s9,4(sp)
    6378:	98dff06f          	j	5d04 <_malloc_r+0x8c>
    637c:	05400693          	li	a3,84
    6380:	04e6e463          	bltu	a3,a4,63c8 <_malloc_r+0x750>
    6384:	00c7d713          	srl	a4,a5,0xc
    6388:	06f70613          	add	a2,a4,111
    638c:	06e70693          	add	a3,a4,110
    6390:	00361613          	sll	a2,a2,0x3
    6394:	ccdff06f          	j	6060 <_malloc_r+0x3e8>
    6398:	15400713          	li	a4,340
    639c:	04f76463          	bltu	a4,a5,63e4 <_malloc_r+0x76c>
    63a0:	00f4d793          	srl	a5,s1,0xf
    63a4:	07878593          	add	a1,a5,120
    63a8:	07778813          	add	a6,a5,119
    63ac:	00359613          	sll	a2,a1,0x3
    63b0:	9a9ff06f          	j	5d58 <_malloc_r+0xe0>
    63b4:	0089a403          	lw	s0,8(s3)
    63b8:	00442783          	lw	a5,4(s0)
    63bc:	bfdff06f          	j	5fb8 <_malloc_r+0x340>
    63c0:	017ca023          	sw	s7,0(s9)
    63c4:	e81ff06f          	j	6244 <_malloc_r+0x5cc>
    63c8:	15400693          	li	a3,340
    63cc:	04e6e463          	bltu	a3,a4,6414 <_malloc_r+0x79c>
    63d0:	00f7d713          	srl	a4,a5,0xf
    63d4:	07870613          	add	a2,a4,120
    63d8:	07770693          	add	a3,a4,119
    63dc:	00361613          	sll	a2,a2,0x3
    63e0:	c81ff06f          	j	6060 <_malloc_r+0x3e8>
    63e4:	55400713          	li	a4,1364
    63e8:	04f76463          	bltu	a4,a5,6430 <_malloc_r+0x7b8>
    63ec:	0124d793          	srl	a5,s1,0x12
    63f0:	07d78593          	add	a1,a5,125
    63f4:	07c78813          	add	a6,a5,124
    63f8:	00359613          	sll	a2,a1,0x3
    63fc:	95dff06f          	j	5d58 <_malloc_r+0xe0>
    6400:	ff8c8c93          	add	s9,s9,-8
    6404:	019a8ab3          	add	s5,s5,s9
    6408:	417a8ab3          	sub	s5,s5,s7
    640c:	00000a13          	li	s4,0
    6410:	e7dff06f          	j	628c <_malloc_r+0x614>
    6414:	55400693          	li	a3,1364
    6418:	02e6e463          	bltu	a3,a4,6440 <_malloc_r+0x7c8>
    641c:	0127d713          	srl	a4,a5,0x12
    6420:	07d70613          	add	a2,a4,125
    6424:	07c70693          	add	a3,a4,124
    6428:	00361613          	sll	a2,a2,0x3
    642c:	c35ff06f          	j	6060 <_malloc_r+0x3e8>
    6430:	3f800613          	li	a2,1016
    6434:	07f00593          	li	a1,127
    6438:	07e00813          	li	a6,126
    643c:	91dff06f          	j	5d58 <_malloc_r+0xe0>
    6440:	3f800613          	li	a2,1016
    6444:	07e00693          	li	a3,126
    6448:	c19ff06f          	j	6060 <_malloc_r+0x3e8>
    644c:	0049a783          	lw	a5,4(s3)
    6450:	d9dff06f          	j	61ec <_malloc_r+0x574>

00006454 <__malloc_lock>:
    6454:	00005517          	auipc	a0,0x5
    6458:	35450513          	add	a0,a0,852 # b7a8 <__lock___malloc_recursive_mutex>
    645c:	d29fe06f          	j	5184 <__retarget_lock_acquire_recursive>

00006460 <__malloc_unlock>:
    6460:	00005517          	auipc	a0,0x5
    6464:	34850513          	add	a0,a0,840 # b7a8 <__lock___malloc_recursive_mutex>
    6468:	d35fe06f          	j	519c <__retarget_lock_release_recursive>

0000646c <_fclose_r>:
    646c:	ff010113          	add	sp,sp,-16
    6470:	00112623          	sw	ra,12(sp)
    6474:	01212023          	sw	s2,0(sp)
    6478:	0e058263          	beqz	a1,655c <_fclose_r+0xf0>
    647c:	00812423          	sw	s0,8(sp)
    6480:	00912223          	sw	s1,4(sp)
    6484:	00058413          	mv	s0,a1
    6488:	00050493          	mv	s1,a0
    648c:	00050663          	beqz	a0,6498 <_fclose_r+0x2c>
    6490:	03452783          	lw	a5,52(a0)
    6494:	10078063          	beqz	a5,6594 <_fclose_r+0x128>
    6498:	06442783          	lw	a5,100(s0)
    649c:	00c41703          	lh	a4,12(s0)
    64a0:	0017f793          	and	a5,a5,1
    64a4:	0a079663          	bnez	a5,6550 <_fclose_r+0xe4>
    64a8:	20077713          	and	a4,a4,512
    64ac:	0e070863          	beqz	a4,659c <_fclose_r+0x130>
    64b0:	00040593          	mv	a1,s0
    64b4:	00048513          	mv	a0,s1
    64b8:	130000ef          	jal	65e8 <__sflush_r>
    64bc:	02c42783          	lw	a5,44(s0)
    64c0:	00050913          	mv	s2,a0
    64c4:	00078a63          	beqz	a5,64d8 <_fclose_r+0x6c>
    64c8:	01c42583          	lw	a1,28(s0)
    64cc:	00048513          	mv	a0,s1
    64d0:	000780e7          	jalr	a5
    64d4:	0a054063          	bltz	a0,6574 <_fclose_r+0x108>
    64d8:	00c45783          	lhu	a5,12(s0)
    64dc:	0807f793          	and	a5,a5,128
    64e0:	0a079263          	bnez	a5,6584 <_fclose_r+0x118>
    64e4:	03042583          	lw	a1,48(s0)
    64e8:	00058c63          	beqz	a1,6500 <_fclose_r+0x94>
    64ec:	04040793          	add	a5,s0,64
    64f0:	00f58663          	beq	a1,a5,64fc <_fclose_r+0x90>
    64f4:	00048513          	mv	a0,s1
    64f8:	c60ff0ef          	jal	5958 <_free_r>
    64fc:	02042823          	sw	zero,48(s0)
    6500:	04442583          	lw	a1,68(s0)
    6504:	00058863          	beqz	a1,6514 <_fclose_r+0xa8>
    6508:	00048513          	mv	a0,s1
    650c:	c4cff0ef          	jal	5958 <_free_r>
    6510:	04042223          	sw	zero,68(s0)
    6514:	ca0fe0ef          	jal	49b4 <__sfp_lock_acquire>
    6518:	06442783          	lw	a5,100(s0)
    651c:	00041623          	sh	zero,12(s0)
    6520:	0017f793          	and	a5,a5,1
    6524:	0a078663          	beqz	a5,65d0 <_fclose_r+0x164>
    6528:	05842503          	lw	a0,88(s0)
    652c:	c51fe0ef          	jal	517c <__retarget_lock_close_recursive>
    6530:	c90fe0ef          	jal	49c0 <__sfp_lock_release>
    6534:	00c12083          	lw	ra,12(sp)
    6538:	00812403          	lw	s0,8(sp)
    653c:	00412483          	lw	s1,4(sp)
    6540:	00090513          	mv	a0,s2
    6544:	00012903          	lw	s2,0(sp)
    6548:	01010113          	add	sp,sp,16
    654c:	00008067          	ret
    6550:	f60710e3          	bnez	a4,64b0 <_fclose_r+0x44>
    6554:	00812403          	lw	s0,8(sp)
    6558:	00412483          	lw	s1,4(sp)
    655c:	00000913          	li	s2,0
    6560:	00c12083          	lw	ra,12(sp)
    6564:	00090513          	mv	a0,s2
    6568:	00012903          	lw	s2,0(sp)
    656c:	01010113          	add	sp,sp,16
    6570:	00008067          	ret
    6574:	00c45783          	lhu	a5,12(s0)
    6578:	fff00913          	li	s2,-1
    657c:	0807f793          	and	a5,a5,128
    6580:	f60782e3          	beqz	a5,64e4 <_fclose_r+0x78>
    6584:	01042583          	lw	a1,16(s0)
    6588:	00048513          	mv	a0,s1
    658c:	bccff0ef          	jal	5958 <_free_r>
    6590:	f55ff06f          	j	64e4 <_fclose_r+0x78>
    6594:	bb0fe0ef          	jal	4944 <__sinit>
    6598:	f01ff06f          	j	6498 <_fclose_r+0x2c>
    659c:	05842503          	lw	a0,88(s0)
    65a0:	be5fe0ef          	jal	5184 <__retarget_lock_acquire_recursive>
    65a4:	00c41783          	lh	a5,12(s0)
    65a8:	f00794e3          	bnez	a5,64b0 <_fclose_r+0x44>
    65ac:	06442783          	lw	a5,100(s0)
    65b0:	0017f793          	and	a5,a5,1
    65b4:	fa0790e3          	bnez	a5,6554 <_fclose_r+0xe8>
    65b8:	05842503          	lw	a0,88(s0)
    65bc:	00000913          	li	s2,0
    65c0:	bddfe0ef          	jal	519c <__retarget_lock_release_recursive>
    65c4:	00812403          	lw	s0,8(sp)
    65c8:	00412483          	lw	s1,4(sp)
    65cc:	f95ff06f          	j	6560 <_fclose_r+0xf4>
    65d0:	05842503          	lw	a0,88(s0)
    65d4:	bc9fe0ef          	jal	519c <__retarget_lock_release_recursive>
    65d8:	f51ff06f          	j	6528 <_fclose_r+0xbc>

000065dc <fclose>:
    65dc:	00050593          	mv	a1,a0
    65e0:	8281a503          	lw	a0,-2008(gp) # 9f90 <_impure_ptr>
    65e4:	e89ff06f          	j	646c <_fclose_r>

000065e8 <__sflush_r>:
    65e8:	00c59703          	lh	a4,12(a1)
    65ec:	fe010113          	add	sp,sp,-32
    65f0:	00812c23          	sw	s0,24(sp)
    65f4:	01312623          	sw	s3,12(sp)
    65f8:	00112e23          	sw	ra,28(sp)
    65fc:	00877793          	and	a5,a4,8
    6600:	00058413          	mv	s0,a1
    6604:	00050993          	mv	s3,a0
    6608:	12079063          	bnez	a5,6728 <__sflush_r+0x140>
    660c:	000017b7          	lui	a5,0x1
    6610:	80078793          	add	a5,a5,-2048 # 800 <alt_main+0x20>
    6614:	0045a683          	lw	a3,4(a1)
    6618:	00f767b3          	or	a5,a4,a5
    661c:	00f59623          	sh	a5,12(a1)
    6620:	18d05263          	blez	a3,67a4 <__sflush_r+0x1bc>
    6624:	02842803          	lw	a6,40(s0)
    6628:	0e080463          	beqz	a6,6710 <__sflush_r+0x128>
    662c:	00912a23          	sw	s1,20(sp)
    6630:	01371693          	sll	a3,a4,0x13
    6634:	0009a483          	lw	s1,0(s3)
    6638:	0009a023          	sw	zero,0(s3)
    663c:	01c42583          	lw	a1,28(s0)
    6640:	1606ce63          	bltz	a3,67bc <__sflush_r+0x1d4>
    6644:	00000613          	li	a2,0
    6648:	00100693          	li	a3,1
    664c:	00098513          	mv	a0,s3
    6650:	000800e7          	jalr	a6
    6654:	fff00793          	li	a5,-1
    6658:	00050613          	mv	a2,a0
    665c:	1af50463          	beq	a0,a5,6804 <__sflush_r+0x21c>
    6660:	00c41783          	lh	a5,12(s0)
    6664:	02842803          	lw	a6,40(s0)
    6668:	01c42583          	lw	a1,28(s0)
    666c:	0047f793          	and	a5,a5,4
    6670:	00078e63          	beqz	a5,668c <__sflush_r+0xa4>
    6674:	00442703          	lw	a4,4(s0)
    6678:	03042783          	lw	a5,48(s0)
    667c:	40e60633          	sub	a2,a2,a4
    6680:	00078663          	beqz	a5,668c <__sflush_r+0xa4>
    6684:	03c42783          	lw	a5,60(s0)
    6688:	40f60633          	sub	a2,a2,a5
    668c:	00000693          	li	a3,0
    6690:	00098513          	mv	a0,s3
    6694:	000800e7          	jalr	a6
    6698:	fff00793          	li	a5,-1
    669c:	12f51463          	bne	a0,a5,67c4 <__sflush_r+0x1dc>
    66a0:	0009a683          	lw	a3,0(s3)
    66a4:	01d00793          	li	a5,29
    66a8:	00c41703          	lh	a4,12(s0)
    66ac:	16d7ea63          	bltu	a5,a3,6820 <__sflush_r+0x238>
    66b0:	204007b7          	lui	a5,0x20400
    66b4:	00178793          	add	a5,a5,1 # 20400001 <__alt_data_end+0x203e0001>
    66b8:	00d7d7b3          	srl	a5,a5,a3
    66bc:	0017f793          	and	a5,a5,1
    66c0:	16078063          	beqz	a5,6820 <__sflush_r+0x238>
    66c4:	01042603          	lw	a2,16(s0)
    66c8:	fffff7b7          	lui	a5,0xfffff
    66cc:	7ff78793          	add	a5,a5,2047 # fffff7ff <__alt_data_end+0xfffdf7ff>
    66d0:	00f777b3          	and	a5,a4,a5
    66d4:	00f41623          	sh	a5,12(s0)
    66d8:	00042223          	sw	zero,4(s0)
    66dc:	00c42023          	sw	a2,0(s0)
    66e0:	01371793          	sll	a5,a4,0x13
    66e4:	0007d463          	bgez	a5,66ec <__sflush_r+0x104>
    66e8:	10068263          	beqz	a3,67ec <__sflush_r+0x204>
    66ec:	03042583          	lw	a1,48(s0)
    66f0:	0099a023          	sw	s1,0(s3)
    66f4:	10058463          	beqz	a1,67fc <__sflush_r+0x214>
    66f8:	04040793          	add	a5,s0,64
    66fc:	00f58663          	beq	a1,a5,6708 <__sflush_r+0x120>
    6700:	00098513          	mv	a0,s3
    6704:	a54ff0ef          	jal	5958 <_free_r>
    6708:	01412483          	lw	s1,20(sp)
    670c:	02042823          	sw	zero,48(s0)
    6710:	00000513          	li	a0,0
    6714:	01c12083          	lw	ra,28(sp)
    6718:	01812403          	lw	s0,24(sp)
    671c:	00c12983          	lw	s3,12(sp)
    6720:	02010113          	add	sp,sp,32
    6724:	00008067          	ret
    6728:	01212823          	sw	s2,16(sp)
    672c:	0105a903          	lw	s2,16(a1)
    6730:	08090263          	beqz	s2,67b4 <__sflush_r+0x1cc>
    6734:	00912a23          	sw	s1,20(sp)
    6738:	0005a483          	lw	s1,0(a1)
    673c:	00377713          	and	a4,a4,3
    6740:	0125a023          	sw	s2,0(a1)
    6744:	412484b3          	sub	s1,s1,s2
    6748:	00000793          	li	a5,0
    674c:	00071463          	bnez	a4,6754 <__sflush_r+0x16c>
    6750:	0145a783          	lw	a5,20(a1)
    6754:	00f42423          	sw	a5,8(s0)
    6758:	00904863          	bgtz	s1,6768 <__sflush_r+0x180>
    675c:	0540006f          	j	67b0 <__sflush_r+0x1c8>
    6760:	00a90933          	add	s2,s2,a0
    6764:	04905663          	blez	s1,67b0 <__sflush_r+0x1c8>
    6768:	02442783          	lw	a5,36(s0)
    676c:	01c42583          	lw	a1,28(s0)
    6770:	00048693          	mv	a3,s1
    6774:	00090613          	mv	a2,s2
    6778:	00098513          	mv	a0,s3
    677c:	000780e7          	jalr	a5
    6780:	40a484b3          	sub	s1,s1,a0
    6784:	fca04ee3          	bgtz	a0,6760 <__sflush_r+0x178>
    6788:	00c41703          	lh	a4,12(s0)
    678c:	01012903          	lw	s2,16(sp)
    6790:	04076713          	or	a4,a4,64
    6794:	01412483          	lw	s1,20(sp)
    6798:	00e41623          	sh	a4,12(s0)
    679c:	fff00513          	li	a0,-1
    67a0:	f75ff06f          	j	6714 <__sflush_r+0x12c>
    67a4:	03c5a683          	lw	a3,60(a1)
    67a8:	e6d04ee3          	bgtz	a3,6624 <__sflush_r+0x3c>
    67ac:	f65ff06f          	j	6710 <__sflush_r+0x128>
    67b0:	01412483          	lw	s1,20(sp)
    67b4:	01012903          	lw	s2,16(sp)
    67b8:	f59ff06f          	j	6710 <__sflush_r+0x128>
    67bc:	05042603          	lw	a2,80(s0)
    67c0:	eadff06f          	j	666c <__sflush_r+0x84>
    67c4:	00c41703          	lh	a4,12(s0)
    67c8:	01042683          	lw	a3,16(s0)
    67cc:	fffff7b7          	lui	a5,0xfffff
    67d0:	7ff78793          	add	a5,a5,2047 # fffff7ff <__alt_data_end+0xfffdf7ff>
    67d4:	00f777b3          	and	a5,a4,a5
    67d8:	00f41623          	sh	a5,12(s0)
    67dc:	00042223          	sw	zero,4(s0)
    67e0:	00d42023          	sw	a3,0(s0)
    67e4:	01371793          	sll	a5,a4,0x13
    67e8:	f007d2e3          	bgez	a5,66ec <__sflush_r+0x104>
    67ec:	03042583          	lw	a1,48(s0)
    67f0:	04a42823          	sw	a0,80(s0)
    67f4:	0099a023          	sw	s1,0(s3)
    67f8:	f00590e3          	bnez	a1,66f8 <__sflush_r+0x110>
    67fc:	01412483          	lw	s1,20(sp)
    6800:	f11ff06f          	j	6710 <__sflush_r+0x128>
    6804:	0009a783          	lw	a5,0(s3)
    6808:	e4078ce3          	beqz	a5,6660 <__sflush_r+0x78>
    680c:	01d00713          	li	a4,29
    6810:	00e78c63          	beq	a5,a4,6828 <__sflush_r+0x240>
    6814:	01600713          	li	a4,22
    6818:	00e78863          	beq	a5,a4,6828 <__sflush_r+0x240>
    681c:	00c41703          	lh	a4,12(s0)
    6820:	04076713          	or	a4,a4,64
    6824:	f71ff06f          	j	6794 <__sflush_r+0x1ac>
    6828:	0099a023          	sw	s1,0(s3)
    682c:	01412483          	lw	s1,20(sp)
    6830:	ee1ff06f          	j	6710 <__sflush_r+0x128>

00006834 <_fflush_r>:
    6834:	ff010113          	add	sp,sp,-16
    6838:	00812423          	sw	s0,8(sp)
    683c:	00912223          	sw	s1,4(sp)
    6840:	00112623          	sw	ra,12(sp)
    6844:	01212023          	sw	s2,0(sp)
    6848:	00050493          	mv	s1,a0
    684c:	00058413          	mv	s0,a1
    6850:	00050663          	beqz	a0,685c <_fflush_r+0x28>
    6854:	03452783          	lw	a5,52(a0)
    6858:	0a078a63          	beqz	a5,690c <_fflush_r+0xd8>
    685c:	00c41783          	lh	a5,12(s0)
    6860:	00000913          	li	s2,0
    6864:	04078063          	beqz	a5,68a4 <_fflush_r+0x70>
    6868:	06442703          	lw	a4,100(s0)
    686c:	00177713          	and	a4,a4,1
    6870:	00071663          	bnez	a4,687c <_fflush_r+0x48>
    6874:	2007f793          	and	a5,a5,512
    6878:	04078463          	beqz	a5,68c0 <_fflush_r+0x8c>
    687c:	00040593          	mv	a1,s0
    6880:	00048513          	mv	a0,s1
    6884:	d65ff0ef          	jal	65e8 <__sflush_r>
    6888:	06442783          	lw	a5,100(s0)
    688c:	00050913          	mv	s2,a0
    6890:	0017f793          	and	a5,a5,1
    6894:	00079863          	bnez	a5,68a4 <_fflush_r+0x70>
    6898:	00c45783          	lhu	a5,12(s0)
    689c:	2007f793          	and	a5,a5,512
    68a0:	04078463          	beqz	a5,68e8 <_fflush_r+0xb4>
    68a4:	00c12083          	lw	ra,12(sp)
    68a8:	00812403          	lw	s0,8(sp)
    68ac:	00412483          	lw	s1,4(sp)
    68b0:	00090513          	mv	a0,s2
    68b4:	00012903          	lw	s2,0(sp)
    68b8:	01010113          	add	sp,sp,16
    68bc:	00008067          	ret
    68c0:	05842503          	lw	a0,88(s0)
    68c4:	8c1fe0ef          	jal	5184 <__retarget_lock_acquire_recursive>
    68c8:	00040593          	mv	a1,s0
    68cc:	00048513          	mv	a0,s1
    68d0:	d19ff0ef          	jal	65e8 <__sflush_r>
    68d4:	06442783          	lw	a5,100(s0)
    68d8:	00050913          	mv	s2,a0
    68dc:	0017f793          	and	a5,a5,1
    68e0:	fc0792e3          	bnez	a5,68a4 <_fflush_r+0x70>
    68e4:	fb5ff06f          	j	6898 <_fflush_r+0x64>
    68e8:	05842503          	lw	a0,88(s0)
    68ec:	8b1fe0ef          	jal	519c <__retarget_lock_release_recursive>
    68f0:	00c12083          	lw	ra,12(sp)
    68f4:	00812403          	lw	s0,8(sp)
    68f8:	00412483          	lw	s1,4(sp)
    68fc:	00090513          	mv	a0,s2
    6900:	00012903          	lw	s2,0(sp)
    6904:	01010113          	add	sp,sp,16
    6908:	00008067          	ret
    690c:	838fe0ef          	jal	4944 <__sinit>
    6910:	f4dff06f          	j	685c <_fflush_r+0x28>

00006914 <fflush>:
    6914:	0a050a63          	beqz	a0,69c8 <fflush+0xb4>
    6918:	ff010113          	add	sp,sp,-16
    691c:	00812423          	sw	s0,8(sp)
    6920:	01212023          	sw	s2,0(sp)
    6924:	00112623          	sw	ra,12(sp)
    6928:	00912223          	sw	s1,4(sp)
    692c:	8281a903          	lw	s2,-2008(gp) # 9f90 <_impure_ptr>
    6930:	00050413          	mv	s0,a0
    6934:	00090663          	beqz	s2,6940 <fflush+0x2c>
    6938:	03492783          	lw	a5,52(s2)
    693c:	06078463          	beqz	a5,69a4 <fflush+0x90>
    6940:	00c41783          	lh	a5,12(s0)
    6944:	00000493          	li	s1,0
    6948:	04078063          	beqz	a5,6988 <fflush+0x74>
    694c:	06442703          	lw	a4,100(s0)
    6950:	00177713          	and	a4,a4,1
    6954:	00071663          	bnez	a4,6960 <fflush+0x4c>
    6958:	2007f793          	and	a5,a5,512
    695c:	04078a63          	beqz	a5,69b0 <fflush+0x9c>
    6960:	00040593          	mv	a1,s0
    6964:	00090513          	mv	a0,s2
    6968:	c81ff0ef          	jal	65e8 <__sflush_r>
    696c:	06442783          	lw	a5,100(s0)
    6970:	00050493          	mv	s1,a0
    6974:	0017f793          	and	a5,a5,1
    6978:	00079863          	bnez	a5,6988 <fflush+0x74>
    697c:	00c45783          	lhu	a5,12(s0)
    6980:	2007f793          	and	a5,a5,512
    6984:	02078c63          	beqz	a5,69bc <fflush+0xa8>
    6988:	00c12083          	lw	ra,12(sp)
    698c:	00812403          	lw	s0,8(sp)
    6990:	00012903          	lw	s2,0(sp)
    6994:	00048513          	mv	a0,s1
    6998:	00412483          	lw	s1,4(sp)
    699c:	01010113          	add	sp,sp,16
    69a0:	00008067          	ret
    69a4:	00090513          	mv	a0,s2
    69a8:	f9dfd0ef          	jal	4944 <__sinit>
    69ac:	f95ff06f          	j	6940 <fflush+0x2c>
    69b0:	05842503          	lw	a0,88(s0)
    69b4:	fd0fe0ef          	jal	5184 <__retarget_lock_acquire_recursive>
    69b8:	fa9ff06f          	j	6960 <fflush+0x4c>
    69bc:	05842503          	lw	a0,88(s0)
    69c0:	fdcfe0ef          	jal	519c <__retarget_lock_release_recursive>
    69c4:	fc5ff06f          	j	6988 <fflush+0x74>
    69c8:	00003617          	auipc	a2,0x3
    69cc:	06860613          	add	a2,a2,104 # 9a30 <__sglue>
    69d0:	00000597          	auipc	a1,0x0
    69d4:	e6458593          	add	a1,a1,-412 # 6834 <_fflush_r>
    69d8:	00003517          	auipc	a0,0x3
    69dc:	06850513          	add	a0,a0,104 # 9a40 <_impure_data>
    69e0:	854fe06f          	j	4a34 <_fwalk_sglue>

000069e4 <__smakebuf_r>:
    69e4:	00c59783          	lh	a5,12(a1)
    69e8:	f8010113          	add	sp,sp,-128
    69ec:	06812c23          	sw	s0,120(sp)
    69f0:	06112e23          	sw	ra,124(sp)
    69f4:	0027f713          	and	a4,a5,2
    69f8:	00058413          	mv	s0,a1
    69fc:	02070463          	beqz	a4,6a24 <__smakebuf_r+0x40>
    6a00:	04358793          	add	a5,a1,67
    6a04:	00f5a023          	sw	a5,0(a1)
    6a08:	00f5a823          	sw	a5,16(a1)
    6a0c:	00100793          	li	a5,1
    6a10:	00f5aa23          	sw	a5,20(a1)
    6a14:	07c12083          	lw	ra,124(sp)
    6a18:	07812403          	lw	s0,120(sp)
    6a1c:	08010113          	add	sp,sp,128
    6a20:	00008067          	ret
    6a24:	00e59583          	lh	a1,14(a1)
    6a28:	06912a23          	sw	s1,116(sp)
    6a2c:	07212823          	sw	s2,112(sp)
    6a30:	07312623          	sw	s3,108(sp)
    6a34:	07412423          	sw	s4,104(sp)
    6a38:	00050493          	mv	s1,a0
    6a3c:	0805c663          	bltz	a1,6ac8 <__smakebuf_r+0xe4>
    6a40:	00810613          	add	a2,sp,8
    6a44:	401000ef          	jal	7644 <_fstat_r>
    6a48:	06054e63          	bltz	a0,6ac4 <__smakebuf_r+0xe0>
    6a4c:	00c12783          	lw	a5,12(sp)
    6a50:	0000f937          	lui	s2,0xf
    6a54:	000019b7          	lui	s3,0x1
    6a58:	00f97933          	and	s2,s2,a5
    6a5c:	ffffe7b7          	lui	a5,0xffffe
    6a60:	00f90933          	add	s2,s2,a5
    6a64:	00193913          	seqz	s2,s2
    6a68:	40000a13          	li	s4,1024
    6a6c:	80098993          	add	s3,s3,-2048 # 800 <alt_main+0x20>
    6a70:	000a0593          	mv	a1,s4
    6a74:	00048513          	mv	a0,s1
    6a78:	a00ff0ef          	jal	5c78 <_malloc_r>
    6a7c:	00c41783          	lh	a5,12(s0)
    6a80:	06050863          	beqz	a0,6af0 <__smakebuf_r+0x10c>
    6a84:	0807e793          	or	a5,a5,128
    6a88:	00a42023          	sw	a0,0(s0)
    6a8c:	00a42823          	sw	a0,16(s0)
    6a90:	00f41623          	sh	a5,12(s0)
    6a94:	01442a23          	sw	s4,20(s0)
    6a98:	0a091063          	bnez	s2,6b38 <__smakebuf_r+0x154>
    6a9c:	0137e7b3          	or	a5,a5,s3
    6aa0:	07c12083          	lw	ra,124(sp)
    6aa4:	00f41623          	sh	a5,12(s0)
    6aa8:	07812403          	lw	s0,120(sp)
    6aac:	07412483          	lw	s1,116(sp)
    6ab0:	07012903          	lw	s2,112(sp)
    6ab4:	06c12983          	lw	s3,108(sp)
    6ab8:	06812a03          	lw	s4,104(sp)
    6abc:	08010113          	add	sp,sp,128
    6ac0:	00008067          	ret
    6ac4:	00c41783          	lh	a5,12(s0)
    6ac8:	0807f793          	and	a5,a5,128
    6acc:	00000913          	li	s2,0
    6ad0:	04078e63          	beqz	a5,6b2c <__smakebuf_r+0x148>
    6ad4:	04000a13          	li	s4,64
    6ad8:	000a0593          	mv	a1,s4
    6adc:	00048513          	mv	a0,s1
    6ae0:	998ff0ef          	jal	5c78 <_malloc_r>
    6ae4:	00c41783          	lh	a5,12(s0)
    6ae8:	00000993          	li	s3,0
    6aec:	f8051ce3          	bnez	a0,6a84 <__smakebuf_r+0xa0>
    6af0:	2007f713          	and	a4,a5,512
    6af4:	04071e63          	bnez	a4,6b50 <__smakebuf_r+0x16c>
    6af8:	ffc7f793          	and	a5,a5,-4
    6afc:	0027e793          	or	a5,a5,2
    6b00:	04340713          	add	a4,s0,67
    6b04:	00f41623          	sh	a5,12(s0)
    6b08:	00100793          	li	a5,1
    6b0c:	07412483          	lw	s1,116(sp)
    6b10:	07012903          	lw	s2,112(sp)
    6b14:	06c12983          	lw	s3,108(sp)
    6b18:	06812a03          	lw	s4,104(sp)
    6b1c:	00e42023          	sw	a4,0(s0)
    6b20:	00e42823          	sw	a4,16(s0)
    6b24:	00f42a23          	sw	a5,20(s0)
    6b28:	eedff06f          	j	6a14 <__smakebuf_r+0x30>
    6b2c:	40000a13          	li	s4,1024
    6b30:	00000993          	li	s3,0
    6b34:	f3dff06f          	j	6a70 <__smakebuf_r+0x8c>
    6b38:	00e41583          	lh	a1,14(s0)
    6b3c:	00048513          	mv	a0,s1
    6b40:	365000ef          	jal	76a4 <_isatty_r>
    6b44:	02051063          	bnez	a0,6b64 <__smakebuf_r+0x180>
    6b48:	00c41783          	lh	a5,12(s0)
    6b4c:	f51ff06f          	j	6a9c <__smakebuf_r+0xb8>
    6b50:	07412483          	lw	s1,116(sp)
    6b54:	07012903          	lw	s2,112(sp)
    6b58:	06c12983          	lw	s3,108(sp)
    6b5c:	06812a03          	lw	s4,104(sp)
    6b60:	eb5ff06f          	j	6a14 <__smakebuf_r+0x30>
    6b64:	00c45783          	lhu	a5,12(s0)
    6b68:	ffc7f793          	and	a5,a5,-4
    6b6c:	0017e793          	or	a5,a5,1
    6b70:	01079793          	sll	a5,a5,0x10
    6b74:	4107d793          	sra	a5,a5,0x10
    6b78:	f25ff06f          	j	6a9c <__smakebuf_r+0xb8>

00006b7c <__swhatbuf_r>:
    6b7c:	f9010113          	add	sp,sp,-112
    6b80:	06812423          	sw	s0,104(sp)
    6b84:	00058413          	mv	s0,a1
    6b88:	00e59583          	lh	a1,14(a1)
    6b8c:	06912223          	sw	s1,100(sp)
    6b90:	07212023          	sw	s2,96(sp)
    6b94:	06112623          	sw	ra,108(sp)
    6b98:	00060493          	mv	s1,a2
    6b9c:	00068913          	mv	s2,a3
    6ba0:	0405ca63          	bltz	a1,6bf4 <__swhatbuf_r+0x78>
    6ba4:	00810613          	add	a2,sp,8
    6ba8:	29d000ef          	jal	7644 <_fstat_r>
    6bac:	04054463          	bltz	a0,6bf4 <__swhatbuf_r+0x78>
    6bb0:	00c12703          	lw	a4,12(sp)
    6bb4:	0000f7b7          	lui	a5,0xf
    6bb8:	06c12083          	lw	ra,108(sp)
    6bbc:	00e7f7b3          	and	a5,a5,a4
    6bc0:	ffffe737          	lui	a4,0xffffe
    6bc4:	00e787b3          	add	a5,a5,a4
    6bc8:	06812403          	lw	s0,104(sp)
    6bcc:	0017b793          	seqz	a5,a5
    6bd0:	00f92023          	sw	a5,0(s2) # f000 <__alt_heap_start+0x34c0>
    6bd4:	40000713          	li	a4,1024
    6bd8:	00e4a023          	sw	a4,0(s1)
    6bdc:	00001537          	lui	a0,0x1
    6be0:	06412483          	lw	s1,100(sp)
    6be4:	06012903          	lw	s2,96(sp)
    6be8:	80050513          	add	a0,a0,-2048 # 800 <alt_main+0x20>
    6bec:	07010113          	add	sp,sp,112
    6bf0:	00008067          	ret
    6bf4:	00c45783          	lhu	a5,12(s0)
    6bf8:	0807f793          	and	a5,a5,128
    6bfc:	02078863          	beqz	a5,6c2c <__swhatbuf_r+0xb0>
    6c00:	06c12083          	lw	ra,108(sp)
    6c04:	06812403          	lw	s0,104(sp)
    6c08:	00000793          	li	a5,0
    6c0c:	00f92023          	sw	a5,0(s2)
    6c10:	04000713          	li	a4,64
    6c14:	00e4a023          	sw	a4,0(s1)
    6c18:	06012903          	lw	s2,96(sp)
    6c1c:	06412483          	lw	s1,100(sp)
    6c20:	00000513          	li	a0,0
    6c24:	07010113          	add	sp,sp,112
    6c28:	00008067          	ret
    6c2c:	06c12083          	lw	ra,108(sp)
    6c30:	06812403          	lw	s0,104(sp)
    6c34:	00f92023          	sw	a5,0(s2)
    6c38:	40000713          	li	a4,1024
    6c3c:	00e4a023          	sw	a4,0(s1)
    6c40:	06012903          	lw	s2,96(sp)
    6c44:	06412483          	lw	s1,100(sp)
    6c48:	00000513          	li	a0,0
    6c4c:	07010113          	add	sp,sp,112
    6c50:	00008067          	ret

00006c54 <_putc_r>:
    6c54:	fe010113          	add	sp,sp,-32
    6c58:	00812c23          	sw	s0,24(sp)
    6c5c:	01212a23          	sw	s2,20(sp)
    6c60:	00112e23          	sw	ra,28(sp)
    6c64:	00050913          	mv	s2,a0
    6c68:	00060413          	mv	s0,a2
    6c6c:	00050663          	beqz	a0,6c78 <_putc_r+0x24>
    6c70:	03452783          	lw	a5,52(a0)
    6c74:	0c078663          	beqz	a5,6d40 <_putc_r+0xec>
    6c78:	06442783          	lw	a5,100(s0)
    6c7c:	0017f793          	and	a5,a5,1
    6c80:	00079863          	bnez	a5,6c90 <_putc_r+0x3c>
    6c84:	00c45783          	lhu	a5,12(s0)
    6c88:	2007f793          	and	a5,a5,512
    6c8c:	08078063          	beqz	a5,6d0c <_putc_r+0xb8>
    6c90:	00842783          	lw	a5,8(s0)
    6c94:	fff78793          	add	a5,a5,-1 # efff <__alt_heap_start+0x34bf>
    6c98:	00f42423          	sw	a5,8(s0)
    6c9c:	0007dc63          	bgez	a5,6cb4 <_putc_r+0x60>
    6ca0:	01842703          	lw	a4,24(s0)
    6ca4:	04e7ca63          	blt	a5,a4,6cf8 <_putc_r+0xa4>
    6ca8:	0ff5f793          	zext.b	a5,a1
    6cac:	00a00713          	li	a4,10
    6cb0:	04e78463          	beq	a5,a4,6cf8 <_putc_r+0xa4>
    6cb4:	00042783          	lw	a5,0(s0)
    6cb8:	0ff5f913          	zext.b	s2,a1
    6cbc:	00178713          	add	a4,a5,1
    6cc0:	00e42023          	sw	a4,0(s0)
    6cc4:	00b78023          	sb	a1,0(a5)
    6cc8:	06442783          	lw	a5,100(s0)
    6ccc:	0017f793          	and	a5,a5,1
    6cd0:	00079863          	bnez	a5,6ce0 <_putc_r+0x8c>
    6cd4:	00c45783          	lhu	a5,12(s0)
    6cd8:	2007f793          	and	a5,a5,512
    6cdc:	04078263          	beqz	a5,6d20 <_putc_r+0xcc>
    6ce0:	01c12083          	lw	ra,28(sp)
    6ce4:	01812403          	lw	s0,24(sp)
    6ce8:	00090513          	mv	a0,s2
    6cec:	01412903          	lw	s2,20(sp)
    6cf0:	02010113          	add	sp,sp,32
    6cf4:	00008067          	ret
    6cf8:	00090513          	mv	a0,s2
    6cfc:	00040613          	mv	a2,s0
    6d00:	154000ef          	jal	6e54 <__swbuf_r>
    6d04:	00050913          	mv	s2,a0
    6d08:	fc1ff06f          	j	6cc8 <_putc_r+0x74>
    6d0c:	05842503          	lw	a0,88(s0)
    6d10:	00b12623          	sw	a1,12(sp)
    6d14:	c70fe0ef          	jal	5184 <__retarget_lock_acquire_recursive>
    6d18:	00c12583          	lw	a1,12(sp)
    6d1c:	f75ff06f          	j	6c90 <_putc_r+0x3c>
    6d20:	05842503          	lw	a0,88(s0)
    6d24:	c78fe0ef          	jal	519c <__retarget_lock_release_recursive>
    6d28:	01c12083          	lw	ra,28(sp)
    6d2c:	01812403          	lw	s0,24(sp)
    6d30:	00090513          	mv	a0,s2
    6d34:	01412903          	lw	s2,20(sp)
    6d38:	02010113          	add	sp,sp,32
    6d3c:	00008067          	ret
    6d40:	00b12623          	sw	a1,12(sp)
    6d44:	c01fd0ef          	jal	4944 <__sinit>
    6d48:	00c12583          	lw	a1,12(sp)
    6d4c:	f2dff06f          	j	6c78 <_putc_r+0x24>

00006d50 <putc>:
    6d50:	ff010113          	add	sp,sp,-16
    6d54:	00812423          	sw	s0,8(sp)
    6d58:	00912223          	sw	s1,4(sp)
    6d5c:	01212023          	sw	s2,0(sp)
    6d60:	00112623          	sw	ra,12(sp)
    6d64:	8281a903          	lw	s2,-2008(gp) # 9f90 <_impure_ptr>
    6d68:	00050493          	mv	s1,a0
    6d6c:	00058413          	mv	s0,a1
    6d70:	00090663          	beqz	s2,6d7c <putc+0x2c>
    6d74:	03492783          	lw	a5,52(s2)
    6d78:	0c078863          	beqz	a5,6e48 <putc+0xf8>
    6d7c:	06442783          	lw	a5,100(s0)
    6d80:	0017f793          	and	a5,a5,1
    6d84:	00079863          	bnez	a5,6d94 <putc+0x44>
    6d88:	00c45783          	lhu	a5,12(s0)
    6d8c:	2007f793          	and	a5,a5,512
    6d90:	08078463          	beqz	a5,6e18 <putc+0xc8>
    6d94:	00842783          	lw	a5,8(s0)
    6d98:	fff78793          	add	a5,a5,-1
    6d9c:	00f42423          	sw	a5,8(s0)
    6da0:	0007dc63          	bgez	a5,6db8 <putc+0x68>
    6da4:	01842703          	lw	a4,24(s0)
    6da8:	04e7cc63          	blt	a5,a4,6e00 <putc+0xb0>
    6dac:	0ff4f793          	zext.b	a5,s1
    6db0:	00a00713          	li	a4,10
    6db4:	04e78663          	beq	a5,a4,6e00 <putc+0xb0>
    6db8:	00042783          	lw	a5,0(s0)
    6dbc:	0ff4f913          	zext.b	s2,s1
    6dc0:	00178713          	add	a4,a5,1
    6dc4:	00e42023          	sw	a4,0(s0)
    6dc8:	00978023          	sb	s1,0(a5)
    6dcc:	06442783          	lw	a5,100(s0)
    6dd0:	0017f793          	and	a5,a5,1
    6dd4:	00079863          	bnez	a5,6de4 <putc+0x94>
    6dd8:	00c45783          	lhu	a5,12(s0)
    6ddc:	2007f793          	and	a5,a5,512
    6de0:	04078263          	beqz	a5,6e24 <putc+0xd4>
    6de4:	00c12083          	lw	ra,12(sp)
    6de8:	00812403          	lw	s0,8(sp)
    6dec:	00412483          	lw	s1,4(sp)
    6df0:	00090513          	mv	a0,s2
    6df4:	00012903          	lw	s2,0(sp)
    6df8:	01010113          	add	sp,sp,16
    6dfc:	00008067          	ret
    6e00:	00090513          	mv	a0,s2
    6e04:	00040613          	mv	a2,s0
    6e08:	00048593          	mv	a1,s1
    6e0c:	048000ef          	jal	6e54 <__swbuf_r>
    6e10:	00050913          	mv	s2,a0
    6e14:	fb9ff06f          	j	6dcc <putc+0x7c>
    6e18:	05842503          	lw	a0,88(s0)
    6e1c:	b68fe0ef          	jal	5184 <__retarget_lock_acquire_recursive>
    6e20:	f75ff06f          	j	6d94 <putc+0x44>
    6e24:	05842503          	lw	a0,88(s0)
    6e28:	b74fe0ef          	jal	519c <__retarget_lock_release_recursive>
    6e2c:	00c12083          	lw	ra,12(sp)
    6e30:	00812403          	lw	s0,8(sp)
    6e34:	00412483          	lw	s1,4(sp)
    6e38:	00090513          	mv	a0,s2
    6e3c:	00012903          	lw	s2,0(sp)
    6e40:	01010113          	add	sp,sp,16
    6e44:	00008067          	ret
    6e48:	00090513          	mv	a0,s2
    6e4c:	af9fd0ef          	jal	4944 <__sinit>
    6e50:	f2dff06f          	j	6d7c <putc+0x2c>

00006e54 <__swbuf_r>:
    6e54:	fe010113          	add	sp,sp,-32
    6e58:	00812c23          	sw	s0,24(sp)
    6e5c:	00912a23          	sw	s1,20(sp)
    6e60:	01212823          	sw	s2,16(sp)
    6e64:	00112e23          	sw	ra,28(sp)
    6e68:	00050913          	mv	s2,a0
    6e6c:	00058493          	mv	s1,a1
    6e70:	00060413          	mv	s0,a2
    6e74:	00050663          	beqz	a0,6e80 <__swbuf_r+0x2c>
    6e78:	03452783          	lw	a5,52(a0)
    6e7c:	12078863          	beqz	a5,6fac <__swbuf_r+0x158>
    6e80:	01842703          	lw	a4,24(s0)
    6e84:	00c41783          	lh	a5,12(s0)
    6e88:	00e42423          	sw	a4,8(s0)
    6e8c:	0087f713          	and	a4,a5,8
    6e90:	08070863          	beqz	a4,6f20 <__swbuf_r+0xcc>
    6e94:	01042703          	lw	a4,16(s0)
    6e98:	08070463          	beqz	a4,6f20 <__swbuf_r+0xcc>
    6e9c:	01312623          	sw	s3,12(sp)
    6ea0:	01279693          	sll	a3,a5,0x12
    6ea4:	0ff4f993          	zext.b	s3,s1
    6ea8:	06442703          	lw	a4,100(s0)
    6eac:	0ff4f493          	zext.b	s1,s1
    6eb0:	0806de63          	bgez	a3,6f4c <__swbuf_r+0xf8>
    6eb4:	01271793          	sll	a5,a4,0x12
    6eb8:	0c07c663          	bltz	a5,6f84 <__swbuf_r+0x130>
    6ebc:	00042703          	lw	a4,0(s0)
    6ec0:	01042783          	lw	a5,16(s0)
    6ec4:	01442683          	lw	a3,20(s0)
    6ec8:	40f707b3          	sub	a5,a4,a5
    6ecc:	0cd7d263          	bge	a5,a3,6f90 <__swbuf_r+0x13c>
    6ed0:	00178793          	add	a5,a5,1
    6ed4:	00842683          	lw	a3,8(s0)
    6ed8:	00170613          	add	a2,a4,1 # ffffe001 <__alt_data_end+0xfffde001>
    6edc:	00c42023          	sw	a2,0(s0)
    6ee0:	fff68693          	add	a3,a3,-1
    6ee4:	00d42423          	sw	a3,8(s0)
    6ee8:	01370023          	sb	s3,0(a4)
    6eec:	01442703          	lw	a4,20(s0)
    6ef0:	08f70263          	beq	a4,a5,6f74 <__swbuf_r+0x120>
    6ef4:	00c45783          	lhu	a5,12(s0)
    6ef8:	0017f793          	and	a5,a5,1
    6efc:	06079863          	bnez	a5,6f6c <__swbuf_r+0x118>
    6f00:	00c12983          	lw	s3,12(sp)
    6f04:	01c12083          	lw	ra,28(sp)
    6f08:	01812403          	lw	s0,24(sp)
    6f0c:	01012903          	lw	s2,16(sp)
    6f10:	00048513          	mv	a0,s1
    6f14:	01412483          	lw	s1,20(sp)
    6f18:	02010113          	add	sp,sp,32
    6f1c:	00008067          	ret
    6f20:	00040593          	mv	a1,s0
    6f24:	00090513          	mv	a0,s2
    6f28:	09c000ef          	jal	6fc4 <__swsetup_r>
    6f2c:	04051e63          	bnez	a0,6f88 <__swbuf_r+0x134>
    6f30:	00c41783          	lh	a5,12(s0)
    6f34:	01312623          	sw	s3,12(sp)
    6f38:	06442703          	lw	a4,100(s0)
    6f3c:	01279693          	sll	a3,a5,0x12
    6f40:	0ff4f993          	zext.b	s3,s1
    6f44:	0ff4f493          	zext.b	s1,s1
    6f48:	f606c6e3          	bltz	a3,6eb4 <__swbuf_r+0x60>
    6f4c:	ffffe6b7          	lui	a3,0xffffe
    6f50:	fff68693          	add	a3,a3,-1 # ffffdfff <__alt_data_end+0xfffddfff>
    6f54:	00002637          	lui	a2,0x2
    6f58:	00c7e7b3          	or	a5,a5,a2
    6f5c:	00d77733          	and	a4,a4,a3
    6f60:	00f41623          	sh	a5,12(s0)
    6f64:	06e42223          	sw	a4,100(s0)
    6f68:	f4dff06f          	j	6eb4 <__swbuf_r+0x60>
    6f6c:	00a00793          	li	a5,10
    6f70:	f8f498e3          	bne	s1,a5,6f00 <__swbuf_r+0xac>
    6f74:	00040593          	mv	a1,s0
    6f78:	00090513          	mv	a0,s2
    6f7c:	8b9ff0ef          	jal	6834 <_fflush_r>
    6f80:	f80500e3          	beqz	a0,6f00 <__swbuf_r+0xac>
    6f84:	00c12983          	lw	s3,12(sp)
    6f88:	fff00493          	li	s1,-1
    6f8c:	f79ff06f          	j	6f04 <__swbuf_r+0xb0>
    6f90:	00040593          	mv	a1,s0
    6f94:	00090513          	mv	a0,s2
    6f98:	89dff0ef          	jal	6834 <_fflush_r>
    6f9c:	fe0514e3          	bnez	a0,6f84 <__swbuf_r+0x130>
    6fa0:	00042703          	lw	a4,0(s0)
    6fa4:	00100793          	li	a5,1
    6fa8:	f2dff06f          	j	6ed4 <__swbuf_r+0x80>
    6fac:	999fd0ef          	jal	4944 <__sinit>
    6fb0:	ed1ff06f          	j	6e80 <__swbuf_r+0x2c>

00006fb4 <__swbuf>:
    6fb4:	00058613          	mv	a2,a1
    6fb8:	00050593          	mv	a1,a0
    6fbc:	8281a503          	lw	a0,-2008(gp) # 9f90 <_impure_ptr>
    6fc0:	e95ff06f          	j	6e54 <__swbuf_r>

00006fc4 <__swsetup_r>:
    6fc4:	ff010113          	add	sp,sp,-16
    6fc8:	00812423          	sw	s0,8(sp)
    6fcc:	00912223          	sw	s1,4(sp)
    6fd0:	00112623          	sw	ra,12(sp)
    6fd4:	8281a783          	lw	a5,-2008(gp) # 9f90 <_impure_ptr>
    6fd8:	00050493          	mv	s1,a0
    6fdc:	00058413          	mv	s0,a1
    6fe0:	00078663          	beqz	a5,6fec <__swsetup_r+0x28>
    6fe4:	0347a703          	lw	a4,52(a5)
    6fe8:	0e070c63          	beqz	a4,70e0 <__swsetup_r+0x11c>
    6fec:	00c41783          	lh	a5,12(s0)
    6ff0:	0087f713          	and	a4,a5,8
    6ff4:	06070a63          	beqz	a4,7068 <__swsetup_r+0xa4>
    6ff8:	01042703          	lw	a4,16(s0)
    6ffc:	08070663          	beqz	a4,7088 <__swsetup_r+0xc4>
    7000:	0017f693          	and	a3,a5,1
    7004:	02068863          	beqz	a3,7034 <__swsetup_r+0x70>
    7008:	01442683          	lw	a3,20(s0)
    700c:	00042423          	sw	zero,8(s0)
    7010:	00000513          	li	a0,0
    7014:	40d006b3          	neg	a3,a3
    7018:	00d42c23          	sw	a3,24(s0)
    701c:	02070a63          	beqz	a4,7050 <__swsetup_r+0x8c>
    7020:	00c12083          	lw	ra,12(sp)
    7024:	00812403          	lw	s0,8(sp)
    7028:	00412483          	lw	s1,4(sp)
    702c:	01010113          	add	sp,sp,16
    7030:	00008067          	ret
    7034:	0027f693          	and	a3,a5,2
    7038:	00000613          	li	a2,0
    703c:	00069463          	bnez	a3,7044 <__swsetup_r+0x80>
    7040:	01442603          	lw	a2,20(s0)
    7044:	00c42423          	sw	a2,8(s0)
    7048:	00000513          	li	a0,0
    704c:	fc071ae3          	bnez	a4,7020 <__swsetup_r+0x5c>
    7050:	0807f713          	and	a4,a5,128
    7054:	fc0706e3          	beqz	a4,7020 <__swsetup_r+0x5c>
    7058:	0407e793          	or	a5,a5,64
    705c:	00f41623          	sh	a5,12(s0)
    7060:	fff00513          	li	a0,-1
    7064:	fbdff06f          	j	7020 <__swsetup_r+0x5c>
    7068:	0107f713          	and	a4,a5,16
    706c:	08070063          	beqz	a4,70ec <__swsetup_r+0x128>
    7070:	0047f713          	and	a4,a5,4
    7074:	02071c63          	bnez	a4,70ac <__swsetup_r+0xe8>
    7078:	01042703          	lw	a4,16(s0)
    707c:	0087e793          	or	a5,a5,8
    7080:	00f41623          	sh	a5,12(s0)
    7084:	f6071ee3          	bnez	a4,7000 <__swsetup_r+0x3c>
    7088:	2807f693          	and	a3,a5,640
    708c:	20000613          	li	a2,512
    7090:	f6c688e3          	beq	a3,a2,7000 <__swsetup_r+0x3c>
    7094:	00040593          	mv	a1,s0
    7098:	00048513          	mv	a0,s1
    709c:	949ff0ef          	jal	69e4 <__smakebuf_r>
    70a0:	00c41783          	lh	a5,12(s0)
    70a4:	01042703          	lw	a4,16(s0)
    70a8:	f59ff06f          	j	7000 <__swsetup_r+0x3c>
    70ac:	03042583          	lw	a1,48(s0)
    70b0:	00058e63          	beqz	a1,70cc <__swsetup_r+0x108>
    70b4:	04040713          	add	a4,s0,64
    70b8:	00e58863          	beq	a1,a4,70c8 <__swsetup_r+0x104>
    70bc:	00048513          	mv	a0,s1
    70c0:	899fe0ef          	jal	5958 <_free_r>
    70c4:	00c41783          	lh	a5,12(s0)
    70c8:	02042823          	sw	zero,48(s0)
    70cc:	01042703          	lw	a4,16(s0)
    70d0:	fdb7f793          	and	a5,a5,-37
    70d4:	00042223          	sw	zero,4(s0)
    70d8:	00e42023          	sw	a4,0(s0)
    70dc:	fa1ff06f          	j	707c <__swsetup_r+0xb8>
    70e0:	00078513          	mv	a0,a5
    70e4:	861fd0ef          	jal	4944 <__sinit>
    70e8:	f05ff06f          	j	6fec <__swsetup_r+0x28>
    70ec:	00900713          	li	a4,9
    70f0:	00e4a023          	sw	a4,0(s1)
    70f4:	0407e793          	or	a5,a5,64
    70f8:	00f41623          	sh	a5,12(s0)
    70fc:	fff00513          	li	a0,-1
    7100:	f21ff06f          	j	7020 <__swsetup_r+0x5c>

00007104 <_init_signal_r>:
    7104:	11852783          	lw	a5,280(a0)
    7108:	00078663          	beqz	a5,7114 <_init_signal_r+0x10>
    710c:	00000513          	li	a0,0
    7110:	00008067          	ret
    7114:	ff010113          	add	sp,sp,-16
    7118:	08000593          	li	a1,128
    711c:	00812423          	sw	s0,8(sp)
    7120:	00112623          	sw	ra,12(sp)
    7124:	00050413          	mv	s0,a0
    7128:	b51fe0ef          	jal	5c78 <_malloc_r>
    712c:	10a42c23          	sw	a0,280(s0)
    7130:	02050463          	beqz	a0,7158 <_init_signal_r+0x54>
    7134:	08050793          	add	a5,a0,128
    7138:	00052023          	sw	zero,0(a0)
    713c:	00450513          	add	a0,a0,4
    7140:	fef51ce3          	bne	a0,a5,7138 <_init_signal_r+0x34>
    7144:	00000513          	li	a0,0
    7148:	00c12083          	lw	ra,12(sp)
    714c:	00812403          	lw	s0,8(sp)
    7150:	01010113          	add	sp,sp,16
    7154:	00008067          	ret
    7158:	fff00513          	li	a0,-1
    715c:	fedff06f          	j	7148 <_init_signal_r+0x44>

00007160 <_signal_r>:
    7160:	fe010113          	add	sp,sp,-32
    7164:	00912a23          	sw	s1,20(sp)
    7168:	00112e23          	sw	ra,28(sp)
    716c:	01f00793          	li	a5,31
    7170:	00050493          	mv	s1,a0
    7174:	02b7ec63          	bltu	a5,a1,71ac <_signal_r+0x4c>
    7178:	11852783          	lw	a5,280(a0)
    717c:	00812c23          	sw	s0,24(sp)
    7180:	00058413          	mv	s0,a1
    7184:	02078c63          	beqz	a5,71bc <_signal_r+0x5c>
    7188:	00241413          	sll	s0,s0,0x2
    718c:	008787b3          	add	a5,a5,s0
    7190:	01812403          	lw	s0,24(sp)
    7194:	0007a503          	lw	a0,0(a5)
    7198:	00c7a023          	sw	a2,0(a5)
    719c:	01c12083          	lw	ra,28(sp)
    71a0:	01412483          	lw	s1,20(sp)
    71a4:	02010113          	add	sp,sp,32
    71a8:	00008067          	ret
    71ac:	01600793          	li	a5,22
    71b0:	00f52023          	sw	a5,0(a0)
    71b4:	fff00513          	li	a0,-1
    71b8:	fe5ff06f          	j	719c <_signal_r+0x3c>
    71bc:	08000593          	li	a1,128
    71c0:	00c12623          	sw	a2,12(sp)
    71c4:	ab5fe0ef          	jal	5c78 <_malloc_r>
    71c8:	10a4ac23          	sw	a0,280(s1)
    71cc:	00c12603          	lw	a2,12(sp)
    71d0:	00050793          	mv	a5,a0
    71d4:	00050713          	mv	a4,a0
    71d8:	08050693          	add	a3,a0,128
    71dc:	00050a63          	beqz	a0,71f0 <_signal_r+0x90>
    71e0:	00072023          	sw	zero,0(a4)
    71e4:	00470713          	add	a4,a4,4
    71e8:	fed71ce3          	bne	a4,a3,71e0 <_signal_r+0x80>
    71ec:	f9dff06f          	j	7188 <_signal_r+0x28>
    71f0:	01812403          	lw	s0,24(sp)
    71f4:	fff00513          	li	a0,-1
    71f8:	fa5ff06f          	j	719c <_signal_r+0x3c>

000071fc <_raise_r>:
    71fc:	ff010113          	add	sp,sp,-16
    7200:	00912223          	sw	s1,4(sp)
    7204:	00112623          	sw	ra,12(sp)
    7208:	01f00793          	li	a5,31
    720c:	00050493          	mv	s1,a0
    7210:	0ab7e063          	bltu	a5,a1,72b0 <_raise_r+0xb4>
    7214:	11852783          	lw	a5,280(a0)
    7218:	00812423          	sw	s0,8(sp)
    721c:	00058413          	mv	s0,a1
    7220:	04078463          	beqz	a5,7268 <_raise_r+0x6c>
    7224:	00259713          	sll	a4,a1,0x2
    7228:	00e787b3          	add	a5,a5,a4
    722c:	0007a703          	lw	a4,0(a5)
    7230:	02070c63          	beqz	a4,7268 <_raise_r+0x6c>
    7234:	00100693          	li	a3,1
    7238:	00d70c63          	beq	a4,a3,7250 <_raise_r+0x54>
    723c:	fff00693          	li	a3,-1
    7240:	04d70863          	beq	a4,a3,7290 <_raise_r+0x94>
    7244:	0007a023          	sw	zero,0(a5)
    7248:	00058513          	mv	a0,a1
    724c:	000700e7          	jalr	a4
    7250:	00812403          	lw	s0,8(sp)
    7254:	00000513          	li	a0,0
    7258:	00c12083          	lw	ra,12(sp)
    725c:	00412483          	lw	s1,4(sp)
    7260:	01010113          	add	sp,sp,16
    7264:	00008067          	ret
    7268:	00048513          	mv	a0,s1
    726c:	554000ef          	jal	77c0 <_getpid_r>
    7270:	00040613          	mv	a2,s0
    7274:	00812403          	lw	s0,8(sp)
    7278:	00c12083          	lw	ra,12(sp)
    727c:	00050593          	mv	a1,a0
    7280:	00048513          	mv	a0,s1
    7284:	00412483          	lw	s1,4(sp)
    7288:	01010113          	add	sp,sp,16
    728c:	4d40006f          	j	7760 <_kill_r>
    7290:	00812403          	lw	s0,8(sp)
    7294:	00c12083          	lw	ra,12(sp)
    7298:	01600793          	li	a5,22
    729c:	00f52023          	sw	a5,0(a0)
    72a0:	00412483          	lw	s1,4(sp)
    72a4:	00100513          	li	a0,1
    72a8:	01010113          	add	sp,sp,16
    72ac:	00008067          	ret
    72b0:	01600793          	li	a5,22
    72b4:	00f52023          	sw	a5,0(a0)
    72b8:	fff00513          	li	a0,-1
    72bc:	f9dff06f          	j	7258 <_raise_r+0x5c>

000072c0 <__sigtramp_r>:
    72c0:	01f00793          	li	a5,31
    72c4:	0cb7ea63          	bltu	a5,a1,7398 <__sigtramp_r+0xd8>
    72c8:	11852783          	lw	a5,280(a0)
    72cc:	ff010113          	add	sp,sp,-16
    72d0:	00812423          	sw	s0,8(sp)
    72d4:	00912223          	sw	s1,4(sp)
    72d8:	00112623          	sw	ra,12(sp)
    72dc:	00058413          	mv	s0,a1
    72e0:	00050493          	mv	s1,a0
    72e4:	08078063          	beqz	a5,7364 <__sigtramp_r+0xa4>
    72e8:	00241713          	sll	a4,s0,0x2
    72ec:	00e787b3          	add	a5,a5,a4
    72f0:	0007a703          	lw	a4,0(a5)
    72f4:	02070c63          	beqz	a4,732c <__sigtramp_r+0x6c>
    72f8:	fff00693          	li	a3,-1
    72fc:	06d70063          	beq	a4,a3,735c <__sigtramp_r+0x9c>
    7300:	00100693          	li	a3,1
    7304:	04d70063          	beq	a4,a3,7344 <__sigtramp_r+0x84>
    7308:	00040513          	mv	a0,s0
    730c:	0007a023          	sw	zero,0(a5)
    7310:	000700e7          	jalr	a4
    7314:	00000513          	li	a0,0
    7318:	00c12083          	lw	ra,12(sp)
    731c:	00812403          	lw	s0,8(sp)
    7320:	00412483          	lw	s1,4(sp)
    7324:	01010113          	add	sp,sp,16
    7328:	00008067          	ret
    732c:	00c12083          	lw	ra,12(sp)
    7330:	00812403          	lw	s0,8(sp)
    7334:	00412483          	lw	s1,4(sp)
    7338:	00100513          	li	a0,1
    733c:	01010113          	add	sp,sp,16
    7340:	00008067          	ret
    7344:	00c12083          	lw	ra,12(sp)
    7348:	00812403          	lw	s0,8(sp)
    734c:	00412483          	lw	s1,4(sp)
    7350:	00300513          	li	a0,3
    7354:	01010113          	add	sp,sp,16
    7358:	00008067          	ret
    735c:	00200513          	li	a0,2
    7360:	fb9ff06f          	j	7318 <__sigtramp_r+0x58>
    7364:	08000593          	li	a1,128
    7368:	911fe0ef          	jal	5c78 <_malloc_r>
    736c:	10a4ac23          	sw	a0,280(s1)
    7370:	00050793          	mv	a5,a0
    7374:	00050e63          	beqz	a0,7390 <__sigtramp_r+0xd0>
    7378:	00050713          	mv	a4,a0
    737c:	08050693          	add	a3,a0,128
    7380:	00072023          	sw	zero,0(a4)
    7384:	00470713          	add	a4,a4,4
    7388:	fed71ce3          	bne	a4,a3,7380 <__sigtramp_r+0xc0>
    738c:	f5dff06f          	j	72e8 <__sigtramp_r+0x28>
    7390:	fff00513          	li	a0,-1
    7394:	f85ff06f          	j	7318 <__sigtramp_r+0x58>
    7398:	fff00513          	li	a0,-1
    739c:	00008067          	ret

000073a0 <raise>:
    73a0:	ff010113          	add	sp,sp,-16
    73a4:	00912223          	sw	s1,4(sp)
    73a8:	00112623          	sw	ra,12(sp)
    73ac:	01f00793          	li	a5,31
    73b0:	8281a483          	lw	s1,-2008(gp) # 9f90 <_impure_ptr>
    73b4:	08a7ee63          	bltu	a5,a0,7450 <raise+0xb0>
    73b8:	1184a783          	lw	a5,280(s1)
    73bc:	00812423          	sw	s0,8(sp)
    73c0:	00050413          	mv	s0,a0
    73c4:	04078263          	beqz	a5,7408 <raise+0x68>
    73c8:	00251713          	sll	a4,a0,0x2
    73cc:	00e787b3          	add	a5,a5,a4
    73d0:	0007a703          	lw	a4,0(a5)
    73d4:	02070a63          	beqz	a4,7408 <raise+0x68>
    73d8:	00100693          	li	a3,1
    73dc:	00d70a63          	beq	a4,a3,73f0 <raise+0x50>
    73e0:	fff00693          	li	a3,-1
    73e4:	04d70663          	beq	a4,a3,7430 <raise+0x90>
    73e8:	0007a023          	sw	zero,0(a5)
    73ec:	000700e7          	jalr	a4
    73f0:	00812403          	lw	s0,8(sp)
    73f4:	00000513          	li	a0,0
    73f8:	00c12083          	lw	ra,12(sp)
    73fc:	00412483          	lw	s1,4(sp)
    7400:	01010113          	add	sp,sp,16
    7404:	00008067          	ret
    7408:	00048513          	mv	a0,s1
    740c:	3b4000ef          	jal	77c0 <_getpid_r>
    7410:	00040613          	mv	a2,s0
    7414:	00812403          	lw	s0,8(sp)
    7418:	00c12083          	lw	ra,12(sp)
    741c:	00050593          	mv	a1,a0
    7420:	00048513          	mv	a0,s1
    7424:	00412483          	lw	s1,4(sp)
    7428:	01010113          	add	sp,sp,16
    742c:	3340006f          	j	7760 <_kill_r>
    7430:	00812403          	lw	s0,8(sp)
    7434:	00c12083          	lw	ra,12(sp)
    7438:	01600793          	li	a5,22
    743c:	00f4a023          	sw	a5,0(s1)
    7440:	00100513          	li	a0,1
    7444:	00412483          	lw	s1,4(sp)
    7448:	01010113          	add	sp,sp,16
    744c:	00008067          	ret
    7450:	01600793          	li	a5,22
    7454:	00f4a023          	sw	a5,0(s1)
    7458:	fff00513          	li	a0,-1
    745c:	f9dff06f          	j	73f8 <raise+0x58>

00007460 <signal>:
    7460:	ff010113          	add	sp,sp,-16
    7464:	01212023          	sw	s2,0(sp)
    7468:	00112623          	sw	ra,12(sp)
    746c:	01f00793          	li	a5,31
    7470:	8281a903          	lw	s2,-2008(gp) # 9f90 <_impure_ptr>
    7474:	04a7e263          	bltu	a5,a0,74b8 <signal+0x58>
    7478:	00812423          	sw	s0,8(sp)
    747c:	00050413          	mv	s0,a0
    7480:	11892503          	lw	a0,280(s2)
    7484:	00912223          	sw	s1,4(sp)
    7488:	00058493          	mv	s1,a1
    748c:	02050e63          	beqz	a0,74c8 <signal+0x68>
    7490:	00241413          	sll	s0,s0,0x2
    7494:	008507b3          	add	a5,a0,s0
    7498:	0007a503          	lw	a0,0(a5)
    749c:	00812403          	lw	s0,8(sp)
    74a0:	0097a023          	sw	s1,0(a5)
    74a4:	00412483          	lw	s1,4(sp)
    74a8:	00c12083          	lw	ra,12(sp)
    74ac:	00012903          	lw	s2,0(sp)
    74b0:	01010113          	add	sp,sp,16
    74b4:	00008067          	ret
    74b8:	01600793          	li	a5,22
    74bc:	00f92023          	sw	a5,0(s2)
    74c0:	fff00513          	li	a0,-1
    74c4:	fe5ff06f          	j	74a8 <signal+0x48>
    74c8:	08000593          	li	a1,128
    74cc:	00090513          	mv	a0,s2
    74d0:	fa8fe0ef          	jal	5c78 <_malloc_r>
    74d4:	10a92c23          	sw	a0,280(s2)
    74d8:	00050793          	mv	a5,a0
    74dc:	08050713          	add	a4,a0,128
    74e0:	00050a63          	beqz	a0,74f4 <signal+0x94>
    74e4:	0007a023          	sw	zero,0(a5)
    74e8:	00478793          	add	a5,a5,4
    74ec:	fef71ce3          	bne	a4,a5,74e4 <signal+0x84>
    74f0:	fa1ff06f          	j	7490 <signal+0x30>
    74f4:	00812403          	lw	s0,8(sp)
    74f8:	00412483          	lw	s1,4(sp)
    74fc:	fff00513          	li	a0,-1
    7500:	fa9ff06f          	j	74a8 <signal+0x48>

00007504 <_init_signal>:
    7504:	ff010113          	add	sp,sp,-16
    7508:	00812423          	sw	s0,8(sp)
    750c:	8281a403          	lw	s0,-2008(gp) # 9f90 <_impure_ptr>
    7510:	11842783          	lw	a5,280(s0)
    7514:	00112623          	sw	ra,12(sp)
    7518:	00078c63          	beqz	a5,7530 <_init_signal+0x2c>
    751c:	00000513          	li	a0,0
    7520:	00c12083          	lw	ra,12(sp)
    7524:	00812403          	lw	s0,8(sp)
    7528:	01010113          	add	sp,sp,16
    752c:	00008067          	ret
    7530:	08000593          	li	a1,128
    7534:	00040513          	mv	a0,s0
    7538:	f40fe0ef          	jal	5c78 <_malloc_r>
    753c:	10a42c23          	sw	a0,280(s0)
    7540:	00050c63          	beqz	a0,7558 <_init_signal+0x54>
    7544:	08050793          	add	a5,a0,128
    7548:	00052023          	sw	zero,0(a0)
    754c:	00450513          	add	a0,a0,4
    7550:	fef51ce3          	bne	a0,a5,7548 <_init_signal+0x44>
    7554:	fc9ff06f          	j	751c <_init_signal+0x18>
    7558:	fff00513          	li	a0,-1
    755c:	fc5ff06f          	j	7520 <_init_signal+0x1c>

00007560 <__sigtramp>:
    7560:	ff010113          	add	sp,sp,-16
    7564:	00912223          	sw	s1,4(sp)
    7568:	00112623          	sw	ra,12(sp)
    756c:	01f00793          	li	a5,31
    7570:	8281a483          	lw	s1,-2008(gp) # 9f90 <_impure_ptr>
    7574:	0ca7e463          	bltu	a5,a0,763c <__sigtramp+0xdc>
    7578:	1184a783          	lw	a5,280(s1)
    757c:	00812423          	sw	s0,8(sp)
    7580:	00050413          	mv	s0,a0
    7584:	08078263          	beqz	a5,7608 <__sigtramp+0xa8>
    7588:	00241713          	sll	a4,s0,0x2
    758c:	00e787b3          	add	a5,a5,a4
    7590:	0007a703          	lw	a4,0(a5)
    7594:	02070c63          	beqz	a4,75cc <__sigtramp+0x6c>
    7598:	fff00693          	li	a3,-1
    759c:	06d70063          	beq	a4,a3,75fc <__sigtramp+0x9c>
    75a0:	00100693          	li	a3,1
    75a4:	04d70063          	beq	a4,a3,75e4 <__sigtramp+0x84>
    75a8:	00040513          	mv	a0,s0
    75ac:	0007a023          	sw	zero,0(a5)
    75b0:	000700e7          	jalr	a4
    75b4:	00812403          	lw	s0,8(sp)
    75b8:	00000513          	li	a0,0
    75bc:	00c12083          	lw	ra,12(sp)
    75c0:	00412483          	lw	s1,4(sp)
    75c4:	01010113          	add	sp,sp,16
    75c8:	00008067          	ret
    75cc:	00812403          	lw	s0,8(sp)
    75d0:	00c12083          	lw	ra,12(sp)
    75d4:	00412483          	lw	s1,4(sp)
    75d8:	00100513          	li	a0,1
    75dc:	01010113          	add	sp,sp,16
    75e0:	00008067          	ret
    75e4:	00812403          	lw	s0,8(sp)
    75e8:	00c12083          	lw	ra,12(sp)
    75ec:	00412483          	lw	s1,4(sp)
    75f0:	00300513          	li	a0,3
    75f4:	01010113          	add	sp,sp,16
    75f8:	00008067          	ret
    75fc:	00812403          	lw	s0,8(sp)
    7600:	00200513          	li	a0,2
    7604:	fb9ff06f          	j	75bc <__sigtramp+0x5c>
    7608:	08000593          	li	a1,128
    760c:	00048513          	mv	a0,s1
    7610:	e68fe0ef          	jal	5c78 <_malloc_r>
    7614:	10a4ac23          	sw	a0,280(s1)
    7618:	00050793          	mv	a5,a0
    761c:	00050e63          	beqz	a0,7638 <__sigtramp+0xd8>
    7620:	00050713          	mv	a4,a0
    7624:	08050693          	add	a3,a0,128
    7628:	00072023          	sw	zero,0(a4)
    762c:	00470713          	add	a4,a4,4
    7630:	fee69ce3          	bne	a3,a4,7628 <__sigtramp+0xc8>
    7634:	f55ff06f          	j	7588 <__sigtramp+0x28>
    7638:	00812403          	lw	s0,8(sp)
    763c:	fff00513          	li	a0,-1
    7640:	f7dff06f          	j	75bc <__sigtramp+0x5c>

00007644 <_fstat_r>:
    7644:	ff010113          	add	sp,sp,-16
    7648:	00058713          	mv	a4,a1
    764c:	00812423          	sw	s0,8(sp)
    7650:	00060593          	mv	a1,a2
    7654:	00050413          	mv	s0,a0
    7658:	00070513          	mv	a0,a4
    765c:	00004797          	auipc	a5,0x4
    7660:	1207ac23          	sw	zero,312(a5) # b794 <errno>
    7664:	00112623          	sw	ra,12(sp)
    7668:	480000ef          	jal	7ae8 <_fstat>
    766c:	fff00793          	li	a5,-1
    7670:	00f50a63          	beq	a0,a5,7684 <_fstat_r+0x40>
    7674:	00c12083          	lw	ra,12(sp)
    7678:	00812403          	lw	s0,8(sp)
    767c:	01010113          	add	sp,sp,16
    7680:	00008067          	ret
    7684:	00004797          	auipc	a5,0x4
    7688:	1107a783          	lw	a5,272(a5) # b794 <errno>
    768c:	fe0784e3          	beqz	a5,7674 <_fstat_r+0x30>
    7690:	00c12083          	lw	ra,12(sp)
    7694:	00f42023          	sw	a5,0(s0)
    7698:	00812403          	lw	s0,8(sp)
    769c:	01010113          	add	sp,sp,16
    76a0:	00008067          	ret

000076a4 <_isatty_r>:
    76a4:	ff010113          	add	sp,sp,-16
    76a8:	00812423          	sw	s0,8(sp)
    76ac:	00050413          	mv	s0,a0
    76b0:	00058513          	mv	a0,a1
    76b4:	00004797          	auipc	a5,0x4
    76b8:	0e07a023          	sw	zero,224(a5) # b794 <errno>
    76bc:	00112623          	sw	ra,12(sp)
    76c0:	54c000ef          	jal	7c0c <_isatty>
    76c4:	fff00793          	li	a5,-1
    76c8:	00f50a63          	beq	a0,a5,76dc <_isatty_r+0x38>
    76cc:	00c12083          	lw	ra,12(sp)
    76d0:	00812403          	lw	s0,8(sp)
    76d4:	01010113          	add	sp,sp,16
    76d8:	00008067          	ret
    76dc:	00004797          	auipc	a5,0x4
    76e0:	0b87a783          	lw	a5,184(a5) # b794 <errno>
    76e4:	fe0784e3          	beqz	a5,76cc <_isatty_r+0x28>
    76e8:	00c12083          	lw	ra,12(sp)
    76ec:	00f42023          	sw	a5,0(s0)
    76f0:	00812403          	lw	s0,8(sp)
    76f4:	01010113          	add	sp,sp,16
    76f8:	00008067          	ret

000076fc <_open_r>:
    76fc:	ff010113          	add	sp,sp,-16
    7700:	00058713          	mv	a4,a1
    7704:	00812423          	sw	s0,8(sp)
    7708:	00060593          	mv	a1,a2
    770c:	00050413          	mv	s0,a0
    7710:	00068613          	mv	a2,a3
    7714:	00070513          	mv	a0,a4
    7718:	00004797          	auipc	a5,0x4
    771c:	0607ae23          	sw	zero,124(a5) # b794 <errno>
    7720:	00112623          	sw	ra,12(sp)
    7724:	16d000ef          	jal	8090 <_open>
    7728:	fff00793          	li	a5,-1
    772c:	00f50a63          	beq	a0,a5,7740 <_open_r+0x44>
    7730:	00c12083          	lw	ra,12(sp)
    7734:	00812403          	lw	s0,8(sp)
    7738:	01010113          	add	sp,sp,16
    773c:	00008067          	ret
    7740:	00004797          	auipc	a5,0x4
    7744:	0547a783          	lw	a5,84(a5) # b794 <errno>
    7748:	fe0784e3          	beqz	a5,7730 <_open_r+0x34>
    774c:	00c12083          	lw	ra,12(sp)
    7750:	00f42023          	sw	a5,0(s0)
    7754:	00812403          	lw	s0,8(sp)
    7758:	01010113          	add	sp,sp,16
    775c:	00008067          	ret

00007760 <_kill_r>:
    7760:	ff010113          	add	sp,sp,-16
    7764:	00058713          	mv	a4,a1
    7768:	00812423          	sw	s0,8(sp)
    776c:	00060593          	mv	a1,a2
    7770:	00050413          	mv	s0,a0
    7774:	00070513          	mv	a0,a4
    7778:	00004797          	auipc	a5,0x4
    777c:	0007ae23          	sw	zero,28(a5) # b794 <errno>
    7780:	00112623          	sw	ra,12(sp)
    7784:	5c8000ef          	jal	7d4c <_kill>
    7788:	fff00793          	li	a5,-1
    778c:	00f50a63          	beq	a0,a5,77a0 <_kill_r+0x40>
    7790:	00c12083          	lw	ra,12(sp)
    7794:	00812403          	lw	s0,8(sp)
    7798:	01010113          	add	sp,sp,16
    779c:	00008067          	ret
    77a0:	00004797          	auipc	a5,0x4
    77a4:	ff47a783          	lw	a5,-12(a5) # b794 <errno>
    77a8:	fe0784e3          	beqz	a5,7790 <_kill_r+0x30>
    77ac:	00c12083          	lw	ra,12(sp)
    77b0:	00f42023          	sw	a5,0(s0)
    77b4:	00812403          	lw	s0,8(sp)
    77b8:	01010113          	add	sp,sp,16
    77bc:	00008067          	ret

000077c0 <_getpid_r>:
    77c0:	3e80006f          	j	7ba8 <_getpid>

000077c4 <_sbrk_r>:
    77c4:	ff010113          	add	sp,sp,-16
    77c8:	00812423          	sw	s0,8(sp)
    77cc:	00050413          	mv	s0,a0
    77d0:	00058513          	mv	a0,a1
    77d4:	00004797          	auipc	a5,0x4
    77d8:	fc07a023          	sw	zero,-64(a5) # b794 <errno>
    77dc:	00112623          	sw	ra,12(sp)
    77e0:	361000ef          	jal	8340 <_sbrk>
    77e4:	fff00793          	li	a5,-1
    77e8:	00f50a63          	beq	a0,a5,77fc <_sbrk_r+0x38>
    77ec:	00c12083          	lw	ra,12(sp)
    77f0:	00812403          	lw	s0,8(sp)
    77f4:	01010113          	add	sp,sp,16
    77f8:	00008067          	ret
    77fc:	00004797          	auipc	a5,0x4
    7800:	f987a783          	lw	a5,-104(a5) # b794 <errno>
    7804:	fe0784e3          	beqz	a5,77ec <_sbrk_r+0x28>
    7808:	00c12083          	lw	ra,12(sp)
    780c:	00f42023          	sw	a5,0(s0)
    7810:	00812403          	lw	s0,8(sp)
    7814:	01010113          	add	sp,sp,16
    7818:	00008067          	ret

0000781c <__libc_fini_array>:
    781c:	ff010113          	add	sp,sp,-16
    7820:	00812423          	sw	s0,8(sp)
    7824:	00001797          	auipc	a5,0x1
    7828:	f2c78793          	add	a5,a5,-212 # 8750 <__fini_array_end>
    782c:	00001417          	auipc	s0,0x1
    7830:	f2440413          	add	s0,s0,-220 # 8750 <__fini_array_end>
    7834:	40f40433          	sub	s0,s0,a5
    7838:	00912223          	sw	s1,4(sp)
    783c:	00112623          	sw	ra,12(sp)
    7840:	40245493          	sra	s1,s0,0x2
    7844:	02048063          	beqz	s1,7864 <__libc_fini_array+0x48>
    7848:	ffc40413          	add	s0,s0,-4
    784c:	00f40433          	add	s0,s0,a5
    7850:	00042783          	lw	a5,0(s0)
    7854:	fff48493          	add	s1,s1,-1
    7858:	ffc40413          	add	s0,s0,-4
    785c:	000780e7          	jalr	a5
    7860:	fe0498e3          	bnez	s1,7850 <__libc_fini_array+0x34>
    7864:	00c12083          	lw	ra,12(sp)
    7868:	00812403          	lw	s0,8(sp)
    786c:	00412483          	lw	s1,4(sp)
    7870:	01010113          	add	sp,sp,16
    7874:	00008067          	ret

00007878 <write>:
    7878:	00060693          	mv	a3,a2
    787c:	00058613          	mv	a2,a1
    7880:	00050593          	mv	a1,a0
    7884:	8281a503          	lw	a0,-2008(gp) # 9f90 <_impure_ptr>
    7888:	885fd06f          	j	510c <_write_r>

0000788c <__divsi3>:
    788c:	06054063          	bltz	a0,78ec <__umodsi3+0x10>
    7890:	0605c663          	bltz	a1,78fc <__umodsi3+0x20>

00007894 <__hidden___udivsi3>:
    7894:	00058613          	mv	a2,a1
    7898:	00050593          	mv	a1,a0
    789c:	fff00513          	li	a0,-1
    78a0:	02060c63          	beqz	a2,78d8 <__hidden___udivsi3+0x44>
    78a4:	00100693          	li	a3,1
    78a8:	00b67a63          	bgeu	a2,a1,78bc <__hidden___udivsi3+0x28>
    78ac:	00c05863          	blez	a2,78bc <__hidden___udivsi3+0x28>
    78b0:	00161613          	sll	a2,a2,0x1
    78b4:	00169693          	sll	a3,a3,0x1
    78b8:	feb66ae3          	bltu	a2,a1,78ac <__hidden___udivsi3+0x18>
    78bc:	00000513          	li	a0,0
    78c0:	00c5e663          	bltu	a1,a2,78cc <__hidden___udivsi3+0x38>
    78c4:	40c585b3          	sub	a1,a1,a2
    78c8:	00d56533          	or	a0,a0,a3
    78cc:	0016d693          	srl	a3,a3,0x1
    78d0:	00165613          	srl	a2,a2,0x1
    78d4:	fe0696e3          	bnez	a3,78c0 <__hidden___udivsi3+0x2c>
    78d8:	00008067          	ret

000078dc <__umodsi3>:
    78dc:	00008293          	mv	t0,ra
    78e0:	fb5ff0ef          	jal	7894 <__hidden___udivsi3>
    78e4:	00058513          	mv	a0,a1
    78e8:	00028067          	jr	t0 # 5368 <memset+0xb4>
    78ec:	40a00533          	neg	a0,a0
    78f0:	00b04863          	bgtz	a1,7900 <__umodsi3+0x24>
    78f4:	40b005b3          	neg	a1,a1
    78f8:	f9dff06f          	j	7894 <__hidden___udivsi3>
    78fc:	40b005b3          	neg	a1,a1
    7900:	00008293          	mv	t0,ra
    7904:	f91ff0ef          	jal	7894 <__hidden___udivsi3>
    7908:	40a00533          	neg	a0,a0
    790c:	00028067          	jr	t0

00007910 <__modsi3>:
    7910:	00008293          	mv	t0,ra
    7914:	0005ca63          	bltz	a1,7928 <__modsi3+0x18>
    7918:	00054c63          	bltz	a0,7930 <__modsi3+0x20>
    791c:	f79ff0ef          	jal	7894 <__hidden___udivsi3>
    7920:	00058513          	mv	a0,a1
    7924:	00028067          	jr	t0
    7928:	40b005b3          	neg	a1,a1
    792c:	fe0558e3          	bgez	a0,791c <__modsi3+0xc>
    7930:	40a00533          	neg	a0,a0
    7934:	f61ff0ef          	jal	7894 <__hidden___udivsi3>
    7938:	40b00533          	neg	a0,a1
    793c:	00028067          	jr	t0

00007940 <alt_get_errno>:
  if (fd)
  {
    /*
     * If the associated file system/device has a close function, call it so 
     * that any necessary cleanup code can run.
     */
    7940:	ff010113          	add	sp,sp,-16
    7944:	00112623          	sw	ra,12(sp)
    7948:	00812423          	sw	s0,8(sp)
    794c:	01010413          	add	s0,sp,16

    7950:	81c1a783          	lw	a5,-2020(gp) # 9f84 <alt_errno>
    7954:	00078a63          	beqz	a5,7968 <alt_get_errno+0x28>
    7958:	81c1a783          	lw	a5,-2020(gp) # 9f84 <alt_errno>
    795c:	000780e7          	jalr	a5
    7960:	00050793          	mv	a5,a0
    7964:	00c0006f          	j	7970 <alt_get_errno+0x30>
    7968:	0000b7b7          	lui	a5,0xb
    796c:	79478793          	add	a5,a5,1940 # b794 <errno>
    rval = (fd->dev->close) ? fd->dev->close(fd) : 0;
    7970:	00078513          	mv	a0,a5
    7974:	00c12083          	lw	ra,12(sp)
    7978:	00812403          	lw	s0,8(sp)
    797c:	01010113          	add	sp,sp,16
    7980:	00008067          	ret

00007984 <_close>:
{
    7984:	fd010113          	add	sp,sp,-48
    7988:	02112623          	sw	ra,44(sp)
    798c:	02812423          	sw	s0,40(sp)
    7990:	03010413          	add	s0,sp,48
    7994:	fca42e23          	sw	a0,-36(s0)
  fd = (fildes < 0) ? NULL : &alt_fd_list[fildes];
    7998:	fdc42783          	lw	a5,-36(s0)
    799c:	0207c463          	bltz	a5,79c4 <_close+0x40>
    79a0:	fdc42703          	lw	a4,-36(s0)
    79a4:	00070793          	mv	a5,a4
    79a8:	00179793          	sll	a5,a5,0x1
    79ac:	00e787b3          	add	a5,a5,a4
    79b0:	00279793          	sll	a5,a5,0x2
    79b4:	0000a737          	lui	a4,0xa
    79b8:	8b070713          	add	a4,a4,-1872 # 98b0 <alt_fd_list>
    79bc:	00e787b3          	add	a5,a5,a4
    79c0:	0080006f          	j	79c8 <_close+0x44>
    79c4:	00000793          	li	a5,0
    79c8:	fef42423          	sw	a5,-24(s0)
  if (fd)
    79cc:	fe842783          	lw	a5,-24(s0)
    79d0:	06078663          	beqz	a5,7a3c <_close+0xb8>
    rval = (fd->dev->close) ? fd->dev->close(fd) : 0;
    79d4:	fe842783          	lw	a5,-24(s0)
    79d8:	0007a783          	lw	a5,0(a5)
    79dc:	0107a783          	lw	a5,16(a5)
    79e0:	02078063          	beqz	a5,7a00 <_close+0x7c>
    79e4:	fe842783          	lw	a5,-24(s0)
    79e8:	0007a783          	lw	a5,0(a5)
    79ec:	0107a783          	lw	a5,16(a5)
    79f0:	fe842503          	lw	a0,-24(s0)
    79f4:	000780e7          	jalr	a5
    79f8:	00050793          	mv	a5,a0
    79fc:	0080006f          	j	7a04 <_close+0x80>
    7a00:	00000793          	li	a5,0
    7a04:	fef42623          	sw	a5,-20(s0)

    /* Free the file descriptor structure and return. */

    alt_release_fd (fildes);
    7a08:	fdc42503          	lw	a0,-36(s0)
    7a0c:	d0cfc0ef          	jal	3f18 <alt_release_fd>
    if (rval < 0)
    7a10:	fec42783          	lw	a5,-20(s0)
    7a14:	0207d063          	bgez	a5,7a34 <_close+0xb0>
    {
      ALT_ERRNO = -rval;
    7a18:	f29ff0ef          	jal	7940 <alt_get_errno>
    7a1c:	00050713          	mv	a4,a0
    7a20:	fec42783          	lw	a5,-20(s0)
    7a24:	40f007b3          	neg	a5,a5
    7a28:	00f72023          	sw	a5,0(a4)
      return -1;
    7a2c:	fff00793          	li	a5,-1
    7a30:	0200006f          	j	7a50 <_close+0xcc>
    }
    return 0;
    7a34:	00000793          	li	a5,0
    7a38:	0180006f          	j	7a50 <_close+0xcc>
  }
  else
  {
    ALT_ERRNO = EBADFD;
    7a3c:	f05ff0ef          	jal	7940 <alt_get_errno>
    7a40:	00050713          	mv	a4,a0
    7a44:	05100793          	li	a5,81
    7a48:	00f72023          	sw	a5,0(a4)
    return -1;
    7a4c:	fff00793          	li	a5,-1
  }
}
    7a50:	00078513          	mv	a0,a5
    7a54:	02c12083          	lw	ra,44(sp)
    7a58:	02812403          	lw	s0,40(sp)
    7a5c:	03010113          	add	sp,sp,48
    7a60:	00008067          	ret

00007a64 <_exit>:
 *
 * ALT_EXIT is mapped onto the _exit() system call in alt_syscall.h
 */

void ALT_EXIT (int exit_code)
{
    7a64:	fd010113          	add	sp,sp,-48
    7a68:	02812623          	sw	s0,44(sp)
    7a6c:	03010413          	add	s0,sp,48
    7a70:	fca42e23          	sw	a0,-36(s0)
  ALT_LOG_PRINT_BOOT("[alt_exit.c] Entering _exit() function.\r\n");
  ALT_LOG_PRINT_BOOT("[alt_exit.c] Exit code from main was %d.\r\n",exit_code);
  /* Stop all other threads */

  ALT_LOG_PRINT_BOOT("[alt_exit.c] Calling ALT_OS_STOP().\r\n");
  ALT_OS_STOP();
    7a74:	00000013          	nop
    7a78:	fdc42783          	lw	a5,-36(s0)
    7a7c:	fef42623          	sw	a5,-20(s0)
 * Routine called on exit.
 * TODO: Add support for GMON/gprof.
 */
static ALT_INLINE ALT_ALWAYS_INLINE void alt_sim_halt(int exit_code)
{
  register int a0 asm ("a0") = exit_code;
    7a80:	fec42503          	lw	a0,-20(s0)
    "ebreak" 
    : 
    : "r"(a0), "r"(a1));

#else /* !DEBUG_STUB */
  if (a0) {
    7a84:	00050793          	mv	a5,a0
    7a88:	00078663          	beqz	a5,7a94 <_exit+0x30>
    ALT_SIM_FAIL();
    7a8c:	7c103013          	sltiu	zero,zero,1985
  } else {
    ALT_SIM_PASS();
  }
#endif /* DEBUG_STUB */
}
    7a90:	0080006f          	j	7a98 <_exit+0x34>
    ALT_SIM_PASS();
    7a94:	7c203013          	sltiu	zero,zero,1986
}
    7a98:	00000013          	nop
  ALT_SIM_HALT(exit_code);

  /* spin forever, since there's no where to go back to */

  ALT_LOG_PRINT_BOOT("[alt_exit.c] Spinning forever.\r\n");
  while (1);
    7a9c:	00000013          	nop
    7aa0:	ffdff06f          	j	7a9c <_exit+0x38>

00007aa4 <alt_get_errno>:
    case 2: /* stderr file descriptor */
        st->st_mode = _IFCHR;
        return 0;
#endif /* ALT_STDERR_PRESENT */        
    default:
        return -1;
    7aa4:	ff010113          	add	sp,sp,-16
    7aa8:	00112623          	sw	ra,12(sp)
    7aac:	00812423          	sw	s0,8(sp)
    7ab0:	01010413          	add	s0,sp,16
    }
    7ab4:	81c1a783          	lw	a5,-2020(gp) # 9f84 <alt_errno>
    7ab8:	00078a63          	beqz	a5,7acc <alt_get_errno+0x28>
    7abc:	81c1a783          	lw	a5,-2020(gp) # 9f84 <alt_errno>
    7ac0:	000780e7          	jalr	a5
    7ac4:	00050793          	mv	a5,a0
    7ac8:	00c0006f          	j	7ad4 <alt_get_errno+0x30>
    7acc:	0000b7b7          	lui	a5,0xb
    7ad0:	79478793          	add	a5,a5,1940 # b794 <errno>

    7ad4:	00078513          	mv	a0,a5
    7ad8:	00c12083          	lw	ra,12(sp)
    7adc:	00812403          	lw	s0,8(sp)
    7ae0:	01010113          	add	sp,sp,16
    7ae4:	00008067          	ret

00007ae8 <_fstat>:
}

#else /* !ALT_USE_DIRECT_DRIVERS */

int ALT_FSTAT (int file, struct stat *st)
{
    7ae8:	fd010113          	add	sp,sp,-48
    7aec:	02112623          	sw	ra,44(sp)
    7af0:	02812423          	sw	s0,40(sp)
    7af4:	03010413          	add	s0,sp,48
    7af8:	fca42e23          	sw	a0,-36(s0)
    7afc:	fcb42c23          	sw	a1,-40(s0)
   * A common error case is that when the file descriptor was created, the call
   * to open() failed resulting in a negative file descriptor. This is trapped
   * below so that we don't try and process an invalid file descriptor.
   */

  fd = (file < 0) ? NULL : &alt_fd_list[file];
    7b00:	fdc42783          	lw	a5,-36(s0)
    7b04:	0207c463          	bltz	a5,7b2c <_fstat+0x44>
    7b08:	fdc42703          	lw	a4,-36(s0)
    7b0c:	00070793          	mv	a5,a4
    7b10:	00179793          	sll	a5,a5,0x1
    7b14:	00e787b3          	add	a5,a5,a4
    7b18:	00279793          	sll	a5,a5,0x2
    7b1c:	0000a737          	lui	a4,0xa
    7b20:	8b070713          	add	a4,a4,-1872 # 98b0 <alt_fd_list>
    7b24:	00e787b3          	add	a5,a5,a4
    7b28:	0080006f          	j	7b30 <_fstat+0x48>
    7b2c:	00000793          	li	a5,0
    7b30:	fef42623          	sw	a5,-20(s0)
  
  if (fd)
    7b34:	fec42783          	lw	a5,-20(s0)
    7b38:	04078463          	beqz	a5,7b80 <_fstat+0x98>
  {
    /* Call the drivers fstat() function to fill out the "st" structure. */

    if (fd->dev->fstat)
    7b3c:	fec42783          	lw	a5,-20(s0)
    7b40:	0007a783          	lw	a5,0(a5)
    7b44:	0207a783          	lw	a5,32(a5)
    7b48:	02078263          	beqz	a5,7b6c <_fstat+0x84>
    {
      return fd->dev->fstat(fd, st);
    7b4c:	fec42783          	lw	a5,-20(s0)
    7b50:	0007a783          	lw	a5,0(a5)
    7b54:	0207a783          	lw	a5,32(a5)
    7b58:	fd842583          	lw	a1,-40(s0)
    7b5c:	fec42503          	lw	a0,-20(s0)
    7b60:	000780e7          	jalr	a5
    7b64:	00050793          	mv	a5,a0
    7b68:	02c0006f          	j	7b94 <_fstat+0xac>
     * device.
     */
 
    else
    {
      st->st_mode = _IFCHR;
    7b6c:	fd842783          	lw	a5,-40(s0)
    7b70:	00002737          	lui	a4,0x2
    7b74:	00e7a223          	sw	a4,4(a5)
      return 0;
    7b78:	00000793          	li	a5,0
    7b7c:	0180006f          	j	7b94 <_fstat+0xac>
    }
  }
  else
  {
    ALT_ERRNO = EBADFD;
    7b80:	f25ff0ef          	jal	7aa4 <alt_get_errno>
    7b84:	00050713          	mv	a4,a0
    7b88:	05100793          	li	a5,81
    7b8c:	00f72023          	sw	a5,0(a4) # 2000 <alt_avalon_i2c_master_transmit_using_interrupts+0x1e8>
    return -1;
    7b90:	fff00793          	li	a5,-1
  }
}
    7b94:	00078513          	mv	a0,a5
    7b98:	02c12083          	lw	ra,44(sp)
    7b9c:	02812403          	lw	s0,40(sp)
    7ba0:	03010113          	add	sp,sp,48
    7ba4:	00008067          	ret

00007ba8 <_getpid>:
 *
 * ALT_GETPID is mapped onto the getpid() system call in alt_syscall.h
 */
 
int ALT_GETPID (void)
{
    7ba8:	ff010113          	add	sp,sp,-16
    7bac:	00812623          	sw	s0,12(sp)
    7bb0:	01010413          	add	s0,sp,16
  return 0;
    7bb4:	00000793          	li	a5,0
}
    7bb8:	00078513          	mv	a0,a5
    7bbc:	00c12403          	lw	s0,12(sp)
    7bc0:	01010113          	add	sp,sp,16
    7bc4:	00008067          	ret

00007bc8 <alt_get_errno>:
 * isatty() can be used to determine whether the input file descriptor "file" 
 * refers to a terminal device or not. If it is a terminal device then the
 * return value is one, otherwise it is zero.  
 *
 * ALT_ISATTY is mapped onto the isatty() system call in alt_syscall.h
 */
    7bc8:	ff010113          	add	sp,sp,-16
    7bcc:	00112623          	sw	ra,12(sp)
    7bd0:	00812423          	sw	s0,8(sp)
    7bd4:	01010413          	add	s0,sp,16
 
    7bd8:	81c1a783          	lw	a5,-2020(gp) # 9f84 <alt_errno>
    7bdc:	00078a63          	beqz	a5,7bf0 <alt_get_errno+0x28>
    7be0:	81c1a783          	lw	a5,-2020(gp) # 9f84 <alt_errno>
    7be4:	000780e7          	jalr	a5
    7be8:	00050793          	mv	a5,a0
    7bec:	00c0006f          	j	7bf8 <alt_get_errno+0x30>
    7bf0:	0000b7b7          	lui	a5,0xb
    7bf4:	79478793          	add	a5,a5,1940 # b794 <errno>
int ALT_ISATTY (int file)
    7bf8:	00078513          	mv	a0,a5
    7bfc:	00c12083          	lw	ra,12(sp)
    7c00:	00812403          	lw	s0,8(sp)
    7c04:	01010113          	add	sp,sp,16
    7c08:	00008067          	ret

00007c0c <_isatty>:
{
    7c0c:	f7010113          	add	sp,sp,-144
    7c10:	08112623          	sw	ra,140(sp)
    7c14:	08812423          	sw	s0,136(sp)
    7c18:	09010413          	add	s0,sp,144
    7c1c:	f6a42e23          	sw	a0,-132(s0)
    7c20:	0000b7b7          	lui	a5,0xb
    7c24:	7b87a703          	lw	a4,1976(a5) # b7b8 <__stack_chk_guard>
    7c28:	fee42623          	sw	a4,-20(s0)
    7c2c:	00000713          	li	a4,0
  alt_fd*     fd;
  struct stat stat;
  
  stat.st_mode=0;  /* misrac compliance */
    7c30:	f8042a23          	sw	zero,-108(s0)
   * A common error case is that when the file descriptor was created, the call
   * to open() failed resulting in a negative file descriptor. This is trapped
   * below so that we don't try and process an invalid file descriptor.
   */

  fd = (file < 0) ? NULL : &alt_fd_list[file];
    7c34:	f7c42783          	lw	a5,-132(s0)
    7c38:	0207c463          	bltz	a5,7c60 <_isatty+0x54>
    7c3c:	f7c42703          	lw	a4,-132(s0)
    7c40:	00070793          	mv	a5,a4
    7c44:	00179793          	sll	a5,a5,0x1
    7c48:	00e787b3          	add	a5,a5,a4
    7c4c:	00279793          	sll	a5,a5,0x2
    7c50:	0000a737          	lui	a4,0xa
    7c54:	8b070713          	add	a4,a4,-1872 # 98b0 <alt_fd_list>
    7c58:	00e787b3          	add	a5,a5,a4
    7c5c:	0080006f          	j	7c64 <_isatty+0x58>
    7c60:	00000793          	li	a5,0
    7c64:	f8f42623          	sw	a5,-116(s0)
  
  if (fd)
    7c68:	f8c42783          	lw	a5,-116(s0)
    7c6c:	04078a63          	beqz	a5,7cc0 <_isatty+0xb4>
    /*
     * If a device driver does not provide an fstat() function, then it is 
     * treated as a terminal device by default.
     */

    if (!fd->dev->fstat)
    7c70:	f8c42783          	lw	a5,-116(s0)
    7c74:	0007a783          	lw	a5,0(a5)
    7c78:	0207a783          	lw	a5,32(a5)
    7c7c:	00079663          	bnez	a5,7c88 <_isatty+0x7c>
    {
      return 1;
    7c80:	00100793          	li	a5,1
    7c84:	0500006f          	j	7cd4 <_isatty+0xc8>
     * this is called so that the device can identify itself.
     */ 

    else
    {
      if (fstat (file, &stat) < 0)
    7c88:	f9040793          	add	a5,s0,-112
    7c8c:	00078593          	mv	a1,a5
    7c90:	f7c42503          	lw	a0,-132(s0)
    7c94:	2a5000ef          	jal	8738 <fstat>
    7c98:	00050793          	mv	a5,a0
    7c9c:	0007d663          	bgez	a5,7ca8 <_isatty+0x9c>
        return 0;  // fstat will set ERRNO
    7ca0:	00000793          	li	a5,0
    7ca4:	0300006f          	j	7cd4 <_isatty+0xc8>
      else
        return (stat.st_mode == _IFCHR) ? 1 : 0;
    7ca8:	f9442703          	lw	a4,-108(s0)
    7cac:	ffffe7b7          	lui	a5,0xffffe
    7cb0:	00f707b3          	add	a5,a4,a5
    7cb4:	0017b793          	seqz	a5,a5
    7cb8:	0ff7f793          	zext.b	a5,a5
    7cbc:	0180006f          	j	7cd4 <_isatty+0xc8>
    }
  }
  else
  {
    ALT_ERRNO = EBADFD;
    7cc0:	f09ff0ef          	jal	7bc8 <alt_get_errno>
    7cc4:	00050713          	mv	a4,a0
    7cc8:	05100793          	li	a5,81
    7ccc:	00f72023          	sw	a5,0(a4)
    return 0;
    7cd0:	00000793          	li	a5,0
  }
}
    7cd4:	00078713          	mv	a4,a5
    7cd8:	0000b7b7          	lui	a5,0xb
    7cdc:	fec42683          	lw	a3,-20(s0)
    7ce0:	7b87a783          	lw	a5,1976(a5) # b7b8 <__stack_chk_guard>
    7ce4:	00f6c7b3          	xor	a5,a3,a5
    7ce8:	00000693          	li	a3,0
    7cec:	00078463          	beqz	a5,7cf4 <_isatty+0xe8>
    7cf0:	d04fd0ef          	jal	51f4 <__stack_chk_fail>
    7cf4:	00070513          	mv	a0,a4
    7cf8:	08c12083          	lw	ra,140(sp)
    7cfc:	08812403          	lw	s0,136(sp)
    7d00:	09010113          	add	sp,sp,144
    7d04:	00008067          	ret

00007d08 <alt_get_errno>:
    case SIGSYS:
    case SIGTRAP:
    case SIGVTALRM:
    case SIGXCPU:
    case SIGXFSZ:

    7d08:	ff010113          	add	sp,sp,-16
    7d0c:	00112623          	sw	ra,12(sp)
    7d10:	00812423          	sw	s0,8(sp)
    7d14:	01010413          	add	s0,sp,16
      /* 
    7d18:	81c1a783          	lw	a5,-2020(gp) # 9f84 <alt_errno>
    7d1c:	00078a63          	beqz	a5,7d30 <alt_get_errno+0x28>
    7d20:	81c1a783          	lw	a5,-2020(gp) # 9f84 <alt_errno>
    7d24:	000780e7          	jalr	a5
    7d28:	00050793          	mv	a5,a0
    7d2c:	00c0006f          	j	7d38 <alt_get_errno+0x30>
    7d30:	0000b7b7          	lui	a5,0xb
    7d34:	79478793          	add	a5,a5,1940 # b794 <errno>
       * The Posix standard defines the default behaviour for all these signals 
    7d38:	00078513          	mv	a0,a5
    7d3c:	00c12083          	lw	ra,12(sp)
    7d40:	00812403          	lw	s0,8(sp)
    7d44:	01010113          	add	sp,sp,16
    7d48:	00008067          	ret

00007d4c <_kill>:
{
    7d4c:	fd010113          	add	sp,sp,-48
    7d50:	02112623          	sw	ra,44(sp)
    7d54:	02812423          	sw	s0,40(sp)
    7d58:	03010413          	add	s0,sp,48
    7d5c:	fca42e23          	sw	a0,-36(s0)
    7d60:	fcb42c23          	sw	a1,-40(s0)
  int status = 0;
    7d64:	fe042623          	sw	zero,-20(s0)
  if (pid <= 0)
    7d68:	fdc42783          	lw	a5,-36(s0)
    7d6c:	06f04e63          	bgtz	a5,7de8 <_kill+0x9c>
    switch (sig)
    7d70:	fd842783          	lw	a5,-40(s0)
    7d74:	08078463          	beqz	a5,7dfc <_kill+0xb0>
    7d78:	fd842783          	lw	a5,-40(s0)
    7d7c:	0607c063          	bltz	a5,7ddc <_kill+0x90>
    7d80:	fd842703          	lw	a4,-40(s0)
    7d84:	01f00793          	li	a5,31
    7d88:	04e7ca63          	blt	a5,a4,7ddc <_kill+0x90>
    7d8c:	fd842703          	lw	a4,-40(s0)
    7d90:	00300793          	li	a5,3
    7d94:	04f74463          	blt	a4,a5,7ddc <_kill+0x90>
    7d98:	fd842783          	lw	a5,-40(s0)
    7d9c:	00100713          	li	a4,1
    7da0:	00f717b3          	sll	a5,a4,a5
    7da4:	cf810737          	lui	a4,0xcf810
    7da8:	f7870713          	add	a4,a4,-136 # cf80ff78 <__alt_data_end+0xcf7eff78>
    7dac:	00e7f733          	and	a4,a5,a4
    7db0:	00e03733          	snez	a4,a4
    7db4:	0ff77713          	zext.b	a4,a4
    7db8:	00071e63          	bnez	a4,7dd4 <_kill+0x88>
    7dbc:	00110737          	lui	a4,0x110
    7dc0:	00e7f7b3          	and	a5,a5,a4
    7dc4:	00f037b3          	snez	a5,a5
    7dc8:	0ff7f793          	zext.b	a5,a5
    7dcc:	02079c63          	bnez	a5,7e04 <_kill+0xb8>
    7dd0:	00c0006f          	j	7ddc <_kill+0x90>
       * as being eqivalent to a call to _exit(). No mechanism is provided to 
       * change this behaviour.
       */

      _exit(0);
    7dd4:	00000513          	li	a0,0
    7dd8:	c8dff0ef          	jal	7a64 <_exit>
      break;
    default:

      /* Tried to send an unsupported signal */

      status = EINVAL;
    7ddc:	01600793          	li	a5,22
    7de0:	fef42623          	sw	a5,-20(s0)
    7de4:	0240006f          	j	7e08 <_kill+0xbc>
    }
  }

  else if (pid > 0)
    7de8:	fdc42783          	lw	a5,-36(s0)
    7dec:	00f05e63          	blez	a5,7e08 <_kill+0xbc>
  {
    /* Attempted to signal a non-existant process */

    status = ESRCH;
    7df0:	00300793          	li	a5,3
    7df4:	fef42623          	sw	a5,-20(s0)
    7df8:	0100006f          	j	7e08 <_kill+0xbc>
      break;
    7dfc:	00000013          	nop
    7e00:	0080006f          	j	7e08 <_kill+0xbc>
      break;
    7e04:	00000013          	nop
  }

  if (status)
    7e08:	fec42783          	lw	a5,-20(s0)
    7e0c:	00078e63          	beqz	a5,7e28 <_kill+0xdc>
  {
    ALT_ERRNO = status;
    7e10:	ef9ff0ef          	jal	7d08 <alt_get_errno>
    7e14:	00050713          	mv	a4,a0
    7e18:	fec42783          	lw	a5,-20(s0)
    7e1c:	00f72023          	sw	a5,0(a4) # 110000 <__alt_data_end+0xf0000>
    return -1;
    7e20:	fff00793          	li	a5,-1
    7e24:	0080006f          	j	7e2c <_kill+0xe0>
  }

  return 0;
    7e28:	00000793          	li	a5,0
}
    7e2c:	00078513          	mv	a0,a5
    7e30:	02c12083          	lw	ra,44(sp)
    7e34:	02812403          	lw	s0,40(sp)
    7e38:	03010113          	add	sp,sp,48
    7e3c:	00008067          	ret

00007e40 <alt_get_errno>:
   * to open() failed resulting in a negative file descriptor. This is trapped
   * below so that we don't try and process an invalid file descriptor.
   */

  fd = (file < 0) ? NULL : &alt_fd_list[file];
  
    7e40:	ff010113          	add	sp,sp,-16
    7e44:	00112623          	sw	ra,12(sp)
    7e48:	00812423          	sw	s0,8(sp)
    7e4c:	01010413          	add	s0,sp,16
  if (fd) 
    7e50:	81c1a783          	lw	a5,-2020(gp) # 9f84 <alt_errno>
    7e54:	00078a63          	beqz	a5,7e68 <alt_get_errno+0x28>
    7e58:	81c1a783          	lw	a5,-2020(gp) # 9f84 <alt_errno>
    7e5c:	000780e7          	jalr	a5
    7e60:	00050793          	mv	a5,a0
    7e64:	00c0006f          	j	7e70 <alt_get_errno+0x30>
    7e68:	0000b7b7          	lui	a5,0xb
    7e6c:	79478793          	add	a5,a5,1940 # b794 <errno>
  {
    7e70:	00078513          	mv	a0,a5
    7e74:	00c12083          	lw	ra,12(sp)
    7e78:	00812403          	lw	s0,8(sp)
    7e7c:	01010113          	add	sp,sp,16
    7e80:	00008067          	ret

00007e84 <_lseek>:
{
    7e84:	fd010113          	add	sp,sp,-48
    7e88:	02112623          	sw	ra,44(sp)
    7e8c:	02812423          	sw	s0,40(sp)
    7e90:	03010413          	add	s0,sp,48
    7e94:	fca42e23          	sw	a0,-36(s0)
    7e98:	fcb42c23          	sw	a1,-40(s0)
    7e9c:	fcc42a23          	sw	a2,-44(s0)
  off_t   rc = 0; 
    7ea0:	fe042423          	sw	zero,-24(s0)
  fd = (file < 0) ? NULL : &alt_fd_list[file];
    7ea4:	fdc42783          	lw	a5,-36(s0)
    7ea8:	0207c463          	bltz	a5,7ed0 <_lseek+0x4c>
    7eac:	fdc42703          	lw	a4,-36(s0)
    7eb0:	00070793          	mv	a5,a4
    7eb4:	00179793          	sll	a5,a5,0x1
    7eb8:	00e787b3          	add	a5,a5,a4
    7ebc:	00279793          	sll	a5,a5,0x2
    7ec0:	0000a737          	lui	a4,0xa
    7ec4:	8b070713          	add	a4,a4,-1872 # 98b0 <alt_fd_list>
    7ec8:	00e787b3          	add	a5,a5,a4
    7ecc:	0080006f          	j	7ed4 <_lseek+0x50>
    7ed0:	00000793          	li	a5,0
    7ed4:	fef42623          	sw	a5,-20(s0)
  if (fd) 
    7ed8:	fec42783          	lw	a5,-20(s0)
    7edc:	04078263          	beqz	a5,7f20 <_lseek+0x9c>
    /*
     * If the device driver provides an implementation of the lseek() function,
     * then call that to process the request.
     */
 
    if (fd->dev->lseek)
    7ee0:	fec42783          	lw	a5,-20(s0)
    7ee4:	0007a783          	lw	a5,0(a5)
    7ee8:	01c7a783          	lw	a5,28(a5)
    7eec:	02078463          	beqz	a5,7f14 <_lseek+0x90>
    {
      rc = fd->dev->lseek(fd, ptr, dir);
    7ef0:	fec42783          	lw	a5,-20(s0)
    7ef4:	0007a783          	lw	a5,0(a5)
    7ef8:	01c7a783          	lw	a5,28(a5)
    7efc:	fd442603          	lw	a2,-44(s0)
    7f00:	fd842583          	lw	a1,-40(s0)
    7f04:	fec42503          	lw	a0,-20(s0)
    7f08:	000780e7          	jalr	a5
    7f0c:	fea42423          	sw	a0,-24(s0)
    7f10:	0180006f          	j	7f28 <_lseek+0xa4>
     * Otherwise return an error.
     */

    else
    {
      rc = -ENOTSUP;
    7f14:	f7a00793          	li	a5,-134
    7f18:	fef42423          	sw	a5,-24(s0)
    7f1c:	00c0006f          	j	7f28 <_lseek+0xa4>
    }
  }
  else  
  {
    rc = -EBADFD;
    7f20:	faf00793          	li	a5,-81
    7f24:	fef42423          	sw	a5,-24(s0)
  }

  if (rc < 0)
    7f28:	fe842783          	lw	a5,-24(s0)
    7f2c:	0207d063          	bgez	a5,7f4c <_lseek+0xc8>
  {
    ALT_ERRNO = -rc;
    7f30:	f11ff0ef          	jal	7e40 <alt_get_errno>
    7f34:	00050713          	mv	a4,a0
    7f38:	fe842783          	lw	a5,-24(s0)
    7f3c:	40f007b3          	neg	a5,a5
    7f40:	00f72023          	sw	a5,0(a4)
    rc = -1;
    7f44:	fff00793          	li	a5,-1
    7f48:	fef42423          	sw	a5,-24(s0)
  }

  return rc;
    7f4c:	fe842783          	lw	a5,-24(s0)
}
    7f50:	00078513          	mv	a0,a5
    7f54:	02c12083          	lw	ra,44(sp)
    7f58:	02812403          	lw	s0,40(sp)
    7f5c:	03010113          	add	sp,sp,48
    7f60:	00008067          	ret

00007f64 <alt_get_errno>:
   */

  for (i = 0; i <= alt_max_fd; i++)
  {
    if ((alt_fd_list[i].dev == fd->dev) &&
        (alt_fd_list[i].fd_flags & ALT_FD_EXCL) &&
    7f64:	ff010113          	add	sp,sp,-16
    7f68:	00112623          	sw	ra,12(sp)
    7f6c:	00812423          	sw	s0,8(sp)
    7f70:	01010413          	add	s0,sp,16
        (&alt_fd_list[i] != fd))
    7f74:	81c1a783          	lw	a5,-2020(gp) # 9f84 <alt_errno>
    7f78:	00078a63          	beqz	a5,7f8c <alt_get_errno+0x28>
    7f7c:	81c1a783          	lw	a5,-2020(gp) # 9f84 <alt_errno>
    7f80:	000780e7          	jalr	a5
    7f84:	00050793          	mv	a5,a0
    7f88:	00c0006f          	j	7f94 <alt_get_errno+0x30>
    7f8c:	0000b7b7          	lui	a5,0xb
    7f90:	79478793          	add	a5,a5,1940 # b794 <errno>
    {
    7f94:	00078513          	mv	a0,a5
    7f98:	00c12083          	lw	ra,12(sp)
    7f9c:	00812403          	lw	s0,8(sp)
    7fa0:	01010113          	add	sp,sp,16
    7fa4:	00008067          	ret

00007fa8 <alt_file_locked>:
{
    7fa8:	fd010113          	add	sp,sp,-48
    7fac:	02812623          	sw	s0,44(sp)
    7fb0:	03010413          	add	s0,sp,48
    7fb4:	fca42e23          	sw	a0,-36(s0)
  fd->fd_flags |= ALT_FD_DEV;
    7fb8:	fdc42783          	lw	a5,-36(s0)
    7fbc:	0087a703          	lw	a4,8(a5)
    7fc0:	400007b7          	lui	a5,0x40000
    7fc4:	00f76733          	or	a4,a4,a5
    7fc8:	fdc42783          	lw	a5,-36(s0)
    7fcc:	00e7a423          	sw	a4,8(a5) # 40000008 <__alt_data_end+0x3ffe0008>
  for (i = 0; i <= alt_max_fd; i++)
    7fd0:	fe042623          	sw	zero,-20(s0)
    7fd4:	0980006f          	j	806c <alt_file_locked+0xc4>
    if ((alt_fd_list[i].dev == fd->dev) &&
    7fd8:	0000a7b7          	lui	a5,0xa
    7fdc:	8b078693          	add	a3,a5,-1872 # 98b0 <alt_fd_list>
    7fe0:	fec42703          	lw	a4,-20(s0)
    7fe4:	00070793          	mv	a5,a4
    7fe8:	00179793          	sll	a5,a5,0x1
    7fec:	00e787b3          	add	a5,a5,a4
    7ff0:	00279793          	sll	a5,a5,0x2
    7ff4:	00f687b3          	add	a5,a3,a5
    7ff8:	0007a703          	lw	a4,0(a5)
    7ffc:	fdc42783          	lw	a5,-36(s0)
    8000:	0007a783          	lw	a5,0(a5)
    8004:	04f71e63          	bne	a4,a5,8060 <alt_file_locked+0xb8>
        (alt_fd_list[i].fd_flags & ALT_FD_EXCL) &&
    8008:	0000a7b7          	lui	a5,0xa
    800c:	8b078693          	add	a3,a5,-1872 # 98b0 <alt_fd_list>
    8010:	fec42703          	lw	a4,-20(s0)
    8014:	00070793          	mv	a5,a4
    8018:	00179793          	sll	a5,a5,0x1
    801c:	00e787b3          	add	a5,a5,a4
    8020:	00279793          	sll	a5,a5,0x2
    8024:	00f687b3          	add	a5,a3,a5
    8028:	0087a783          	lw	a5,8(a5)
    if ((alt_fd_list[i].dev == fd->dev) &&
    802c:	0207da63          	bgez	a5,8060 <alt_file_locked+0xb8>
        (&alt_fd_list[i] != fd))
    8030:	fec42703          	lw	a4,-20(s0)
    8034:	00070793          	mv	a5,a4
    8038:	00179793          	sll	a5,a5,0x1
    803c:	00e787b3          	add	a5,a5,a4
    8040:	00279793          	sll	a5,a5,0x2
    8044:	0000a737          	lui	a4,0xa
    8048:	8b070713          	add	a4,a4,-1872 # 98b0 <alt_fd_list>
    804c:	00e787b3          	add	a5,a5,a4
        (alt_fd_list[i].fd_flags & ALT_FD_EXCL) &&
    8050:	fdc42703          	lw	a4,-36(s0)
    8054:	00f70663          	beq	a4,a5,8060 <alt_file_locked+0xb8>
      return -EACCES;
    8058:	ff300793          	li	a5,-13
    805c:	0240006f          	j	8080 <alt_file_locked+0xd8>
  for (i = 0; i <= alt_max_fd; i++)
    8060:	fec42783          	lw	a5,-20(s0)
    8064:	00178793          	add	a5,a5,1
    8068:	fef42623          	sw	a5,-20(s0)
    806c:	8181a783          	lw	a5,-2024(gp) # 9f80 <alt_max_fd>
    8070:	00078713          	mv	a4,a5
    8074:	fec42783          	lw	a5,-20(s0)
    8078:	f6f770e3          	bgeu	a4,a5,7fd8 <alt_file_locked+0x30>
    }
  }
  
  /* The device is not locked */
 
  return 0;
    807c:	00000793          	li	a5,0
}
    8080:	00078513          	mv	a0,a5
    8084:	02c12403          	lw	s0,44(sp)
    8088:	03010113          	add	sp,sp,48
    808c:	00008067          	ret

00008090 <_open>:
 *
 * ALT_OPEN is mapped onto the open() system call in alt_syscall.h
 */
 
int ALT_OPEN (const char* file, int flags, int mode)
{ 
    8090:	fc010113          	add	sp,sp,-64
    8094:	02112e23          	sw	ra,60(sp)
    8098:	02812c23          	sw	s0,56(sp)
    809c:	04010413          	add	s0,sp,64
    80a0:	fca42623          	sw	a0,-52(s0)
    80a4:	fcb42423          	sw	a1,-56(s0)
    80a8:	fcc42223          	sw	a2,-60(s0)
  alt_dev* dev;
  alt_fd*  fd;
  int index  = -1;
    80ac:	fff00793          	li	a5,-1
    80b0:	fef42023          	sw	a5,-32(s0)
  int status = -ENODEV;
    80b4:	fed00793          	li	a5,-19
    80b8:	fef42223          	sw	a5,-28(s0)
  int isafs = 0;
    80bc:	fe042423          	sw	zero,-24(s0)
  /* 
   * Check the device list, to see if a device with a matching name is 
   * registered.
   */
  
  if (!(dev = alt_find_dev (file, &alt_dev_list)))
    80c0:	81018593          	add	a1,gp,-2032 # 9f78 <alt_dev_list>
    80c4:	fcc42503          	lw	a0,-52(s0)
    80c8:	ed8fb0ef          	jal	37a0 <alt_find_dev>
    80cc:	fca42e23          	sw	a0,-36(s0)
    80d0:	fdc42783          	lw	a5,-36(s0)
    80d4:	00079c63          	bnez	a5,80ec <_open+0x5c>
  {
    /* No matching device, so try the filesystem list */

    dev   = alt_find_file (file);
    80d8:	fcc42503          	lw	a0,-52(s0)
    80dc:	460000ef          	jal	853c <alt_find_file>
    80e0:	fca42e23          	sw	a0,-36(s0)
    isafs = 1;
    80e4:	00100793          	li	a5,1
    80e8:	fef42423          	sw	a5,-24(s0)

  /* 
   * If a matching device or filesystem is found, allocate a file descriptor. 
   */

  if (dev)
    80ec:	fdc42783          	lw	a5,-36(s0)
    80f0:	0a078c63          	beqz	a5,81a8 <_open+0x118>
  {
    if ((index = alt_get_fd (dev)) < 0)
    80f4:	fdc42503          	lw	a0,-36(s0)
    80f8:	580000ef          	jal	8678 <alt_get_fd>
    80fc:	fea42023          	sw	a0,-32(s0)
    8100:	fe042783          	lw	a5,-32(s0)
    8104:	0007d863          	bgez	a5,8114 <_open+0x84>
    {
      status = index;
    8108:	fe042783          	lw	a5,-32(s0)
    810c:	fef42223          	sw	a5,-28(s0)
    8110:	0a00006f          	j	81b0 <_open+0x120>
    }
    else
    {
      fd = &alt_fd_list[index];
    8114:	fe042703          	lw	a4,-32(s0)
    8118:	00070793          	mv	a5,a4
    811c:	00179793          	sll	a5,a5,0x1
    8120:	00e787b3          	add	a5,a5,a4
    8124:	00279793          	sll	a5,a5,0x2
    8128:	0000a737          	lui	a4,0xa
    812c:	8b070713          	add	a4,a4,-1872 # 98b0 <alt_fd_list>
    8130:	00e787b3          	add	a5,a5,a4
    8134:	fef42623          	sw	a5,-20(s0)
      fd->fd_flags = (flags & ~ALT_FD_FLAGS_MASK);
    8138:	fc842703          	lw	a4,-56(s0)
    813c:	400007b7          	lui	a5,0x40000
    8140:	fff78793          	add	a5,a5,-1 # 3fffffff <__alt_data_end+0x3ffdffff>
    8144:	00f77733          	and	a4,a4,a5
    8148:	fec42783          	lw	a5,-20(s0)
    814c:	00e7a423          	sw	a4,8(a5)
      
      /* If this is a device, ensure it isn't already locked */

      if (isafs || ((status = alt_file_locked (fd)) >= 0))
    8150:	fe842783          	lw	a5,-24(s0)
    8154:	00079c63          	bnez	a5,816c <_open+0xdc>
    8158:	fec42503          	lw	a0,-20(s0)
    815c:	e4dff0ef          	jal	7fa8 <alt_file_locked>
    8160:	fea42223          	sw	a0,-28(s0)
    8164:	fe442783          	lw	a5,-28(s0)
    8168:	0407c463          	bltz	a5,81b0 <_open+0x120>
        /* 
         * If the device or filesystem provides an open() callback function,
         * call it now to perform any device/filesystem specific operations.
         */
    
        status = (dev->open) ? dev->open(fd, file, flags, mode): 0;
    816c:	fdc42783          	lw	a5,-36(s0)
    8170:	00c7a783          	lw	a5,12(a5)
    8174:	02078463          	beqz	a5,819c <_open+0x10c>
    8178:	fdc42783          	lw	a5,-36(s0)
    817c:	00c7a783          	lw	a5,12(a5)
    8180:	fc442683          	lw	a3,-60(s0)
    8184:	fc842603          	lw	a2,-56(s0)
    8188:	fcc42583          	lw	a1,-52(s0)
    818c:	fec42503          	lw	a0,-20(s0)
    8190:	000780e7          	jalr	a5
    8194:	00050793          	mv	a5,a0
    8198:	0080006f          	j	81a0 <_open+0x110>
    819c:	00000793          	li	a5,0
    81a0:	fef42223          	sw	a5,-28(s0)
    81a4:	00c0006f          	j	81b0 <_open+0x120>
      }
    }
  }
  else
  {
    status = -ENODEV;
    81a8:	fed00793          	li	a5,-19
    81ac:	fef42223          	sw	a5,-28(s0)
  }

  /* Allocation failed, so clean up and return an error */ 

  if (status < 0)
    81b0:	fe442783          	lw	a5,-28(s0)
    81b4:	0207d463          	bgez	a5,81dc <_open+0x14c>
  {
    alt_release_fd (index);  
    81b8:	fe042503          	lw	a0,-32(s0)
    81bc:	d5dfb0ef          	jal	3f18 <alt_release_fd>
    ALT_ERRNO = -status;
    81c0:	da5ff0ef          	jal	7f64 <alt_get_errno>
    81c4:	00050713          	mv	a4,a0
    81c8:	fe442783          	lw	a5,-28(s0)
    81cc:	40f007b3          	neg	a5,a5
    81d0:	00f72023          	sw	a5,0(a4)
    return -1;
    81d4:	fff00793          	li	a5,-1
    81d8:	0080006f          	j	81e0 <_open+0x150>
  }
  
  /* return the reference upon success */

  return index;
    81dc:	fe042783          	lw	a5,-32(s0)
}
    81e0:	00078513          	mv	a0,a5
    81e4:	03c12083          	lw	ra,60(sp)
    81e8:	03812403          	lw	s0,56(sp)
    81ec:	04010113          	add	sp,sp,64
    81f0:	00008067          	ret

000081f4 <alt_get_errno>:
    }
}

#else /* !ALT_USE_DIRECT_DRIVERS */

int ALT_READ (int file, void *ptr, size_t len)
    81f4:	ff010113          	add	sp,sp,-16
    81f8:	00112623          	sw	ra,12(sp)
    81fc:	00812423          	sw	s0,8(sp)
    8200:	01010413          	add	s0,sp,16
{
    8204:	81c1a783          	lw	a5,-2020(gp) # 9f84 <alt_errno>
    8208:	00078a63          	beqz	a5,821c <alt_get_errno+0x28>
    820c:	81c1a783          	lw	a5,-2020(gp) # 9f84 <alt_errno>
    8210:	000780e7          	jalr	a5
    8214:	00050793          	mv	a5,a0
    8218:	00c0006f          	j	8224 <alt_get_errno+0x30>
    821c:	0000b7b7          	lui	a5,0xb
    8220:	79478793          	add	a5,a5,1940 # b794 <errno>
  alt_fd*  fd;
    8224:	00078513          	mv	a0,a5
    8228:	00c12083          	lw	ra,12(sp)
    822c:	00812403          	lw	s0,8(sp)
    8230:	01010113          	add	sp,sp,16
    8234:	00008067          	ret

00008238 <_read>:
{
    8238:	fd010113          	add	sp,sp,-48
    823c:	02112623          	sw	ra,44(sp)
    8240:	02812423          	sw	s0,40(sp)
    8244:	03010413          	add	s0,sp,48
    8248:	fca42e23          	sw	a0,-36(s0)
    824c:	fcb42c23          	sw	a1,-40(s0)
    8250:	fcc42a23          	sw	a2,-44(s0)
   * A common error case is that when the file descriptor was created, the call
   * to open() failed resulting in a negative file descriptor. This is trapped
   * below so that we don't try and process an invalid file descriptor.
   */

  fd = (file < 0) ? NULL : &alt_fd_list[file];
    8254:	fdc42783          	lw	a5,-36(s0)
    8258:	0207c463          	bltz	a5,8280 <_read+0x48>
    825c:	fdc42703          	lw	a4,-36(s0)
    8260:	00070793          	mv	a5,a4
    8264:	00179793          	sll	a5,a5,0x1
    8268:	00e787b3          	add	a5,a5,a4
    826c:	00279793          	sll	a5,a5,0x2
    8270:	0000a737          	lui	a4,0xa
    8274:	8b070713          	add	a4,a4,-1872 # 98b0 <alt_fd_list>
    8278:	00e787b3          	add	a5,a5,a4
    827c:	0080006f          	j	8284 <_read+0x4c>
    8280:	00000793          	li	a5,0
    8284:	fef42423          	sw	a5,-24(s0)
  
  if (fd)
    8288:	fe842783          	lw	a5,-24(s0)
    828c:	08078663          	beqz	a5,8318 <_read+0xe0>
     * If the file has not been opened with read access, or if the driver does
     * not provide an implementation of read(), generate an error. Otherwise
     * call the drivers read() function to process the request.
     */

    if (((fd->fd_flags & O_ACCMODE) != O_WRONLY) && 
    8290:	fe842783          	lw	a5,-24(s0)
    8294:	0087a783          	lw	a5,8(a5)
    8298:	0037f713          	and	a4,a5,3
    829c:	00100793          	li	a5,1
    82a0:	06f70263          	beq	a4,a5,8304 <_read+0xcc>
        (fd->dev->read))
    82a4:	fe842783          	lw	a5,-24(s0)
    82a8:	0007a783          	lw	a5,0(a5)
    82ac:	0147a783          	lw	a5,20(a5)
    if (((fd->fd_flags & O_ACCMODE) != O_WRONLY) && 
    82b0:	04078a63          	beqz	a5,8304 <_read+0xcc>
      {
        if ((rval = fd->dev->read(fd, ptr, len)) < 0)
    82b4:	fe842783          	lw	a5,-24(s0)
    82b8:	0007a783          	lw	a5,0(a5)
    82bc:	0147a783          	lw	a5,20(a5)
    82c0:	fd442703          	lw	a4,-44(s0)
    82c4:	00070613          	mv	a2,a4
    82c8:	fd842583          	lw	a1,-40(s0)
    82cc:	fe842503          	lw	a0,-24(s0)
    82d0:	000780e7          	jalr	a5
    82d4:	fea42623          	sw	a0,-20(s0)
    82d8:	fec42783          	lw	a5,-20(s0)
    82dc:	0207d063          	bgez	a5,82fc <_read+0xc4>
        {
          ALT_ERRNO = -rval;
    82e0:	f15ff0ef          	jal	81f4 <alt_get_errno>
    82e4:	00050713          	mv	a4,a0
    82e8:	fec42783          	lw	a5,-20(s0)
    82ec:	40f007b3          	neg	a5,a5
    82f0:	00f72023          	sw	a5,0(a4)
          return -1;
    82f4:	fff00793          	li	a5,-1
    82f8:	0340006f          	j	832c <_read+0xf4>
        }
        return rval;
    82fc:	fec42783          	lw	a5,-20(s0)
    8300:	02c0006f          	j	832c <_read+0xf4>
      }
      else
      {
        ALT_ERRNO = EACCES;
    8304:	ef1ff0ef          	jal	81f4 <alt_get_errno>
    8308:	00050713          	mv	a4,a0
    830c:	00d00793          	li	a5,13
    8310:	00f72023          	sw	a5,0(a4)
    8314:	0140006f          	j	8328 <_read+0xf0>
      }
    }
  else
  {
    ALT_ERRNO = EBADFD;
    8318:	eddff0ef          	jal	81f4 <alt_get_errno>
    831c:	00050713          	mv	a4,a0
    8320:	05100793          	li	a5,81
    8324:	00f72023          	sw	a5,0(a4)
  }
  return -1;
    8328:	fff00793          	li	a5,-1
}
    832c:	00078513          	mv	a0,a5
    8330:	02c12083          	lw	ra,44(sp)
    8334:	02812403          	lw	s0,40(sp)
    8338:	03010113          	add	sp,sp,48
    833c:	00008067          	ret

00008340 <_sbrk>:
#endif
 
caddr_t ALT_SBRK (int incr) __attribute__ ((no_instrument_function ));

caddr_t ALT_SBRK (int incr)
{ 
    8340:	fc010113          	add	sp,sp,-64
    8344:	02812e23          	sw	s0,60(sp)
    8348:	04010413          	add	s0,sp,64
    834c:	fca42623          	sw	a0,-52(s0)
    NIOSV_READ_AND_CLR_CSR(NIOSV_MSTATUS_CSR, context, NIOSV_MSTATUS_MIE_MASK);
    8350:	00800793          	li	a5,8
    8354:	3007b7f3          	csrrc	a5,mstatus,a5
    8358:	fef42223          	sw	a5,-28(s0)
    return context;
    835c:	fe442783          	lw	a5,-28(s0)
  alt_irq_context context;
  char *prev_heap_end; 

  context = alt_irq_disable_all();
    8360:	fcf42e23          	sw	a5,-36(s0)

  /* Always return data aligned on a word boundary */
  heap_end = (char *)(((unsigned int)heap_end + 3) & ~3);
    8364:	8381a783          	lw	a5,-1992(gp) # 9fa0 <heap_end>
    8368:	00378793          	add	a5,a5,3
    836c:	ffc7f793          	and	a5,a5,-4
    8370:	00078713          	mv	a4,a5
    8374:	82e1ac23          	sw	a4,-1992(gp) # 9fa0 <heap_end>
  if (((heap_end + incr) - __alt_heap_start) > ALT_MAX_HEAP_BYTES) {
    alt_irq_enable_all(context);
    return (caddr_t)-1;
  }
#else
  if ((heap_end + incr) > __alt_heap_limit) {
    8378:	8381a703          	lw	a4,-1992(gp) # 9fa0 <heap_end>
    837c:	fcc42783          	lw	a5,-52(s0)
    8380:	00f70733          	add	a4,a4,a5
    8384:	000207b7          	lui	a5,0x20
    8388:	00078793          	mv	a5,a5
    838c:	02e7f263          	bgeu	a5,a4,83b0 <_sbrk+0x70>
    8390:	fdc42783          	lw	a5,-36(s0)
    8394:	fef42423          	sw	a5,-24(s0)
    NIOSV_SET_CSR(NIOSV_MSTATUS_CSR, context & NIOSV_MSTATUS_MIE_MASK);
    8398:	fe842783          	lw	a5,-24(s0)
    839c:	0087f793          	and	a5,a5,8
    83a0:	3007a073          	csrs	mstatus,a5
}
    83a4:	00000013          	nop
    alt_irq_enable_all(context);
    return (caddr_t)-1;
    83a8:	fff00793          	li	a5,-1
    83ac:	0380006f          	j	83e4 <_sbrk+0xa4>
  }
#endif

  prev_heap_end = heap_end; 
    83b0:	8381a783          	lw	a5,-1992(gp) # 9fa0 <heap_end>
    83b4:	fef42023          	sw	a5,-32(s0)
  heap_end += incr; 
    83b8:	8381a703          	lw	a4,-1992(gp) # 9fa0 <heap_end>
    83bc:	fcc42783          	lw	a5,-52(s0)
    83c0:	00f70733          	add	a4,a4,a5
    83c4:	82e1ac23          	sw	a4,-1992(gp) # 9fa0 <heap_end>
    83c8:	fdc42783          	lw	a5,-36(s0)
    83cc:	fef42623          	sw	a5,-20(s0)
    NIOSV_SET_CSR(NIOSV_MSTATUS_CSR, context & NIOSV_MSTATUS_MIE_MASK);
    83d0:	fec42783          	lw	a5,-20(s0)
    83d4:	0087f793          	and	a5,a5,8
    83d8:	3007a073          	csrs	mstatus,a5
}
    83dc:	00000013          	nop

#endif

  alt_irq_enable_all(context);

  return (caddr_t) prev_heap_end; 
    83e0:	fe042783          	lw	a5,-32(s0)
}
    83e4:	00078513          	mv	a0,a5
    83e8:	03c12403          	lw	s0,60(sp)
    83ec:	04010113          	add	sp,sp,64
    83f0:	00008067          	ret

000083f4 <alt_get_errno>:
    case 1: /* stdout file descriptor */
        return ALT_DRIVER_WRITE(ALT_STDOUT_DEV, ptr, len, 0);
#endif /* ALT_STDOUT_PRESENT */
#ifdef ALT_STDERR_PRESENT
    case 2: /* stderr file descriptor */
        return ALT_DRIVER_WRITE(ALT_STDERR_DEV, ptr, len, 0);
    83f4:	ff010113          	add	sp,sp,-16
    83f8:	00112623          	sw	ra,12(sp)
    83fc:	00812423          	sw	s0,8(sp)
    8400:	01010413          	add	s0,sp,16
#endif /* ALT_STDERR_PRESENT */
    8404:	81c1a783          	lw	a5,-2020(gp) # 9f84 <alt_errno>
    8408:	00078a63          	beqz	a5,841c <alt_get_errno+0x28>
    840c:	81c1a783          	lw	a5,-2020(gp) # 9f84 <alt_errno>
    8410:	000780e7          	jalr	a5 # 20000 <__alt_data_end>
    8414:	00050793          	mv	a5,a0
    8418:	00c0006f          	j	8424 <alt_get_errno+0x30>
    841c:	0000b7b7          	lui	a5,0xb
    8420:	79478793          	add	a5,a5,1940 # b794 <errno>
    default:
    8424:	00078513          	mv	a0,a5
    8428:	00c12083          	lw	ra,12(sp)
    842c:	00812403          	lw	s0,8(sp)
    8430:	01010113          	add	sp,sp,16
    8434:	00008067          	ret

00008438 <_write>:
}

#else /* !ALT_USE_DIRECT_DRIVERS */

int ALT_WRITE (int file, const void *ptr, size_t len)
{
    8438:	fd010113          	add	sp,sp,-48
    843c:	02112623          	sw	ra,44(sp)
    8440:	02812423          	sw	s0,40(sp)
    8444:	03010413          	add	s0,sp,48
    8448:	fca42e23          	sw	a0,-36(s0)
    844c:	fcb42c23          	sw	a1,-40(s0)
    8450:	fcc42a23          	sw	a2,-44(s0)
   * A common error case is that when the file descriptor was created, the call
   * to open() failed resulting in a negative file descriptor. This is trapped
   * below so that we don't try and process an invalid file descriptor.
   */

  fd = (file < 0) ? NULL : &alt_fd_list[file];
    8454:	fdc42783          	lw	a5,-36(s0)
    8458:	0207c463          	bltz	a5,8480 <_write+0x48>
    845c:	fdc42703          	lw	a4,-36(s0)
    8460:	00070793          	mv	a5,a4
    8464:	00179793          	sll	a5,a5,0x1
    8468:	00e787b3          	add	a5,a5,a4
    846c:	00279793          	sll	a5,a5,0x2
    8470:	0000a737          	lui	a4,0xa
    8474:	8b070713          	add	a4,a4,-1872 # 98b0 <alt_fd_list>
    8478:	00e787b3          	add	a5,a5,a4
    847c:	0080006f          	j	8484 <_write+0x4c>
    8480:	00000793          	li	a5,0
    8484:	fef42423          	sw	a5,-24(s0)
  
  if (fd)
    8488:	fe842783          	lw	a5,-24(s0)
    848c:	08078463          	beqz	a5,8514 <_write+0xdc>
     * If the file has not been opened with write access, or if the driver does
     * not provide an implementation of write(), generate an error. Otherwise
     * call the drivers write() function to process the request.
     */

    if (((fd->fd_flags & O_ACCMODE) != O_RDONLY) && fd->dev->write)
    8490:	fe842783          	lw	a5,-24(s0)
    8494:	0087a783          	lw	a5,8(a5)
    8498:	0037f793          	and	a5,a5,3
    849c:	06078263          	beqz	a5,8500 <_write+0xc8>
    84a0:	fe842783          	lw	a5,-24(s0)
    84a4:	0007a783          	lw	a5,0(a5)
    84a8:	0187a783          	lw	a5,24(a5)
    84ac:	04078a63          	beqz	a5,8500 <_write+0xc8>
    {
      
      /* ALT_LOG - see altera_hal/HAL/inc/sys/alt_log_printf.h */
      ALT_LOG_WRITE_FUNCTION(ptr,len);

      if ((rval = fd->dev->write(fd, ptr, len)) < 0)
    84b0:	fe842783          	lw	a5,-24(s0)
    84b4:	0007a783          	lw	a5,0(a5)
    84b8:	0187a783          	lw	a5,24(a5)
    84bc:	fd442703          	lw	a4,-44(s0)
    84c0:	00070613          	mv	a2,a4
    84c4:	fd842583          	lw	a1,-40(s0)
    84c8:	fe842503          	lw	a0,-24(s0)
    84cc:	000780e7          	jalr	a5
    84d0:	fea42623          	sw	a0,-20(s0)
    84d4:	fec42783          	lw	a5,-20(s0)
    84d8:	0207d063          	bgez	a5,84f8 <_write+0xc0>
      {
        ALT_ERRNO = -rval;
    84dc:	f19ff0ef          	jal	83f4 <alt_get_errno>
    84e0:	00050713          	mv	a4,a0
    84e4:	fec42783          	lw	a5,-20(s0)
    84e8:	40f007b3          	neg	a5,a5
    84ec:	00f72023          	sw	a5,0(a4)
        return -1;
    84f0:	fff00793          	li	a5,-1
    84f4:	0340006f          	j	8528 <_write+0xf0>
      }
      return rval;
    84f8:	fec42783          	lw	a5,-20(s0)
    84fc:	02c0006f          	j	8528 <_write+0xf0>
    }
    else
    {
      ALT_ERRNO = EACCES;
    8500:	ef5ff0ef          	jal	83f4 <alt_get_errno>
    8504:	00050713          	mv	a4,a0
    8508:	00d00793          	li	a5,13
    850c:	00f72023          	sw	a5,0(a4)
    8510:	0140006f          	j	8524 <_write+0xec>
    }
  }
  else  
  {
    ALT_ERRNO = EBADFD;
    8514:	ee1ff0ef          	jal	83f4 <alt_get_errno>
    8518:	00050713          	mv	a4,a0
    851c:	05100793          	li	a5,81
    8520:	00f72023          	sw	a5,0(a4)
  }
  return -1;
    8524:	fff00793          	li	a5,-1
}
    8528:	00078513          	mv	a0,a5
    852c:	02c12083          	lw	ra,44(sp)
    8530:	02812403          	lw	s0,40(sp)
    8534:	03010113          	add	sp,sp,48
    8538:	00008067          	ret

0000853c <alt_find_file>:
 * either '/' or '\0' is the prefix of the filename. For example the filename:
 * "/myfilesystem/junk.txt" would match: "/myfilesystem", but not: "/myfile". 
 */
 
alt_dev* alt_find_file (const char* name)
{
    853c:	fd010113          	add	sp,sp,-48
    8540:	02812623          	sw	s0,44(sp)
    8544:	03010413          	add	s0,sp,48
    8548:	fca42e23          	sw	a0,-36(s0)
    alt_dev* next = (alt_dev*) alt_fs_list.next;   
    854c:	0000a7b7          	lui	a5,0xa
    8550:	f7078793          	add	a5,a5,-144 # 9f70 <alt_fs_list>
    8554:	0007a783          	lw	a5,0(a5)
    8558:	fef42223          	sw	a5,-28(s0)
    alt_32   len=0;
    855c:	fe042423          	sw	zero,-24(s0)
    alt_32   MAX_STRING_LENGTH=1000;
    8560:	3e800793          	li	a5,1000
    8564:	fef42623          	sw	a5,-20(s0)
 
    /*
    * Check each list entry in turn, until a match is found, or we reach the
    * end of the list (i.e. next winds up pointing back to the list head).
    */ 
    while (next != (alt_dev*) &alt_fs_list)
    8568:	0ec0006f          	j	8654 <alt_find_file+0x118>
    {
        len=0;
    856c:	fe042423          	sw	zero,-24(s0)
        while (len < MAX_STRING_LENGTH)    
    8570:	0bc0006f          	j	862c <alt_find_file+0xf0>
        {
            if (((next->name[len]== '/') && (next->name[len+1] == 0)) || (next->name[len] == 0))
    8574:	fe442783          	lw	a5,-28(s0)
    8578:	0087a703          	lw	a4,8(a5)
    857c:	fe842783          	lw	a5,-24(s0)
    8580:	00f707b3          	add	a5,a4,a5
    8584:	0007c703          	lbu	a4,0(a5)
    8588:	02f00793          	li	a5,47
    858c:	02f71063          	bne	a4,a5,85ac <alt_find_file+0x70>
    8590:	fe442783          	lw	a5,-28(s0)
    8594:	0087a703          	lw	a4,8(a5)
    8598:	fe842783          	lw	a5,-24(s0)
    859c:	00178793          	add	a5,a5,1
    85a0:	00f707b3          	add	a5,a4,a5
    85a4:	0007c783          	lbu	a5,0(a5)
    85a8:	00078e63          	beqz	a5,85c4 <alt_find_file+0x88>
    85ac:	fe442783          	lw	a5,-28(s0)
    85b0:	0087a703          	lw	a4,8(a5)
    85b4:	fe842783          	lw	a5,-24(s0)
    85b8:	00f707b3          	add	a5,a4,a5
    85bc:	0007c783          	lbu	a5,0(a5)
    85c0:	02079c63          	bnez	a5,85f8 <alt_find_file+0xbc>
            { 
                if ((name[len]== '/') || (name[len] == 0))
    85c4:	fe842783          	lw	a5,-24(s0)
    85c8:	fdc42703          	lw	a4,-36(s0)
    85cc:	00f707b3          	add	a5,a4,a5
    85d0:	0007c703          	lbu	a4,0(a5)
    85d4:	02f00793          	li	a5,47
    85d8:	00f70c63          	beq	a4,a5,85f0 <alt_find_file+0xb4>
    85dc:	fe842783          	lw	a5,-24(s0)
    85e0:	fdc42703          	lw	a4,-36(s0)
    85e4:	00f707b3          	add	a5,a4,a5
    85e8:	0007c783          	lbu	a5,0(a5)
    85ec:	04079863          	bnez	a5,863c <alt_find_file+0x100>
                {
                    return next;
    85f0:	fe442783          	lw	a5,-28(s0)
    85f4:	0740006f          	j	8668 <alt_find_file+0x12c>
                }
                break;
            }
            
            if (next->name[len]!=name[len]) { break; }
    85f8:	fe442783          	lw	a5,-28(s0)
    85fc:	0087a703          	lw	a4,8(a5)
    8600:	fe842783          	lw	a5,-24(s0)
    8604:	00f707b3          	add	a5,a4,a5
    8608:	0007c703          	lbu	a4,0(a5)
    860c:	fe842783          	lw	a5,-24(s0)
    8610:	fdc42683          	lw	a3,-36(s0)
    8614:	00f687b3          	add	a5,a3,a5
    8618:	0007c783          	lbu	a5,0(a5)
    861c:	02f71463          	bne	a4,a5,8644 <alt_find_file+0x108>
            len++;
    8620:	fe842783          	lw	a5,-24(s0)
    8624:	00178793          	add	a5,a5,1
    8628:	fef42423          	sw	a5,-24(s0)
        while (len < MAX_STRING_LENGTH)    
    862c:	fe842703          	lw	a4,-24(s0)
    8630:	fec42783          	lw	a5,-20(s0)
    8634:	f4f740e3          	blt	a4,a5,8574 <alt_find_file+0x38>
    8638:	0100006f          	j	8648 <alt_find_file+0x10c>
                break;
    863c:	00000013          	nop
    8640:	0080006f          	j	8648 <alt_find_file+0x10c>
            if (next->name[len]!=name[len]) { break; }
    8644:	00000013          	nop
        }  
        
        next = (alt_dev*) next->llist.next;
    8648:	fe442783          	lw	a5,-28(s0)
    864c:	0007a783          	lw	a5,0(a5)
    8650:	fef42223          	sw	a5,-28(s0)
    while (next != (alt_dev*) &alt_fs_list)
    8654:	fe442703          	lw	a4,-28(s0)
    8658:	0000a7b7          	lui	a5,0xa
    865c:	f7078793          	add	a5,a5,-144 # 9f70 <alt_fs_list>
    8660:	f0f716e3          	bne	a4,a5,856c <alt_find_file+0x30>
    }
  
    /* No match found */
  
    return NULL;     
    8664:	00000793          	li	a5,0
}
    8668:	00078513          	mv	a0,a5
    866c:	02c12403          	lw	s0,44(sp)
    8670:	03010113          	add	sp,sp,48
    8674:	00008067          	ret

00008678 <alt_get_fd>:
 * the offset of the file descriptor within the file descriptor array). A
 * negative value indicates failure.
 */

int alt_get_fd (alt_dev* dev)
{
    8678:	fd010113          	add	sp,sp,-48
    867c:	02812623          	sw	s0,44(sp)
    8680:	03010413          	add	s0,sp,48
    8684:	fca42e23          	sw	a0,-36(s0)
  alt_32 i;
  int rc = -EMFILE;
    8688:	fe800793          	li	a5,-24
    868c:	fef42623          	sw	a5,-20(s0)
   * indicates the highest file descriptor ever allocated. This is used to
   * improve efficency when searching the file descriptor list, and 
   * therefore reduce contention on the alt_fd_list_lock semaphore. 
   */

  for (i = 0; i < ALT_MAX_FD; i++)
    8690:	fe042423          	sw	zero,-24(s0)
    8694:	0800006f          	j	8714 <alt_get_fd+0x9c>
  {
    if (!alt_fd_list[i].dev)
    8698:	0000a7b7          	lui	a5,0xa
    869c:	8b078693          	add	a3,a5,-1872 # 98b0 <alt_fd_list>
    86a0:	fe842703          	lw	a4,-24(s0)
    86a4:	00070793          	mv	a5,a4
    86a8:	00179793          	sll	a5,a5,0x1
    86ac:	00e787b3          	add	a5,a5,a4
    86b0:	00279793          	sll	a5,a5,0x2
    86b4:	00f687b3          	add	a5,a3,a5
    86b8:	0007a783          	lw	a5,0(a5)
    86bc:	04079663          	bnez	a5,8708 <alt_get_fd+0x90>
    {
      alt_fd_list[i].dev = dev;
    86c0:	0000a7b7          	lui	a5,0xa
    86c4:	8b078693          	add	a3,a5,-1872 # 98b0 <alt_fd_list>
    86c8:	fe842703          	lw	a4,-24(s0)
    86cc:	00070793          	mv	a5,a4
    86d0:	00179793          	sll	a5,a5,0x1
    86d4:	00e787b3          	add	a5,a5,a4
    86d8:	00279793          	sll	a5,a5,0x2
    86dc:	00f687b3          	add	a5,a3,a5
    86e0:	fdc42703          	lw	a4,-36(s0)
    86e4:	00e7a023          	sw	a4,0(a5)
      if (i > alt_max_fd)
    86e8:	8181a783          	lw	a5,-2024(gp) # 9f80 <alt_max_fd>
    86ec:	fe842703          	lw	a4,-24(s0)
    86f0:	00e7d663          	bge	a5,a4,86fc <alt_get_fd+0x84>
      {
        alt_max_fd = i;
    86f4:	fe842703          	lw	a4,-24(s0)
    86f8:	80e1ac23          	sw	a4,-2024(gp) # 9f80 <alt_max_fd>
      }
      rc = i;
    86fc:	fe842783          	lw	a5,-24(s0)
    8700:	fef42623          	sw	a5,-20(s0)
      goto alt_get_fd_exit;
    8704:	0200006f          	j	8724 <alt_get_fd+0xac>
  for (i = 0; i < ALT_MAX_FD; i++)
    8708:	fe842783          	lw	a5,-24(s0)
    870c:	00178793          	add	a5,a5,1
    8710:	fef42423          	sw	a5,-24(s0)
    8714:	fe842703          	lw	a4,-24(s0)
    8718:	01f00793          	li	a5,31
    871c:	f6e7dee3          	bge	a5,a4,8698 <alt_get_fd+0x20>
    }
  }

 alt_get_fd_exit:
    8720:	00000013          	nop
   * file descriptor pool.
   */

  ALT_SEM_POST(alt_fd_list_lock);

  return rc;
    8724:	fec42783          	lw	a5,-20(s0)
}
    8728:	00078513          	mv	a0,a5
    872c:	02c12403          	lw	s0,44(sp)
    8730:	03010113          	add	sp,sp,48
    8734:	00008067          	ret

00008738 <fstat>:
    8738:	00058613          	mv	a2,a1
    873c:	00050593          	mv	a1,a0
    8740:	8281a503          	lw	a0,-2008(gp) # 9f90 <_impure_ptr>
    8744:	f01fe06f          	j	7644 <_fstat_r>
    8748:	5800                	.insn	2, 0x5800
    874a:	0000                	.insn	2, 0x
    874c:	5298                	.insn	2, 0x5298
	...
