
app.elf:     file format elf32-littleriscv
app.elf
architecture: riscv:rv32, flags 0x00000112:
EXEC_P, HAS_SYMS, D_PAGED
start address 0x0000065c

Program Header:
0x70000003 off    0x0000afb6 vaddr 0x00000000 paddr 0x00000000 align 2**0
         filesz 0x00000020 memsz 0x00000000 flags r--
    LOAD off    0x00001000 vaddr 0x00000000 paddr 0x00000000 align 2**12
         filesz 0x00000020 memsz 0x00000020 flags r-x
    LOAD off    0x00001020 vaddr 0x00000020 paddr 0x00000020 align 2**12
         filesz 0x000087cc memsz 0x000087cc flags r-x
    LOAD off    0x000097ec vaddr 0x000087ec paddr 0x00009fa4 align 2**12
         filesz 0x000017b8 memsz 0x000017b8 flags rw-
    LOAD off    0x0000075c vaddr 0x0000b75c paddr 0x0000b75c align 2**12
         filesz 0x00000000 memsz 0x000003e4 flags rw-

Sections:
Idx Name          Size      VMA       LMA       File off  Algn
  0 .entry        00000020  00000000  00000000  00001000  2**5
                  CONTENTS, ALLOC, LOAD, READONLY, CODE
  1 .exceptions   000002f4  00000020  00000020  00001020  2**2
                  CONTENTS, ALLOC, LOAD, READONLY, CODE
  2 .text         0000843c  00000314  00000314  00001314  2**2
                  CONTENTS, ALLOC, LOAD, READONLY, CODE
  3 .rodata       0000009c  00008750  00008750  00009750  2**2
                  CONTENTS, ALLOC, LOAD, READONLY, DATA
  4 .rwdata       000017b8  000087ec  00009fa4  000097ec  2**2
                  CONTENTS, ALLOC, LOAD, DATA
  5 .bss          000003e4  0000b75c  0000b75c  0000b75c  2**2
                  ALLOC
  6 .onchip_memory2_0 00000000  0000bb40  0000bb40  0000afa4  2**0
                  CONTENTS
  7 .comment      00000012  00000000  00000000  0000afa4  2**0
                  CONTENTS, READONLY
  8 .riscv.attributes 00000020  00000000  00000000  0000afb6  2**0
                  CONTENTS, READONLY
  9 .debug_aranges 000005f8  00000000  00000000  0000afd8  2**3
                  CONTENTS, READONLY, DEBUGGING, OCTETS
 10 .debug_info   0000911c  00000000  00000000  0000b5d0  2**0
                  CONTENTS, READONLY, DEBUGGING, OCTETS
 11 .debug_abbrev 00003484  00000000  00000000  000146ec  2**0
                  CONTENTS, READONLY, DEBUGGING, OCTETS
 12 .debug_line   00004d01  00000000  00000000  00017b70  2**0
                  CONTENTS, READONLY, DEBUGGING, OCTETS
 13 .debug_frame  000013dc  00000000  00000000  0001c874  2**2
                  CONTENTS, READONLY, DEBUGGING, OCTETS
 14 .debug_str    00001bb6  00000000  00000000  0001dc50  2**0
                  CONTENTS, READONLY, DEBUGGING, OCTETS
 15 .debug_line_str 000010fc  00000000  00000000  0001f806  2**0
                  CONTENTS, READONLY, DEBUGGING, OCTETS
 16 .debug_ranges 00000020  00000000  00000000  00020908  2**3
                  CONTENTS, READONLY, DEBUGGING, OCTETS
 17 .debug_rnglists 0000005f  00000000  00000000  00020928  2**0
                  CONTENTS, READONLY, DEBUGGING, OCTETS
SYMBOL TABLE:
00000000 l    d  .entry	00000000 .entry
00000020 l    d  .exceptions	00000000 .exceptions
00000314 l    d  .text	00000000 .text
00008750 l    d  .rodata	00000000 .rodata
000087ec l    d  .rwdata	00000000 .rwdata
0000b75c l    d  .bss	00000000 .bss
0000bb40 l    d  .onchip_memory2_0	00000000 .onchip_memory2_0
00000000 l    d  .comment	00000000 .comment
00000000 l    d  .riscv.attributes	00000000 .riscv.attributes
00000000 l    d  .debug_aranges	00000000 .debug_aranges
00000000 l    d  .debug_info	00000000 .debug_info
00000000 l    d  .debug_abbrev	00000000 .debug_abbrev
00000000 l    d  .debug_line	00000000 .debug_line
00000000 l    d  .debug_frame	00000000 .debug_frame
00000000 l    d  .debug_str	00000000 .debug_str
00000000 l    d  .debug_line_str	00000000 .debug_line_str
00000000 l    d  .debug_ranges	00000000 .debug_ranges
00000000 l    d  .debug_rnglists	00000000 .debug_rnglists
00000000 l    df *ABS*	00000000 crt0.S.obj
00000704 l       .text	00000000 alt_after_alt_main
00000000 l    df *ABS*	00000000 machine_trap.S.obj
00000020 l       .exceptions	00000000 save_registers
00000000 l    df *ABS*	00000000 alt_irq_handler.c
00000000 l    df *ABS*	00000000 main.c
0000b7cc l     O .bss	00000004 i2c
00000314 l     F .text	000000a8 adxl_write
000003bc l     F .text	00000140 adxl_read_xyz
000004fc l     F .text	00000054 clamp_u32
00000000 l    df *ABS*	00000000 alt_load.c
00000708 l     F .text	00000064 alt_load_section
00000000 l    df *ABS*	00000000 alt_main.c
00000000 l    df *ABS*	00000000 alt_usleep.c
00000000 l    df *ABS*	00000000 alt_sys_init.c
000087f0 l     O .rwdata	00000038 i2c_0
00008828 l     O .rwdata	00001060 jtag_uart_0
00000000 l    df *ABS*	00000000 altera_avalon_i2c.c
0000096c l     F .text	00000138 optional_irq_callback
00000af0 l     F .text	00000094 alt_avalon_i2c_irq
00000000 l    df *ABS*	00000000 altera_avalon_jtag_uart_fd.c
00000000 l    df *ABS*	00000000 altera_avalon_jtag_uart_init.c
00002abc l     F .text	00000238 altera_avalon_jtag_uart_irq
00002cf4 l     F .text	000000bc altera_avalon_jtag_uart_timeout
00000000 l    df *ABS*	00000000 altera_avalon_jtag_uart_ioctl.c
00000000 l    df *ABS*	00000000 altera_avalon_jtag_uart_read.c
00000000 l    df *ABS*	00000000 altera_avalon_jtag_uart_write.c
00000000 l    df *ABS*	00000000 alt_alarm_start.c
00000000 l    df *ABS*	00000000 alt_busy_sleep.c
00000000 l    df *ABS*	00000000 alt_dcache_flush_all.c
00000000 l    df *ABS*	00000000 alt_dev.c
00003590 l     F .text	0000002c alt_dev_null_write
00000000 l    df *ABS*	00000000 alt_dev_llist_insert.c
000035f4 l     F .text	00000044 alt_get_errno
00000000 l    df *ABS*	00000000 alt_do_ctors.c
00000000 l    df *ABS*	00000000 alt_do_dtors.c
00000000 l    df *ABS*	00000000 alt_errno.c
00000000 l    df *ABS*	00000000 alt_find_dev.c
00000000 l    df *ABS*	00000000 alt_icache_flush_all.c
00000000 l    df *ABS*	00000000 alt_iic.c
00000000 l    df *ABS*	00000000 alt_iic_isr_register.c
00000000 l    df *ABS*	00000000 alt_io_redirect.c
00003aac l     F .text	000000dc alt_open_fd
00000000 l    df *ABS*	00000000 alt_printf.c
00000000 l    df *ABS*	00000000 alt_putchar.c
00000000 l    df *ABS*	00000000 alt_release_fd.c
00000000 l    df *ABS*	00000000 alt_tick.c
00000000 l    df *ABS*	00000000 intel_niosv_irq.c
00000000 l    df *ABS*	00000000 mtimer.c
00000000 l    df *ABS*	00000000 libc_a-atexit.o
00000000 l    df *ABS*	00000000 libc_a-exit.o
00000000 l    df *ABS*	00000000 libc_a-findfp.o
00004550 l     F .text	0000001c stdio_exit_handler
0000456c l     F .text	00000070 cleanup_stdio
000045dc l     F .text	00000040 __fp_lock
0000461c l     F .text	00000040 __fp_unlock
0000465c l     F .text	00000190 global_stdio_init.part.0
00000000 l    df *ABS*	00000000 libc_a-fwalk.o
00000000 l    df *ABS*	00000000 libc_a-putchar.o
00000000 l    df *ABS*	00000000 libc_a-setvbuf.o
00000000 l    df *ABS*	00000000 libc_a-stdio.o
00000000 l    df *ABS*	00000000 libc_a-closer.o
00000000 l    df *ABS*	00000000 libc_a-reent.o
00000000 l    df *ABS*	00000000 libc_a-lseekr.o
00000000 l    df *ABS*	00000000 libc_a-readr.o
00000000 l    df *ABS*	00000000 libc_a-writer.o
00000000 l    df *ABS*	00000000 libc_a-lock.o
00000000 l    df *ABS*	00000000 libc_a-sysclose.o
00000000 l    df *ABS*	00000000 libc_a-sysopen.o
00000000 l    df *ABS*	00000000 libc_a-stack_protector.o
00000000 l    df *ABS*	00000000 libc_a-memset.o
00000000 l    df *ABS*	00000000 libc_a-memcpy.o
00000000 l    df *ABS*	00000000 libc_a-strlen.o
00000000 l    df *ABS*	00000000 libc_a-__atexit.o
00000000 l    df *ABS*	00000000 libc_a-__call_atexit.o
00005800 l     F .text	00000018 register_fini
00000000 l    df *ABS*	00000000 libc_a-freer.o
00000000 l    df *ABS*	00000000 libc_a-malloc.o
00000000 l    df *ABS*	00000000 libc_a-mallocr.o
00000000 l    df *ABS*	00000000 libc_a-mlock.o
00000000 l    df *ABS*	00000000 libc_a-fclose.o
00000000 l    df *ABS*	00000000 libc_a-fflush.o
00000000 l    df *ABS*	00000000 libc_a-makebuf.o
00000000 l    df *ABS*	00000000 libc_a-putc.o
00000000 l    df *ABS*	00000000 libc_a-wbuf.o
00000000 l    df *ABS*	00000000 libc_a-wsetup.o
00000000 l    df *ABS*	00000000 libc_a-signal.o
00000000 l    df *ABS*	00000000 libc_a-fstatr.o
00000000 l    df *ABS*	00000000 libc_a-isattyr.o
00000000 l    df *ABS*	00000000 libc_a-openr.o
00000000 l    df *ABS*	00000000 libc_a-signalr.o
00000000 l    df *ABS*	00000000 libc_a-sbrkr.o
00000000 l    df *ABS*	00000000 libc_a-fini.o
00000000 l    df *ABS*	00000000 libc_a-syswrite.o
00000000 l    df *ABS*	00000000 div.o
00000000 l    df *ABS*	00000000 alt_close.c
00007940 l     F .text	00000044 alt_get_errno
00000000 l    df *ABS*	00000000 alt_exit.c
00000000 l    df *ABS*	00000000 alt_fstat.c
00007aa4 l     F .text	00000044 alt_get_errno
00000000 l    df *ABS*	00000000 alt_getpid.c
00000000 l    df *ABS*	00000000 alt_isatty.c
00007bc8 l     F .text	00000044 alt_get_errno
00000000 l    df *ABS*	00000000 alt_kill.c
00007d08 l     F .text	00000044 alt_get_errno
00000000 l    df *ABS*	00000000 alt_lseek.c
00007e40 l     F .text	00000044 alt_get_errno
00000000 l    df *ABS*	00000000 alt_open.c
00007f64 l     F .text	00000044 alt_get_errno
00007fa8 l     F .text	000000e8 alt_file_locked
00000000 l    df *ABS*	00000000 alt_read.c
000081f4 l     F .text	00000044 alt_get_errno
00000000 l    df *ABS*	00000000 alt_sbrk.c
00009fa0 l     O .rwdata	00000004 heap_end
00000000 l    df *ABS*	00000000 alt_write.c
000083f4 l     F .text	00000044 alt_get_errno
00000000 l    df *ABS*	00000000 alt_find_file.c
00000000 l    df *ABS*	00000000 alt_get_fd.c
00000000 l    df *ABS*	00000000 libc_a-sysfstat.o
0000528c g     F .text	0000000c .hidden __stack_chk_fail_local
00004af0 g     F .text	00000014 putchar
000076a4 g     F .text	00000058 _isatty_r
000007e0 g     F .text	00000088 alt_main
00007ba8 g     F .text	00000020 _getpid
0000b7d0 g     O .bss	00000080 alt_irq
00005044 g     F .text	00000064 _lseek_r
00009fa4 g       *ABS*	00000000 __flash_rwdata_start
0000bb40 g       *ABS*	00000000 __alt_heap_start
00007760 g     F .text	00000060 _kill_r
0000a768 g       *ABS*	00000000 __global_pointer$
0000b7b0 g     O .bss	00000001 __lock___atexit_recursive_mutex
00007160 g     F .text	0000009c _signal_r
00004e88 g     F .text	00000078 __sseek
00004944 g     F .text	00000070 __sinit
00006e54 g     F .text	00000160 __swbuf_r
000087ec g       *ABS*	00000000 __tls_base
00001288 g     F .text	000000bc alt_avalon_i2c_rx_read
00006460 g     F .text	0000000c __malloc_unlock
000026d8 g     F .text	00000048 alt_avalon_i2c_enabled_ints_get
0000b798 g     O .bss	00000001 __lock___arc4random_mutex
00000fdc g     F .text	00000090 alt_avalon_i2c_master_config_speed_get
000000c0 g     F .exceptions	00000028 is_ecc_handler_present
00001e18 g     F .text	00000224 alt_avalon_i2c_master_transmit_using_interrupts
0000b7b8 g     O .bss	00000004 __stack_chk_guard
00009f94 g     O .rwdata	00000004 __atexit_recursive_mutex
00005178 g     F .text	00000004 __retarget_lock_close
00000000 g     F .entry	00000004 __reset
0000b790 g     O .bss	00000004 __stdio_exit_handler
00000020 g       *ABS*	00000000 __flash_exceptions_start
00007644 g     F .text	00000060 _fstat_r
0000b794 g     O .bss	00000004 errno
00004df8 g     F .text	00000008 __seofread
0000b768 g     O .bss	00000004 alt_argv
00000868 g     F .text	00000034 usleep
00002720 g     F .text	0000004c alt_avalon_i2c_rx_fifo_threshold_get
00001184 g     F .text	0000004c alt_avalon_i2c_is_busy
000098b0 g     O .rwdata	00000180 alt_fd_list
00004ae8 g     F .text	00000008 _putchar_r
00000f00 g     F .text	000000dc alt_avalon_i2c_master_config_set
000037a0 g     F .text	00000120 alt_find_dev
00005390 g     F .text	000001a4 memcpy
00004b04 g     F .text	00000298 setvbuf
000043e4 g     F .text	000000ac alt_niosv_timer_sc_isr
00003b88 g     F .text	000000fc alt_io_redirect
00001c00 g     F .text	00000218 alt_avalon_i2c_master_transmit
00008750 g       *ABS*	00000000 __fini_array_end
00007894 g     F .text	00000048 .hidden __hidden___udivsi3
00002f1c g     F .text	0000022c altera_avalon_jtag_uart_read
00005c60 g     F .text	0000000c malloc
00000000 g       *ABS*	00000000 __alt_mem_onchip_memory2_0
00007894 g     F .text	00000048 .hidden __udivsi3
000071fc g     F .text	000000c4 _raise_r
00007ae8 g     F .text	000000c0 _fstat
000001fc g     F .exceptions	00000118 handle_trap
00000d28 g     F .text	000000b0 alt_avalon_i2c_enable
0000b7c8 g     O .bss	00000004 __malloc_top_pad
000077c0 g     F .text	00000004 _getpid_r
0000b770 g     O .bss	00000004 __dso_handle
000025a4 g     F .text	0000009c alt_avalon_i2c_int_disable
000072c0 g     F .text	000000e0 __sigtramp_r
000077c4 g     F .text	00000058 _sbrk_r
000050a8 g     F .text	00000064 _read_r
00009f80 g     O .rwdata	00000004 alt_max_fd
0000646c g     F .text	00000170 _fclose_r
00006914 g     F .text	000000d0 fflush
0000b7c4 g     O .bss	00000004 __malloc_max_sbrked_mem
0000203c g     F .text	00000274 alt_avalon_i2c_master_receive
00005298 g     F .text	0000001c __stack_chk_init
0000b7a4 g     O .bss	00000001 __lock___env_recursive_mutex
00007c0c g     F .text	000000fc _isatty
00002640 g     F .text	00000098 alt_avalon_i2c_int_enable
0000bb40 g       *ABS*	00000000 __bss_end
00003930 g     F .text	0000017c alt_iic_isr_register
00004024 g     F .text	00000158 alt_tick
000024c0 g     F .text	00000060 alt_avalon_i2c_int_status_get
00008090 g     F .text	00000164 _open
00008340 g     F .text	000000b4 _sbrk
000051f4 g     F .text	00000098 __stack_chk_fail
000087ec g       *ABS*	00000000 __tbss_start
00004490 g     F .text	0000007c alt_niosv_mtimecmp_interrupt_init
000049cc g     F .text	00000034 __fp_lock_all
00003f8c g     F .text	00000098 alt_alarm_stop
00000b84 g     F .text	00000050 alt_avalon_i2c_register_callback
00000bd4 g     F .text	00000110 alt_avalon_i2c_init
00000108 g     F .exceptions	000000f4 alt_irq_handler
00009888 g     O .rwdata	00000028 alt_dev_null
0000781c g     F .text	0000005c __libc_fini_array
0000425c g     F .text	00000080 alt_niosv_mtime_get
00004f60 g     F .text	000000e4 _reclaim_reent
00003574 g     F .text	0000001c alt_dcache_flush_all
000000e8 g     F .exceptions	00000020 break_operation
0000b7a8 g     O .bss	00000001 __lock___malloc_recursive_mutex
00009fa4 g       *ABS*	00000000 __ram_rwdata_end
0000b850 g     O .bss	00000138 __sf
00009f78 g     O .rwdata	00000008 alt_dev_list
00007878 g     F .text	00000014 write
00006c54 g     F .text	000000fc _putc_r
00001624 g     F .text	00000050 alt_avalon_i2c_check_arblost
00004238 g     F .text	00000024 alt_timestamp_freq
00002564 g     F .text	00000040 alt_avalon_i2c_int_clear
000087ec g       *ABS*	00000000 __ram_rodata_end
00008738 g     F .text	00000010 fstat
00009f68 g     O .rwdata	00000008 alt_avalon_i2c_list
000078dc g     F .text	00000010 .hidden __umodsi3
0000bb40 g       *ABS*	00000000 end
000035bc g     F .text	00000038 alt_dev_reg
0000519c g     F .text	00000004 __retarget_lock_release_recursive
00005190 g     F .text	00000008 __retarget_lock_try_acquire_recursive
000029fc g     F .text	000000c0 altera_avalon_jtag_uart_init
00000ce4 g     F .text	00000044 alt_avalon_i2c_open
00020000 g       *ABS*	00000000 __alt_stack_pointer
000017fc g     F .text	000000e8 alt_avalon_i2c_master_tx
00003148 g     F .text	0000023c altera_avalon_jtag_uart_write
000049b4 g     F .text	0000000c __sfp_lock_acquire
00005958 g     F .text	00000308 _free_r
00003c84 g     F .text	00000260 alt_printf
000056ac g     F .text	00000154 __call_exitprocs
0000b988 g     O .bss	00000190 __atexit0
00000aa4 g     F .text	0000004c alt_avalon_i2c_register_optional_irq_handler
00009f98 g     O .rwdata	00000004 __malloc_sbrk_base
0000065c g     F .text	000000ac _start
0000b778 g     O .bss	00000004 _alt_tick_rate
00005188 g     F .text	00000008 __retarget_lock_try_acquire
000022b0 g     F .text	00000210 alt_avalon_i2c_master_receive_using_interrupts
00007e84 g     F .text	000000e0 _lseek
0000276c g     F .text	00000068 alt_avalon_i2c_rx_fifo_threshold_set
0000b780 g     O .bss	00000008 _alt_nticks
00007460 g     F .text	000000a4 signal
00004358 g     F .text	0000008c alt_niosv_mtimecmp_get
000008d4 g     F .text	00000098 alt_sys_init
000076fc g     F .text	00000064 _open_r
000087ec g       *ABS*	00000000 __tdata_source
000055c0 g     F .text	000000ec __register_exitproc
00001a24 g     F .text	000001dc alt_avalon_i2c_master_tx_rx
00002db0 g     F .text	0000006c altera_avalon_jtag_uart_close
000087ec g       *ABS*	00000000 __ram_rwdata_start
00008750 g       *ABS*	00000000 __ram_rodata_start
0000bb18 g     O .bss	00000028 __malloc_current_mallinfo
0000b788 g     O .bss	00000008 alt_niosv_timestamp_offset
0000b760 g     O .bss	00000004 alt_niosv_timer_interrupt_handler
00002888 g     F .text	00000064 altera_avalon_jtag_uart_read_fd
00008678 g     F .text	000000c0 alt_get_fd
000034ec g     F .text	00000088 alt_busy_sleep
00004f08 g     F .text	00000058 _close_r
000011d0 g     F .text	000000b8 alt_avalon_i2c_rx_read_available
00002950 g     F .text	00000054 altera_avalon_jtag_uart_close_fd
0000bb40 g       *ABS*	00000000 __alt_stack_base
000029a4 g     F .text	00000058 altera_avalon_jtag_uart_ioctl_fd
0000517c g     F .text	00000004 __retarget_lock_close_recursive
00006fc4 g     F .text	00000140 __swsetup_r
000047ec g     F .text	00000158 __sfp
00009b60 g     O .rwdata	00000408 __malloc_av_
0000b7bc g     O .bss	00000004 __atexit
00004d9c g     F .text	0000005c __sread
0000853c g     F .text	0000013c alt_find_file
00003638 g     F .text	000000a8 alt_dev_llist_insert
00006454 g     F .text	0000000c __malloc_lock
00008750 g       *ABS*	00000000 __fini_array_start
00001674 g     F .text	00000188 alt_avalon_i2c_interrupt_transaction_status
000015d4 g     F .text	00000050 alt_avalon_i2c_check_nack
00006834 g     F .text	000000e0 _fflush_r
00005184 g     F .text	00000004 __retarget_lock_acquire_recursive
0000b75c g       *ABS*	00000000 __bss_start
000087ec g       *ABS*	00000000 __tdata_start
000087ec g       *ABS*	00000000 __tdata_end
000052b4 g     F .text	000000dc memset
00000550 g     F .text	0000010c main
000015a4 g     F .text	00000030 alt_avalon_i2c_master_target_set
0000b76c g     O .bss	00000004 alt_envp
0000b7c0 g     O .bss	00000004 __malloc_max_total_mem
000028ec g     F .text	00000064 altera_avalon_jtag_uart_write_fd
00005174 g     F .text	00000004 __retarget_lock_init_recursive
00006fb4 g     F .text	00000010 __swbuf
00002520 g     F .text	00000044 alt_avalon_i2c_int_raw_status_get
00004f00 g     F .text	00000008 __sclose
00020000 g       *ABS*	00000000 __alt_heap_limit
000065dc g     F .text	0000000c fclose
000041a0 g     F .text	00000040 alt_timestamp_start
00008750 g       *ABS*	00000000 __init_array_end
00005c78 g     F .text	000007dc _malloc_r
00009f84 g     O .rwdata	00000004 alt_errno
00007504 g     F .text	0000005c _init_signal
00006d50 g     F .text	00000104 putc
0000788c g     F .text	00000084 .hidden __divsi3
00005818 g     F .text	00000140 _malloc_trim_r
00008750 g       *ABS*	00000000 __flash_rodata_start
00005170 g     F .text	00000004 __retarget_lock_init
0000089c g     F .text	00000038 alt_irq_init
00003f18 g     F .text	00000074 alt_release_fd
0000450c g     F .text	00000014 atexit
0000510c g     F .text	00000064 _write_r
00009f90 g     O .rwdata	00000004 _impure_ptr
0000b764 g     O .bss	00000004 alt_argc
000065e8 g     F .text	0000024c __sflush_r
00003740 g     F .text	00000060 _do_dtors
00004a34 g     F .text	000000b4 _fwalk_sglue
00001570 g     F .text	00000034 alt_avalon_i2c_master_target_get
00001474 g     F .text	000000fc alt_avalon_i2c_send_address
00004a00 g     F .text	00000034 __fp_unlock_all
00009f70 g     O .rwdata	00000008 alt_fs_list
00000020 g       *ABS*	00000000 __ram_exceptions_start
000041e0 g     F .text	00000058 alt_timestamp
00006b7c g     F .text	000000d8 __swhatbuf_r
00002820 g     F .text	00000068 alt_avalon_i2c_tfr_cmd_fifo_threshold_set
000038dc g     F .text	00000054 alt_ic_isr_register
00000dd8 g     F .text	00000054 alt_avalon_i2c_disable
00009a30 g     O .rwdata	0000000c __sglue
00000020 g     F .exceptions	00000000 trap_vector
00008438 g     F .text	00000104 _write
00009fa4 g       *ABS*	00000000 _edata
0000bb40 g       *ABS*	00000000 _end
00000314 g       *ABS*	00000000 __ram_exceptions_end
0000b7ac g     O .bss	00000001 __lock___at_quick_exit_mutex
00002e1c g     F .text	00000100 altera_avalon_jtag_uart_ioctl
0000417c g     F .text	00000024 intel_niosv_irq_init
00000e2c g     F .text	000000d4 alt_avalon_i2c_master_config_get
00004e00 g     F .text	00000088 __swrite
00009f9c g     O .rwdata	00000004 __malloc_trim_threshold
00004520 g     F .text	00000030 exit
00007910 g     F .text	00000030 .hidden __modsi3
00007d4c g     F .text	000000f4 _kill
00009a40 g     O .rwdata	00000120 _impure_data
00020000 g       *ABS*	00000000 __alt_data_end
000087ec g       *ABS*	00000000 __tbss_end
000049c0 g     F .text	0000000c __sfp_lock_release
0000106c g     F .text	00000118 alt_avalon_i2c_master_config_speed_set
00008238 g     F .text	00000108 _read
00008748 g       *ABS*	00000000 __init_array_start
00005180 g     F .text	00000004 __retarget_lock_acquire
00001344 g     F .text	00000130 alt_avalon_i2c_cmd_write
00005198 g     F .text	00000004 __retarget_lock_release
00007a64 g     F .text	00000040 _exit
00003384 g     F .text	00000168 alt_alarm_start
0000b79c g     O .bss	00000001 __lock___dd_hash_mutex
000069e4 g     F .text	00000198 __smakebuf_r
0000b7a0 g     O .bss	00000001 __lock___tz_mutex
00005534 g     F .text	0000008c strlen
00007104 g     F .text	0000005c _init_signal_r
000051ac g     F .text	00000048 open
00003ee4 g     F .text	00000034 alt_putchar
000038c0 g     F .text	0000001c alt_icache_flush_all
000042dc g     F .text	0000007c alt_niosv_mtimecmp_set
00009f88 g     O .rwdata	00000008 alt_alarm_list
000036e0 g     F .text	00000060 _do_ctors
00007560 g     F .text	000000e4 __sigtramp
000051a0 g     F .text	0000000c close
000027d4 g     F .text	0000004c alt_avalon_i2c_tfr_cmd_fifo_threshold_get
0000076c g     F .text	00000074 alt_load
000018e4 g     F .text	00000140 alt_avalon_i2c_master_rx
0000b75c g     O .bss	00000004 alt_niosv_software_interrupt_handler
0000b7b4 g     O .bss	00000001 __lock___sfp_recursive_mutex
000073a0 g     F .text	000000c0 raise
00007984 g     F .text	000000e0 _close
00005c6c g     F .text	0000000c free



Disassembly of section .entry:

00000000 <__reset>:
 * Jump to the _start entry point in the .text section if reset code
 * is allowed or if optimizing for RTL simulation.
 */

    /* Jump to the _start entry point in the .text section. */
    tail _start
   0:	65c0006f          	j	65c <_start>
	...

Disassembly of section .exceptions:

00000020 <trap_vector>:
    /* Save caller-saved registers on the stack */

#if __riscv_flen == 32 // rv32if
    addi sp, sp, -36 * 4
#elif ALT_CPU_NUM_GPR == 32 // rv32i
	addi sp, sp, -16 * 4
  20:	fc010113          	add	sp,sp,-64
#else // rv32e (16-bit)
	addi sp, sp, -10 * 4
#endif

    /* rv32e (16-bit), rv32i and rv32if */
    sw ra,  0 * 4(sp)
  24:	00112023          	sw	ra,0(sp)
    sw t0,  1 * 4(sp)
  28:	00512223          	sw	t0,4(sp)
    sw t1,  2 * 4(sp)
  2c:	00612423          	sw	t1,8(sp)
    sw t2,  3 * 4(sp)
  30:	00712623          	sw	t2,12(sp)
    sw a0,  4 * 4(sp)
  34:	00a12823          	sw	a0,16(sp)
    sw a1,  5 * 4(sp)
  38:	00b12a23          	sw	a1,20(sp)
    sw a2,  6 * 4(sp)
  3c:	00c12c23          	sw	a2,24(sp)
    sw a3,  7 * 4(sp)
  40:	00d12e23          	sw	a3,28(sp)
    sw a4,  8 * 4(sp)
  44:	02e12023          	sw	a4,32(sp)
    sw a5,  9 * 4(sp)
  48:	02f12223          	sw	a5,36(sp)

    /* rv32i and rv32if */
#if ALT_CPU_NUM_GPR == 32 
    sw a6, 10 * 4(sp)
  4c:	03012423          	sw	a6,40(sp)
    sw a7, 11 * 4(sp)
  50:	03112623          	sw	a7,44(sp)
    sw t3, 12 * 4(sp)
  54:	03c12823          	sw	t3,48(sp)
    sw t4, 13 * 4(sp)
  58:	03d12a23          	sw	t4,52(sp)
    sw t5, 14 * 4(sp)
  5c:	03e12c23          	sw	t5,56(sp)
    sw t6, 15 * 4(sp)
  60:	03f12e23          	sw	t6,60(sp)
    fsw fa6, 34 * 4(sp)
    fsw fa7, 35 * 4(sp)
#endif
   
    /* Call handle_trap to dispatch the correct handler, if available */
    csrr a0, mcause
  64:	34202573          	csrr	a0,mcause
    csrr a1, mepc
  68:	341025f3          	csrr	a1,mepc
    csrr a2, mtval
  6c:	34302673          	csrr	a2,mtval
    jal handle_trap
  70:	18c000ef          	jal	1fc <handle_trap>
    csrw mepc, a0
  74:	34151073          	csrw	mepc,a0

    /* Restore caller-saved registers */

    /* rv32e (16-bit), rv32i and rv32if */
    lw ra,  0 * 4(sp)
  78:	00012083          	lw	ra,0(sp)
    lw t0,  1 * 4(sp)
  7c:	00412283          	lw	t0,4(sp)
    lw t1,  2 * 4(sp)
  80:	00812303          	lw	t1,8(sp)
    lw t2,  3 * 4(sp)
  84:	00c12383          	lw	t2,12(sp)
    lw a0,  4 * 4(sp)
  88:	01012503          	lw	a0,16(sp)
    lw a1,  5 * 4(sp)
  8c:	01412583          	lw	a1,20(sp)
    lw a2,  6 * 4(sp)
  90:	01812603          	lw	a2,24(sp)
    lw a3,  7 * 4(sp)
  94:	01c12683          	lw	a3,28(sp)
    lw a4,  8 * 4(sp)
  98:	02012703          	lw	a4,32(sp)
    lw a5,  9 * 4(sp)
  9c:	02412783          	lw	a5,36(sp)

    /* rv32i and rv32if */
#if ALT_CPU_NUM_GPR == 32	
    lw a6, 10 * 4(sp)
  a0:	02812803          	lw	a6,40(sp)
    lw a7, 11 * 4(sp)
  a4:	02c12883          	lw	a7,44(sp)
    lw t3, 12 * 4(sp)
  a8:	03012e03          	lw	t3,48(sp)
    lw t4, 13 * 4(sp)
  ac:	03412e83          	lw	t4,52(sp)
    lw t5, 14 * 4(sp)
  b0:	03812f03          	lw	t5,56(sp)
    lw t6, 15 * 4(sp)
  b4:	03c12f83          	lw	t6,60(sp)
#endif

#if __riscv_flen == 32 // rv32if
    addi sp, sp, 36 * 4
#elif ALT_CPU_NUM_GPR == 32 // rv32i
	addi sp, sp, 16 * 4
  b8:	04010113          	add	sp,sp,64
    lw s0, 0(sp)
    lw s1, 4(sp)
    addi sp, sp, 8
#endif

    mret
  bc:	30200073          	mret

000000c0 <is_ecc_handler_present>:
    }

    return epc;
}

alt_u32 is_ecc_handler_present (alt_u32 e_code) {
  c0:	fd010113          	add	sp,sp,-48
  c4:	02812623          	sw	s0,44(sp)
  c8:	03010413          	add	s0,sp,48
  cc:	fca42e23          	sw	a0,-36(s0)
#ifdef ALT_CPU_ECC_PRESENT
    alt_u32 present = (e_code == NIOSV_ECC_EXCEPTION && alt_ecc_exception_handler);
#else
    alt_u32 present = 0;
  d0:	fe042623          	sw	zero,-20(s0)
#endif
    return present;
  d4:	fec42783          	lw	a5,-20(s0)
} 
  d8:	00078513          	mv	a0,a5
  dc:	02c12403          	lw	s0,44(sp)
  e0:	03010113          	add	sp,sp,48
  e4:	00008067          	ret

000000e8 <break_operation>:

void break_operation (void)
{
  e8:	ff010113          	add	sp,sp,-16
  ec:	00812623          	sw	s0,12(sp)
  f0:	01010413          	add	s0,sp,16
#ifdef ALT_CPU_HAS_DEBUG_STUB
            NIOSV_EBREAK();
  f4:	00100073          	ebreak
#else  // ALT_CPU_HAS_DEBUG_STUB
            while(1)
                ;
#endif // ALT_CPU_HAS_DEBUG_STUB  
}
  f8:	00000013          	nop
  fc:	00c12403          	lw	s0,12(sp)
 100:	01010113          	add	sp,sp,16
 104:	00008067          	ret

00000108 <alt_irq_handler>:
 * This means that if there is never a call to alt_irq_register() then
 * this function will not get linked in to the executable. This is acceptable
 * since if no handler is ever registered, then an interrupt can never occur.
 */
void alt_irq_handler (void)
{
 108:	fd010113          	add	sp,sp,-48
 10c:	02112623          	sw	ra,44(sp)
 110:	02812423          	sw	s0,40(sp)
 114:	03010413          	add	s0,sp,48
    alt_u32 i;

    /*
     * Notify the operating system that we are at interrupt level.
     */  
    ALT_OS_INT_ENTER();
 118:	00000013          	nop
{
#if ALT_HAS_IRQ_SUPPORT
    alt_u32 active;
    alt_u32 enabled;

    NIOSV_READ_CSR(NIOSV_MIP_CSR, active);
 11c:	344027f3          	csrr	a5,mip
 120:	fef42023          	sw	a5,-32(s0)
    NIOSV_READ_CSR(NIOSV_MIE_CSR, enabled);
 124:	304027f3          	csrr	a5,mie
 128:	fef42223          	sw	a5,-28(s0)

    // Since this is used by alt_irq_handler, we want to only process the upper 16-bits
    // --> the interrupt lines connected via Platform Designer...
    return (active & enabled) >> 16;
 12c:	fe042703          	lw	a4,-32(s0)
 130:	fe442783          	lw	a5,-28(s0)
 134:	00f777b3          	and	a5,a4,a5
 138:	0107d793          	srl	a5,a5,0x10
     * reduced by finding out which interrupts are pending as late as possible.
     * Consider the case where the high priority interupt is asserted during
     * the interrupt entry sequence for a lower priority interrupt to see why
     * this is the case.
     */
    active = alt_irq_pending();
 13c:	fcf42a23          	sw	a5,-44(s0)

    do
    {
        i = 0;
 140:	fc042e23          	sw	zero,-36(s0)
        mask = 1;
 144:	00100793          	li	a5,1
 148:	fcf42c23          	sw	a5,-40(s0)
         * called to clear the interrupt condition.
         */

        do
        {
            if (active & mask)
 14c:	fd442703          	lw	a4,-44(s0)
 150:	fd842783          	lw	a5,-40(s0)
 154:	00f777b3          	and	a5,a4,a5
 158:	06078263          	beqz	a5,1bc <alt_irq_handler+0xb4>
            {
                alt_irq[i].handler(alt_irq[i].context); 
 15c:	0000b7b7          	lui	a5,0xb
 160:	7d078713          	add	a4,a5,2000 # b7d0 <alt_irq>
 164:	fdc42783          	lw	a5,-36(s0)
 168:	00379793          	sll	a5,a5,0x3
 16c:	00f707b3          	add	a5,a4,a5
 170:	0007a703          	lw	a4,0(a5)
 174:	0000b7b7          	lui	a5,0xb
 178:	7d078693          	add	a3,a5,2000 # b7d0 <alt_irq>
 17c:	fdc42783          	lw	a5,-36(s0)
 180:	00379793          	sll	a5,a5,0x3
 184:	00f687b3          	add	a5,a3,a5
 188:	0047a783          	lw	a5,4(a5)
 18c:	00078513          	mv	a0,a5
 190:	000700e7          	jalr	a4
                break;
 194:	00000013          	nop
    NIOSV_READ_CSR(NIOSV_MIP_CSR, active);
 198:	344027f3          	csrr	a5,mip
 19c:	fef42423          	sw	a5,-24(s0)
    NIOSV_READ_CSR(NIOSV_MIE_CSR, enabled);
 1a0:	304027f3          	csrr	a5,mie
 1a4:	fef42623          	sw	a5,-20(s0)
    return (active & enabled) >> 16;
 1a8:	fe842703          	lw	a4,-24(s0)
 1ac:	fec42783          	lw	a5,-20(s0)
 1b0:	00f777b3          	and	a5,a4,a5
 1b4:	0107d793          	srl	a5,a5,0x10
 1b8:	0200006f          	j	1d8 <alt_irq_handler+0xd0>
            }
            
            mask <<= 1;
 1bc:	fd842783          	lw	a5,-40(s0)
 1c0:	00179793          	sll	a5,a5,0x1
 1c4:	fcf42c23          	sw	a5,-40(s0)
            i++;
 1c8:	fdc42783          	lw	a5,-36(s0)
 1cc:	00178793          	add	a5,a5,1
 1d0:	fcf42e23          	sw	a5,-36(s0)
            if (active & mask)
 1d4:	f79ff06f          	j	14c <alt_irq_handler+0x44>
            
        } while (1);

        active = alt_irq_pending();
 1d8:	fcf42a23          	sw	a5,-44(s0)
    
    } while (active);
 1dc:	fd442783          	lw	a5,-44(s0)
 1e0:	f60790e3          	bnez	a5,140 <alt_irq_handler+0x38>

    /*
     * Notify the operating system that interrupt processing is complete.
     */ 

    ALT_OS_INT_EXIT();
 1e4:	00000013          	nop
}
 1e8:	00000013          	nop
 1ec:	02c12083          	lw	ra,44(sp)
 1f0:	02812403          	lw	s0,40(sp)
 1f4:	03010113          	add	sp,sp,48
 1f8:	00008067          	ret

000001fc <handle_trap>:
{
 1fc:	fd010113          	add	sp,sp,-48
 200:	02112623          	sw	ra,44(sp)
 204:	02812423          	sw	s0,40(sp)
 208:	03010413          	add	s0,sp,48
 20c:	fca42e23          	sw	a0,-36(s0)
 210:	fcb42c23          	sw	a1,-40(s0)
 214:	fcc42a23          	sw	a2,-44(s0)
    is_irq = (cause & NIOSV_MCAUSE_INTERRUPT_MASK);
 218:	fdc42703          	lw	a4,-36(s0)
 21c:	800007b7          	lui	a5,0x80000
 220:	00f777b3          	and	a5,a4,a5
 224:	fef42423          	sw	a5,-24(s0)
    exception_code = (cause & ~NIOSV_MCAUSE_INTERRUPT_MASK);
 228:	fdc42703          	lw	a4,-36(s0)
 22c:	800007b7          	lui	a5,0x80000
 230:	fff78793          	add	a5,a5,-1 # 7fffffff <__alt_data_end+0x7ffdffff>
 234:	00f777b3          	and	a5,a4,a5
 238:	fef42623          	sw	a5,-20(s0)
    if (is_irq) {
 23c:	fe842783          	lw	a5,-24(s0)
 240:	08078863          	beqz	a5,2d0 <handle_trap+0xd4>
        switch (exception_code) {
 244:	fec42703          	lw	a4,-20(s0)
 248:	00300793          	li	a5,3
 24c:	04f70063          	beq	a4,a5,28c <handle_trap+0x90>
 250:	fec42703          	lw	a4,-20(s0)
 254:	00700793          	li	a5,7
 258:	06f71263          	bne	a4,a5,2bc <handle_trap+0xc0>
                if (alt_niosv_timer_interrupt_handler) {
 25c:	0000b7b7          	lui	a5,0xb
 260:	7607a783          	lw	a5,1888(a5) # b760 <alt_niosv_timer_interrupt_handler>
 264:	08078263          	beqz	a5,2e8 <handle_trap+0xec>
                    ALT_OS_INT_ENTER();
 268:	00000013          	nop
                    alt_niosv_timer_interrupt_handler(cause, epc, tval);
 26c:	0000b7b7          	lui	a5,0xb
 270:	7607a783          	lw	a5,1888(a5) # b760 <alt_niosv_timer_interrupt_handler>
 274:	fd442603          	lw	a2,-44(s0)
 278:	fd842583          	lw	a1,-40(s0)
 27c:	fdc42503          	lw	a0,-36(s0)
 280:	000780e7          	jalr	a5
                    ALT_OS_INT_EXIT();
 284:	00000013          	nop
                break;
 288:	0600006f          	j	2e8 <handle_trap+0xec>
                if (alt_niosv_software_interrupt_handler) {
 28c:	0000b7b7          	lui	a5,0xb
 290:	75c7a783          	lw	a5,1884(a5) # b75c <alt_niosv_software_interrupt_handler>
 294:	04078e63          	beqz	a5,2f0 <handle_trap+0xf4>
                    ALT_OS_INT_ENTER();
 298:	00000013          	nop
                    alt_niosv_software_interrupt_handler(cause, epc, tval);
 29c:	0000b7b7          	lui	a5,0xb
 2a0:	75c7a783          	lw	a5,1884(a5) # b75c <alt_niosv_software_interrupt_handler>
 2a4:	fd442603          	lw	a2,-44(s0)
 2a8:	fd842583          	lw	a1,-40(s0)
 2ac:	fdc42503          	lw	a0,-36(s0)
 2b0:	000780e7          	jalr	a5
                    ALT_OS_INT_EXIT();
 2b4:	00000013          	nop
                break;
 2b8:	0380006f          	j	2f0 <handle_trap+0xf4>
                if (exception_code >= 16) {
 2bc:	fec42703          	lw	a4,-20(s0)
 2c0:	00f00793          	li	a5,15
 2c4:	02e7fa63          	bgeu	a5,a4,2f8 <handle_trap+0xfc>
                    alt_irq_handler();
 2c8:	e41ff0ef          	jal	108 <alt_irq_handler>
                break;
 2cc:	02c0006f          	j	2f8 <handle_trap+0xfc>
        if (!is_ecc_handler_present(exception_code)) {
 2d0:	fec42503          	lw	a0,-20(s0)
 2d4:	dedff0ef          	jal	c0 <is_ecc_handler_present>
 2d8:	00050793          	mv	a5,a0
 2dc:	02079063          	bnez	a5,2fc <handle_trap+0x100>
             break_operation();
 2e0:	e09ff0ef          	jal	e8 <break_operation>
 2e4:	0180006f          	j	2fc <handle_trap+0x100>
                break;
 2e8:	00000013          	nop
 2ec:	0100006f          	j	2fc <handle_trap+0x100>
                break;
 2f0:	00000013          	nop
 2f4:	0080006f          	j	2fc <handle_trap+0x100>
                break;
 2f8:	00000013          	nop
    return epc;
 2fc:	fd842783          	lw	a5,-40(s0)
}
 300:	00078513          	mv	a0,a5
 304:	02c12083          	lw	ra,44(sp)
 308:	02812403          	lw	s0,40(sp)
 30c:	03010113          	add	sp,sp,48
 310:	00008067          	ret

Disassembly of section .text:

00000314 <adxl_write>:
#define ADXL_ADDR 0x53

static ALT_AVALON_I2C_DEV_t *i2c = NULL;

static void adxl_write(uint8_t reg, uint8_t val)
{
     314:	fd010113          	add	sp,sp,-48
     318:	02112623          	sw	ra,44(sp)
     31c:	02812423          	sw	s0,40(sp)
     320:	03010413          	add	s0,sp,48
     324:	00050793          	mv	a5,a0
     328:	00058713          	mv	a4,a1
     32c:	fcf40fa3          	sb	a5,-33(s0)
     330:	00070793          	mv	a5,a4
     334:	fcf40f23          	sb	a5,-34(s0)
     338:	0000b7b7          	lui	a5,0xb
     33c:	7b87a703          	lw	a4,1976(a5) # b7b8 <__stack_chk_guard>
     340:	fee42623          	sw	a4,-20(s0)
     344:	00000713          	li	a4,0
    uint8_t tx[2] = { reg, val };
     348:	fdf44783          	lbu	a5,-33(s0)
     34c:	fef40423          	sb	a5,-24(s0)
     350:	fde44783          	lbu	a5,-34(s0)
     354:	fef404a3          	sb	a5,-23(s0)
    alt_avalon_i2c_master_target_set(i2c, ADXL_ADDR);
     358:	0000b7b7          	lui	a5,0xb
     35c:	7cc7a783          	lw	a5,1996(a5) # b7cc <i2c>
     360:	05300593          	li	a1,83
     364:	00078513          	mv	a0,a5
     368:	23c010ef          	jal	15a4 <alt_avalon_i2c_master_target_set>
    alt_avalon_i2c_master_tx(i2c, tx, 2, ALT_AVALON_I2C_NO_INTERRUPTS);
     36c:	0000b7b7          	lui	a5,0xb
     370:	7cc7a783          	lw	a5,1996(a5) # b7cc <i2c>
     374:	fe840713          	add	a4,s0,-24
     378:	00000693          	li	a3,0
     37c:	00200613          	li	a2,2
     380:	00070593          	mv	a1,a4
     384:	00078513          	mv	a0,a5
     388:	474010ef          	jal	17fc <alt_avalon_i2c_master_tx>
}
     38c:	00000013          	nop
     390:	0000b7b7          	lui	a5,0xb
     394:	fec42703          	lw	a4,-20(s0)
     398:	7b87a783          	lw	a5,1976(a5) # b7b8 <__stack_chk_guard>
     39c:	00f747b3          	xor	a5,a4,a5
     3a0:	00000713          	li	a4,0
     3a4:	00078463          	beqz	a5,3ac <adxl_write+0x98>
     3a8:	64d040ef          	jal	51f4 <__stack_chk_fail>
     3ac:	02c12083          	lw	ra,44(sp)
     3b0:	02812403          	lw	s0,40(sp)
     3b4:	03010113          	add	sp,sp,48
     3b8:	00008067          	ret

000003bc <adxl_read_xyz>:

static void adxl_read_xyz(int16_t *x, int16_t *y, int16_t *z)
{
     3bc:	fd010113          	add	sp,sp,-48
     3c0:	02112623          	sw	ra,44(sp)
     3c4:	02812423          	sw	s0,40(sp)
     3c8:	03010413          	add	s0,sp,48
     3cc:	fca42e23          	sw	a0,-36(s0)
     3d0:	fcb42c23          	sw	a1,-40(s0)
     3d4:	fcc42a23          	sw	a2,-44(s0)
     3d8:	0000b7b7          	lui	a5,0xb
     3dc:	7b87a703          	lw	a4,1976(a5) # b7b8 <__stack_chk_guard>
     3e0:	fee42623          	sw	a4,-20(s0)
     3e4:	00000713          	li	a4,0
    uint8_t tx = 0x32; // DATAX0
     3e8:	03200793          	li	a5,50
     3ec:	fef401a3          	sb	a5,-29(s0)
    uint8_t rx[6];

    alt_avalon_i2c_master_target_set(i2c, ADXL_ADDR);
     3f0:	0000b7b7          	lui	a5,0xb
     3f4:	7cc7a783          	lw	a5,1996(a5) # b7cc <i2c>
     3f8:	05300593          	li	a1,83
     3fc:	00078513          	mv	a0,a5
     400:	1a4010ef          	jal	15a4 <alt_avalon_i2c_master_target_set>
    alt_avalon_i2c_master_tx_rx(i2c, &tx, 1, rx, 6, ALT_AVALON_I2C_NO_INTERRUPTS);
     404:	0000b7b7          	lui	a5,0xb
     408:	7cc7a503          	lw	a0,1996(a5) # b7cc <i2c>
     40c:	fe440693          	add	a3,s0,-28
     410:	fe340593          	add	a1,s0,-29
     414:	00000793          	li	a5,0
     418:	00600713          	li	a4,6
     41c:	00100613          	li	a2,1
     420:	604010ef          	jal	1a24 <alt_avalon_i2c_master_tx_rx>

    *x = (int16_t)((rx[1] << 8) | rx[0]);
     424:	fe544783          	lbu	a5,-27(s0)
     428:	01079793          	sll	a5,a5,0x10
     42c:	4107d793          	sra	a5,a5,0x10
     430:	00879793          	sll	a5,a5,0x8
     434:	01079713          	sll	a4,a5,0x10
     438:	41075713          	sra	a4,a4,0x10
     43c:	fe444783          	lbu	a5,-28(s0)
     440:	01079793          	sll	a5,a5,0x10
     444:	4107d793          	sra	a5,a5,0x10
     448:	00f767b3          	or	a5,a4,a5
     44c:	01079713          	sll	a4,a5,0x10
     450:	41075713          	sra	a4,a4,0x10
     454:	fdc42783          	lw	a5,-36(s0)
     458:	00e79023          	sh	a4,0(a5)
    *y = (int16_t)((rx[3] << 8) | rx[2]);
     45c:	fe744783          	lbu	a5,-25(s0)
     460:	01079793          	sll	a5,a5,0x10
     464:	4107d793          	sra	a5,a5,0x10
     468:	00879793          	sll	a5,a5,0x8
     46c:	01079713          	sll	a4,a5,0x10
     470:	41075713          	sra	a4,a4,0x10
     474:	fe644783          	lbu	a5,-26(s0)
     478:	01079793          	sll	a5,a5,0x10
     47c:	4107d793          	sra	a5,a5,0x10
     480:	00f767b3          	or	a5,a4,a5
     484:	01079713          	sll	a4,a5,0x10
     488:	41075713          	sra	a4,a4,0x10
     48c:	fd842783          	lw	a5,-40(s0)
     490:	00e79023          	sh	a4,0(a5)
    *z = (int16_t)((rx[5] << 8) | rx[4]);
     494:	fe944783          	lbu	a5,-23(s0)
     498:	01079793          	sll	a5,a5,0x10
     49c:	4107d793          	sra	a5,a5,0x10
     4a0:	00879793          	sll	a5,a5,0x8
     4a4:	01079713          	sll	a4,a5,0x10
     4a8:	41075713          	sra	a4,a4,0x10
     4ac:	fe844783          	lbu	a5,-24(s0)
     4b0:	01079793          	sll	a5,a5,0x10
     4b4:	4107d793          	sra	a5,a5,0x10
     4b8:	00f767b3          	or	a5,a4,a5
     4bc:	01079713          	sll	a4,a5,0x10
     4c0:	41075713          	sra	a4,a4,0x10
     4c4:	fd442783          	lw	a5,-44(s0)
     4c8:	00e79023          	sh	a4,0(a5)
}
     4cc:	00000013          	nop
     4d0:	0000b7b7          	lui	a5,0xb
     4d4:	fec42703          	lw	a4,-20(s0)
     4d8:	7b87a783          	lw	a5,1976(a5) # b7b8 <__stack_chk_guard>
     4dc:	00f747b3          	xor	a5,a4,a5
     4e0:	00000713          	li	a4,0
     4e4:	00078463          	beqz	a5,4ec <adxl_read_xyz+0x130>
     4e8:	50d040ef          	jal	51f4 <__stack_chk_fail>
     4ec:	02c12083          	lw	ra,44(sp)
     4f0:	02812403          	lw	s0,40(sp)
     4f4:	03010113          	add	sp,sp,48
     4f8:	00008067          	ret

000004fc <clamp_u32>:

static uint32_t clamp_u32(int v, int lo, int hi)
{
     4fc:	fe010113          	add	sp,sp,-32
     500:	00812e23          	sw	s0,28(sp)
     504:	02010413          	add	s0,sp,32
     508:	fea42623          	sw	a0,-20(s0)
     50c:	feb42423          	sw	a1,-24(s0)
     510:	fec42223          	sw	a2,-28(s0)
    if (v < lo) v = lo;
     514:	fec42703          	lw	a4,-20(s0)
     518:	fe842783          	lw	a5,-24(s0)
     51c:	00f75663          	bge	a4,a5,528 <clamp_u32+0x2c>
     520:	fe842783          	lw	a5,-24(s0)
     524:	fef42623          	sw	a5,-20(s0)
    if (v > hi) v = hi;
     528:	fec42703          	lw	a4,-20(s0)
     52c:	fe442783          	lw	a5,-28(s0)
     530:	00e7d663          	bge	a5,a4,53c <clamp_u32+0x40>
     534:	fe442783          	lw	a5,-28(s0)
     538:	fef42623          	sw	a5,-20(s0)
    return (uint32_t)v;
     53c:	fec42783          	lw	a5,-20(s0)
}
     540:	00078513          	mv	a0,a5
     544:	01c12403          	lw	s0,28(sp)
     548:	02010113          	add	sp,sp,32
     54c:	00008067          	ret

00000550 <main>:

int main(void)
{
     550:	fd010113          	add	sp,sp,-48
     554:	02112623          	sw	ra,44(sp)
     558:	02812423          	sw	s0,40(sp)
     55c:	03010413          	add	s0,sp,48
     560:	0000b7b7          	lui	a5,0xb
     564:	7b87a703          	lw	a4,1976(a5) # b7b8 <__stack_chk_guard>
     568:	fee42623          	sw	a4,-20(s0)
     56c:	00000713          	li	a4,0
    i2c = alt_avalon_i2c_open(I2C_0_NAME);
     570:	000087b7          	lui	a5,0x8
     574:	75078513          	add	a0,a5,1872 # 8750 <__fini_array_end>
     578:	76c000ef          	jal	ce4 <alt_avalon_i2c_open>
     57c:	00050713          	mv	a4,a0
     580:	0000b7b7          	lui	a5,0xb
     584:	7ce7a623          	sw	a4,1996(a5) # b7cc <i2c>
    if (!i2c) {
     588:	0000b7b7          	lui	a5,0xb
     58c:	7cc7a783          	lw	a5,1996(a5) # b7cc <i2c>
     590:	02079263          	bnez	a5,5b4 <main+0x64>
        IOWR_ALTERA_AVALON_PIO_DATA(PIO_0_BASE, 0x003);
     594:	00300793          	li	a5,3
     598:	fef42423          	sw	a5,-24(s0)
     59c:	000307b7          	lui	a5,0x30
     5a0:	08078793          	add	a5,a5,128 # 30080 <__alt_data_end+0x10080>
     5a4:	fe842703          	lw	a4,-24(s0)
     5a8:	00e7a023          	sw	a4,0(a5)
        while (1);
     5ac:	00000013          	nop
     5b0:	ffdff06f          	j	5ac <main+0x5c>
    }

    // Activer la mesure (POWER_CTL.Measure = 1)
    adxl_write(0x2D, 0x08);
     5b4:	00800593          	li	a1,8
     5b8:	02d00513          	li	a0,45
     5bc:	d59ff0ef          	jal	314 <adxl_write>
    // “Bulle” sur 10 LEDs : on utilise l’axe X (inclinaison gauche/droite)
    // tu peux changer pour Y si tu préfères.
    while (1)
    {
        int16_t x, y, z;
        adxl_read_xyz(&x, &y, &z);
     5c0:	fda40693          	add	a3,s0,-38
     5c4:	fd840713          	add	a4,s0,-40
     5c8:	fd640793          	add	a5,s0,-42
     5cc:	00068613          	mv	a2,a3
     5d0:	00070593          	mv	a1,a4
     5d4:	00078513          	mv	a0,a5
     5d8:	de5ff0ef          	jal	3bc <adxl_read_xyz>

        // Mapping simple : x ~ [-256..+256] -> index [0..9]
        int idx = (y + 256) * 10 / 512;   // <-- on utilise Y
     5dc:	fd841783          	lh	a5,-40(s0)
     5e0:	10078713          	add	a4,a5,256
     5e4:	00070793          	mv	a5,a4
     5e8:	00279793          	sll	a5,a5,0x2
     5ec:	00e787b3          	add	a5,a5,a4
     5f0:	00179793          	sll	a5,a5,0x1
     5f4:	41f7d713          	sra	a4,a5,0x1f
     5f8:	1ff77713          	and	a4,a4,511
     5fc:	00f707b3          	add	a5,a4,a5
     600:	4097d793          	sra	a5,a5,0x9
     604:	fcf42e23          	sw	a5,-36(s0)
        idx = (int)clamp_u32(idx, 0, 9);
     608:	00900613          	li	a2,9
     60c:	00000593          	li	a1,0
     610:	fdc42503          	lw	a0,-36(s0)
     614:	ee9ff0ef          	jal	4fc <clamp_u32>
     618:	00050793          	mv	a5,a0
     61c:	fcf42e23          	sw	a5,-36(s0)

        uint32_t leds = (1u << idx);
     620:	fdc42783          	lw	a5,-36(s0)
     624:	00100713          	li	a4,1
     628:	00f717b3          	sll	a5,a4,a5
     62c:	fef42023          	sw	a5,-32(s0)

        // Si tes LEDs sont active-low, décommente la ligne suivante :
        // leds = (~leds) & 0x3FF;

        IOWR_ALTERA_AVALON_PIO_DATA(PIO_0_BASE, leds);
     630:	fe042783          	lw	a5,-32(s0)
     634:	fef42223          	sw	a5,-28(s0)
     638:	000307b7          	lui	a5,0x30
     63c:	08078793          	add	a5,a5,128 # 30080 <__alt_data_end+0x10080>
     640:	fe442703          	lw	a4,-28(s0)
     644:	00e7a023          	sw	a4,0(a5)

        usleep(50000); // 50 ms
     648:	0000c7b7          	lui	a5,0xc
     64c:	35078513          	add	a0,a5,848 # c350 <__alt_heap_start+0x810>
     650:	218000ef          	jal	868 <usleep>
    {
     654:	00000013          	nop
     658:	f69ff06f          	j	5c0 <main+0x70>

0000065c <_start>:
    .type _start, @function
_start:
#if ALT_CPU_HAS_CSR_SUPPORT
    /* assume that we are in machine mode on startup */
    /* setup trap to catch anything that goes wrong early in the boot process */
    la t0, trap_vector
     65c:	00000297          	auipc	t0,0x0
     660:	9c428293          	add	t0,t0,-1596 # 20 <trap_vector>
    csrw mtvec, t0
     664:	30529073          	csrw	mtvec,t0

    /* disable all interrupt */
    li t0, 0x88
     668:	08800293          	li	t0,136
    csrc mstatus, t0
     66c:	3002b073          	csrc	mstatus,t0
    csrw mie, zero
     670:	30401073          	csrw	mie,zero
    csrw mip, zero
     674:	34401073          	csrw	mip,zero
#endif /* Initialize Data Cache */
#endif /* ALT_SIM_OPTIMIZE */

    .option push
    .option norelax
    la gp, __global_pointer$
     678:	0000a197          	auipc	gp,0xa
     67c:	0f018193          	add	gp,gp,240 # a768 <__global_pointer$>

    /*
     * Now that the caches are initialized, set up the stack pointer and global pointer.
     * The values provided by the linker are assumed to be correctly aligned.
     */
    la sp, __alt_stack_pointer
     680:	00020117          	auipc	sp,0x20
     684:	98010113          	add	sp,sp,-1664 # 20000 <__alt_data_end>
    /* Log that the BSS is about to be cleared. */
#ifdef ALT_LOG_ENABLE
    ALT_LOG_PUTS(alt_log_msg_bss)
#endif /* ALT_LOG_ENABLE */

    la t1, __bss_start
     688:	0000b317          	auipc	t1,0xb
     68c:	0d430313          	add	t1,t1,212 # b75c <alt_niosv_software_interrupt_handler>
    la t2, __bss_end
     690:	0000b397          	auipc	t2,0xb
     694:	4b038393          	add	t2,t2,1200 # bb40 <__alt_heap_start>
0:
    sw zero, (t1)
     698:	00032023          	sw	zero,0(t1)
    addi t1, t1, 4
     69c:	00430313          	add	t1,t1,4
    bltu t1, t2, 0b
     6a0:	fe736ce3          	bltu	t1,t2,698 <_start+0x3c>
/*
 * The alt_load() facility is normally used when there is no bootloader.
 * It copies some sections into RAM so it acts like a mini-bootloader.
 */
#ifdef CALL_ALT_LOAD
    call alt_load
     6a4:	0c8000ef          	jal	76c <alt_load>
 */
#ifndef ALT_SIM_OPTIMIZE
.globl __tbss_start
.globl __tbss_end

    la t1, __tbss_start
     6a8:	00008317          	auipc	t1,0x8
     6ac:	14430313          	add	t1,t1,324 # 87ec <__ram_rodata_end>
    la t2, __tbss_end
     6b0:	00008397          	auipc	t2,0x8
     6b4:	13c38393          	add	t2,t2,316 # 87ec <__ram_rodata_end>
    
    // Check if we need to skip this (if .tbss is empty)
    bgeu t1, t2, 1f
     6b8:	00737863          	bgeu	t1,t2,6c8 <_start+0x6c>
0:
    sw zero, (t1)
     6bc:	00032023          	sw	zero,0(t1)
    addi t1, t1, 4
     6c0:	00430313          	add	t1,t1,4
    bltu t1, t2, 0b
     6c4:	fe736ce3          	bltu	t1,t2,6bc <_start+0x60>
// Copy tdata to tdata golden source location
.globl __tdata_start
.globl __tdata_end
.globl __tdata_source

    la t0, __tdata_start
     6c8:	00008297          	auipc	t0,0x8
     6cc:	12428293          	add	t0,t0,292 # 87ec <__ram_rodata_end>
    la t1, __tdata_end
     6d0:	00008317          	auipc	t1,0x8
     6d4:	11c30313          	add	t1,t1,284 # 87ec <__ram_rodata_end>
    la t2, __tdata_source
     6d8:	00008397          	auipc	t2,0x8
     6dc:	11438393          	add	t2,t2,276 # 87ec <__ram_rodata_end>

    // Check if we need to skip this (if .tdata is empty)
    bgeu t0, t1, 1f
     6e0:	0062fc63          	bgeu	t0,t1,6f8 <_start+0x9c>
0:
    lw s1, (t0)
     6e4:	0002a483          	lw	s1,0(t0)
    sw s1, (t2)
     6e8:	0093a023          	sw	s1,0(t2)
    addi t0, t0, 4
     6ec:	00428293          	add	t0,t0,4
    addi t2, t2, 4
     6f0:	00438393          	add	t2,t2,4
    bltu t0, t1, 0b
     6f4:	fe62e8e3          	bltu	t0,t1,6e4 <_start+0x88>
1:

// Assign thread pointer register (tp) to main thread tls base
.globl __tls_base
    la tp, __tls_base
     6f8:	00008217          	auipc	tp,0x8
     6fc:	0f420213          	add	tp,tp,244 # 87ec <__ram_rodata_end>
#ifdef ALT_LOG_ENABLE
    ALT_LOG_PUTS(alt_log_msg_alt_main)
#endif /* ALT_LOG_ENABLE */

    /* Call the C entry point. It should never return. */
    call alt_main
     700:	0e0000ef          	jal	7e0 <alt_main>

00000704 <alt_after_alt_main>:

    /* Wait in infinite loop in case alt_main does return. */
alt_after_alt_main:
    j alt_after_alt_main
     704:	0000006f          	j	704 <alt_after_alt_main>

00000708 <alt_load_section>:
     708:	fe010113          	add	sp,sp,-32
     70c:	00812e23          	sw	s0,28(sp)
 */  

void alt_load (void)
{
  /* 
   * Copy the .rwdata section. 
     710:	02010413          	add	s0,sp,32
     714:	fea42623          	sw	a0,-20(s0)
     718:	feb42423          	sw	a1,-24(s0)
     71c:	fec42223          	sw	a2,-28(s0)
   */
     720:	fe842703          	lw	a4,-24(s0)
     724:	fec42783          	lw	a5,-20(s0)
     728:	02f70a63          	beq	a4,a5,75c <alt_load_section+0x54>

  alt_load_section (&__flash_rwdata_start, 
     72c:	0240006f          	j	750 <alt_load_section+0x48>
		               &__ram_rwdata_start,
		               &__ram_rwdata_end);
     730:	fec42703          	lw	a4,-20(s0)
     734:	00470793          	add	a5,a4,4
     738:	fef42623          	sw	a5,-20(s0)
     73c:	fe842783          	lw	a5,-24(s0)
     740:	00478693          	add	a3,a5,4
     744:	fed42423          	sw	a3,-24(s0)
     748:	00072703          	lw	a4,0(a4)
     74c:	00e7a023          	sw	a4,0(a5)
  alt_load_section (&__flash_rwdata_start, 
     750:	fe842703          	lw	a4,-24(s0)
     754:	fe442783          	lw	a5,-28(s0)
     758:	fcf71ce3          	bne	a4,a5,730 <alt_load_section+0x28>

  /*
   * Copy the exception handler.
     75c:	00000013          	nop
     760:	01c12403          	lw	s0,28(sp)
     764:	02010113          	add	sp,sp,32
     768:	00008067          	ret

0000076c <alt_load>:
{
     76c:	ff010113          	add	sp,sp,-16
     770:	00112623          	sw	ra,12(sp)
     774:	00812423          	sw	s0,8(sp)
     778:	01010413          	add	s0,sp,16
  alt_load_section (&__flash_rwdata_start, 
     77c:	0000a7b7          	lui	a5,0xa
     780:	fa478613          	add	a2,a5,-92 # 9fa4 <__flash_rwdata_start>
     784:	000087b7          	lui	a5,0x8
     788:	7ec78593          	add	a1,a5,2028 # 87ec <__ram_rodata_end>
     78c:	0000a7b7          	lui	a5,0xa
     790:	fa478513          	add	a0,a5,-92 # 9fa4 <__flash_rwdata_start>
     794:	f75ff0ef          	jal	708 <alt_load_section>
   */

  alt_load_section (&__flash_exceptions_start, 
     798:	31400613          	li	a2,788
     79c:	02000593          	li	a1,32
     7a0:	02000513          	li	a0,32
     7a4:	f65ff0ef          	jal	708 <alt_load_section>

  /*
   * Copy the .rodata section.
   */

  alt_load_section (&__flash_rodata_start, 
     7a8:	000087b7          	lui	a5,0x8
     7ac:	7ec78613          	add	a2,a5,2028 # 87ec <__ram_rodata_end>
     7b0:	000087b7          	lui	a5,0x8
     7b4:	75078593          	add	a1,a5,1872 # 8750 <__fini_array_end>
     7b8:	000087b7          	lui	a5,0x8
     7bc:	75078513          	add	a0,a5,1872 # 8750 <__fini_array_end>
     7c0:	f49ff0ef          	jal	708 <alt_load_section>
  
  /*
   * Now ensure that the caches are in synch.
   */
  
  alt_dcache_flush_all();
     7c4:	5b1020ef          	jal	3574 <alt_dcache_flush_all>
  alt_icache_flush_all();
     7c8:	0f8030ef          	jal	38c0 <alt_icache_flush_all>
}
     7cc:	00000013          	nop
     7d0:	00c12083          	lw	ra,12(sp)
     7d4:	00812403          	lw	s0,8(sp)
     7d8:	01010113          	add	sp,sp,16
     7dc:	00008067          	ret

000007e0 <alt_main>:
 * devices/filesystems/components in the system; and call the entry point for
 * the users application, i.e. main().
 */

void alt_main (void)
{
     7e0:	fe010113          	add	sp,sp,-32
     7e4:	00112e23          	sw	ra,28(sp)
     7e8:	00812c23          	sw	s0,24(sp)
     7ec:	02010413          	add	s0,sp,32
#endif

  /* ALT LOG - please see HAL/sys/alt_log_printf.h for details */
  ALT_LOG_PRINT_BOOT("[alt_main.c] Entering alt_main, calling alt_irq_init.\r\n");
  /* Initialize the interrupt controller. */
  alt_irq_init (NULL);
     7f0:	00000513          	li	a0,0
     7f4:	0a8000ef          	jal	89c <alt_irq_init>

  /* Initialize the operating system */
  ALT_LOG_PRINT_BOOT("[alt_main.c] Done alt_irq_init, calling alt_os_init.\r\n");
  ALT_OS_INIT();
     7f8:	00000013          	nop
  ALT_LOG_PRINT_BOOT("[alt_main.c] Done OS Init, calling alt_sem_create.\r\n");
  ALT_SEM_CREATE (&alt_fd_list_lock, 1);

  /* Initialize the device drivers/software components. */
  ALT_LOG_PRINT_BOOT("[alt_main.c] Calling alt_sys_init.\r\n");
  alt_sys_init();
     7fc:	0d8000ef          	jal	8d4 <alt_sys_init>
   * devices be present (not equal to /dev/null) and if direct drivers
   * aren't being used.
   */

    ALT_LOG_PRINT_BOOT("[alt_main.c] Redirecting IO.\r\n");
    alt_io_redirect(ALT_STDOUT, ALT_STDIN, ALT_STDERR);
     800:	000087b7          	lui	a5,0x8
     804:	75c78613          	add	a2,a5,1884 # 875c <__fini_array_end+0xc>
     808:	000087b7          	lui	a5,0x8
     80c:	75c78593          	add	a1,a5,1884 # 875c <__fini_array_end+0xc>
     810:	000087b7          	lui	a5,0x8
     814:	75c78513          	add	a0,a5,1884 # 875c <__fini_array_end+0xc>
     818:	370030ef          	jal	3b88 <alt_io_redirect>
  /* 
   * Call the C++ constructors 
   */

  ALT_LOG_PRINT_BOOT("[alt_main.c] Calling C++ constructors.\r\n");
  _do_ctors ();
     81c:	6c5020ef          	jal	36e0 <_do_ctors>
   * redefined as _exit()). This is in the interest of reducing code footprint,
   * in that the atexit() overhead is removed when it's not needed.
   */

  ALT_LOG_PRINT_BOOT("[alt_main.c] Calling atexit.\r\n");
  atexit (_do_dtors);
     820:	000037b7          	lui	a5,0x3
     824:	74078513          	add	a0,a5,1856 # 3740 <_do_dtors>
     828:	4e5030ef          	jal	450c <atexit>
  ALT_LOG_PRINT_BOOT("[alt_main.c] Calling main.\r\n");

#ifdef ALT_NO_EXIT
  main (alt_argc, alt_argv, alt_envp);
#else
  result = main (alt_argc, alt_argv, alt_envp);
     82c:	0000b7b7          	lui	a5,0xb
     830:	7647a703          	lw	a4,1892(a5) # b764 <alt_argc>
     834:	0000b7b7          	lui	a5,0xb
     838:	7687a683          	lw	a3,1896(a5) # b768 <alt_argv>
     83c:	0000b7b7          	lui	a5,0xb
     840:	76c7a783          	lw	a5,1900(a5) # b76c <alt_envp>
     844:	00078613          	mv	a2,a5
     848:	00068593          	mv	a1,a3
     84c:	00070513          	mv	a0,a4
     850:	d01ff0ef          	jal	550 <main>
     854:	fea42623          	sw	a0,-20(s0)
  close(STDOUT_FILENO);
     858:	00100513          	li	a0,1
     85c:	145040ef          	jal	51a0 <close>
  exit (result);
     860:	fec42503          	lw	a0,-20(s0)
     864:	4bd030ef          	jal	4520 <exit>

00000868 <usleep>:
#if defined (__GNUC__) && __GNUC__ >= 4
int ALT_USLEEP (useconds_t us)
#else
unsigned int ALT_USLEEP (unsigned int us)
#endif
{
     868:	fe010113          	add	sp,sp,-32
     86c:	00112e23          	sw	ra,28(sp)
     870:	00812c23          	sw	s0,24(sp)
     874:	02010413          	add	s0,sp,32
     878:	fea42623          	sw	a0,-20(s0)
  return alt_busy_sleep(us);
     87c:	fec42503          	lw	a0,-20(s0)
     880:	46d020ef          	jal	34ec <alt_busy_sleep>
     884:	00050793          	mv	a5,a0
}
     888:	00078513          	mv	a0,a5
     88c:	01c12083          	lw	ra,28(sp)
     890:	01812403          	lw	s0,24(sp)
     894:	02010113          	add	sp,sp,32
     898:	00008067          	ret

0000089c <alt_irq_init>:
 * The "base" parameter is ignored and only
 * present for backwards-compatibility.
 */

void alt_irq_init ( const void* base )
{
     89c:	fe010113          	add	sp,sp,-32
     8a0:	00112e23          	sw	ra,28(sp)
     8a4:	00812c23          	sw	s0,24(sp)
     8a8:	02010413          	add	s0,sp,32
     8ac:	fea42623          	sw	a0,-20(s0)
    INTEL_NIOSV_M_IRQ_INIT ( INTEL_NIOSV_M_0, intel_niosv_m_0);
     8b0:	0cd030ef          	jal	417c <intel_niosv_irq_init>
    NIOSV_SET_CSR(NIOSV_MSTATUS_CSR, NIOSV_MSTATUS_MIE_MASK);
     8b4:	00800793          	li	a5,8
     8b8:	3007a073          	csrs	mstatus,a5
}
     8bc:	00000013          	nop
    alt_irq_cpu_enable_interrupts();
}
     8c0:	00000013          	nop
     8c4:	01c12083          	lw	ra,28(sp)
     8c8:	01812403          	lw	s0,24(sp)
     8cc:	02010113          	add	sp,sp,32
     8d0:	00008067          	ret

000008d4 <alt_sys_init>:
 * Initialize the non-interrupt controller devices.
 * Called after alt_irq_init().
 */

void alt_sys_init( void )
{
     8d4:	fe010113          	add	sp,sp,-32
     8d8:	00112e23          	sw	ra,28(sp)
     8dc:	00812c23          	sw	s0,24(sp)
     8e0:	02010413          	add	s0,sp,32
    ALTERA_AVALON_I2C_INIT ( I2C_0, i2c_0);
     8e4:	000087b7          	lui	a5,0x8
     8e8:	7f078513          	add	a0,a5,2032 # 87f0 <i2c_0>
     8ec:	2e8000ef          	jal	bd4 <alt_avalon_i2c_init>
    ALTERA_AVALON_JTAG_UART_INIT ( JTAG_UART_0, jtag_uart_0);
     8f0:	00000613          	li	a2,0
     8f4:	00000593          	li	a1,0
     8f8:	000097b7          	lui	a5,0x9
     8fc:	85078513          	add	a0,a5,-1968 # 8850 <jtag_uart_0+0x28>
     900:	0fc020ef          	jal	29fc <altera_avalon_jtag_uart_init>
     904:	000097b7          	lui	a5,0x9
     908:	82878513          	add	a0,a5,-2008 # 8828 <jtag_uart_0>
     90c:	4b1020ef          	jal	35bc <alt_dev_reg>
     910:	3e800793          	li	a5,1000
     914:	fef42623          	sw	a5,-20(s0)
 * in order to initialise the value of the clock frequency.
 */

static ALT_INLINE int ALT_ALWAYS_INLINE alt_sysclk_init (alt_u32 nticks)
{
  if (! _alt_tick_rate)
     918:	0000b7b7          	lui	a5,0xb
     91c:	7787a783          	lw	a5,1912(a5) # b778 <_alt_tick_rate>
     920:	00079a63          	bnez	a5,934 <alt_sys_init+0x60>
  {
    _alt_tick_rate = nticks;
     924:	0000b7b7          	lui	a5,0xb
     928:	fec42703          	lw	a4,-20(s0)
     92c:	76e7ac23          	sw	a4,1912(a5) # b778 <_alt_tick_rate>
    return 0;
     930:	0080006f          	j	938 <alt_sys_init+0x64>
  }
  else
  {
    return -1;
     934:	00000013          	nop
     938:	000047b7          	lui	a5,0x4
     93c:	3e478793          	add	a5,a5,996 # 43e4 <alt_niosv_timer_sc_isr>
     940:	fef42423          	sw	a5,-24(s0)
alt_u64 alt_niosv_mtimecmp_get();
void alt_niosv_mtimecmp_interrupt_init();
extern alt_niosv_timer_isr_t alt_niosv_timer_interrupt_handler;

static ALT_INLINE void ALT_ALWAYS_INLINE alt_niosv_register_mtimecmp_interrupt_handle(alt_niosv_timer_isr_t handle) {
    alt_niosv_timer_interrupt_handler = handle;
     944:	0000b7b7          	lui	a5,0xb
     948:	fe842703          	lw	a4,-24(s0)
     94c:	76e7a023          	sw	a4,1888(a5) # b760 <alt_niosv_timer_interrupt_handler>
}
     950:	00000013          	nop
    INTEL_NIOSV_M_INIT ( INTEL_NIOSV_M_0, intel_niosv_m_0);
     954:	33d030ef          	jal	4490 <alt_niosv_mtimecmp_interrupt_init>
}
     958:	00000013          	nop
     95c:	01c12083          	lw	ra,28(sp)
     960:	01812403          	lw	s0,24(sp)
     964:	02010113          	add	sp,sp,32
     968:	00008067          	ret

0000096c <optional_irq_callback>:

/* for all functions in this file, see the altera_avalon_i2c.h file for more complete function descriptions. */

/* optional irq callback */
static void optional_irq_callback(void * context)
{
     96c:	fc010113          	add	sp,sp,-64
     970:	02112e23          	sw	ra,60(sp)
     974:	02812c23          	sw	s0,56(sp)
     978:	04010413          	add	s0,sp,64
     97c:	fca42623          	sw	a0,-52(s0)
     980:	0000b7b7          	lui	a5,0xb
     984:	7b87a703          	lw	a4,1976(a5) # b7b8 <__stack_chk_guard>
     988:	fee42623          	sw	a4,-20(s0)
     98c:	00000713          	li	a4,0
   int timeout=100000;
     990:	000187b7          	lui	a5,0x18
     994:	6a078793          	add	a5,a5,1696 # 186a0 <__alt_heap_start+0xcb60>
     998:	fef42023          	sw	a5,-32(s0)
   alt_u32 bytes_read;

   ALT_AVALON_I2C_DEV_t *i2c_dev = context;
     99c:	fcc42783          	lw	a5,-52(s0)
     9a0:	fef42223          	sw	a5,-28(s0)
   IRQ_DATA_t *irq = i2c_dev->callback_context;
     9a4:	fe442783          	lw	a5,-28(s0)
     9a8:	01c7a783          	lw	a5,28(a5)
     9ac:	fef42423          	sw	a5,-24(s0)

   if (irq->irq_busy==2)  /*receive request*/
     9b0:	fe842783          	lw	a5,-24(s0)
     9b4:	0087a703          	lw	a4,8(a5)
     9b8:	00200793          	li	a5,2
     9bc:	08f71a63          	bne	a4,a5,a50 <optional_irq_callback+0xe4>
   {
       alt_avalon_i2c_rx_read_available(i2c_dev, irq->buffer, irq->size, &bytes_read);
     9c0:	fe842783          	lw	a5,-24(s0)
     9c4:	0007a703          	lw	a4,0(a5)
     9c8:	fe842783          	lw	a5,-24(s0)
     9cc:	0047a783          	lw	a5,4(a5)
     9d0:	fdc40693          	add	a3,s0,-36
     9d4:	00078613          	mv	a2,a5
     9d8:	00070593          	mv	a1,a4
     9dc:	fe442503          	lw	a0,-28(s0)
     9e0:	7f0000ef          	jal	11d0 <alt_avalon_i2c_rx_read_available>
       irq->size-=bytes_read;
     9e4:	fe842783          	lw	a5,-24(s0)
     9e8:	0047a703          	lw	a4,4(a5)
     9ec:	fdc42783          	lw	a5,-36(s0)
     9f0:	40f70733          	sub	a4,a4,a5
     9f4:	fe842783          	lw	a5,-24(s0)
     9f8:	00e7a223          	sw	a4,4(a5)
       irq->buffer+=bytes_read;
     9fc:	fe842783          	lw	a5,-24(s0)
     a00:	0007a703          	lw	a4,0(a5)
     a04:	fdc42783          	lw	a5,-36(s0)
     a08:	00f70733          	add	a4,a4,a5
     a0c:	fe842783          	lw	a5,-24(s0)
     a10:	00e7a023          	sw	a4,0(a5)
       if (irq->size > 0)
     a14:	fe842783          	lw	a5,-24(s0)
     a18:	0047a783          	lw	a5,4(a5)
     a1c:	02078a63          	beqz	a5,a50 <optional_irq_callback+0xe4>
       {
         /* clear ISR register content */
         alt_avalon_i2c_int_clear(i2c_dev,ALT_AVALON_I2C_ISR_ALL_CLEARABLE_INTS_MSK);
     a20:	01c00593          	li	a1,28
     a24:	fe442503          	lw	a0,-28(s0)
     a28:	33d010ef          	jal	2564 <alt_avalon_i2c_int_clear>
         /* re-enable the RX_READY interrupt */
         alt_avalon_i2c_int_enable(i2c_dev,ALT_AVALON_I2C_ISER_RX_READY_EN_MSK);
     a2c:	00200593          	li	a1,2
     a30:	fe442503          	lw	a0,-28(s0)
     a34:	40d010ef          	jal	2640 <alt_avalon_i2c_int_enable>
     a38:	0400006f          	j	a78 <optional_irq_callback+0x10c>
    /*for a write, this code will only be reached after the cmd fifo is*/
    /*empty (sent).  For a read this code will only be reached after all*/
    /*bytes have been received.*/
    while (alt_avalon_i2c_is_busy(i2c_dev)) 
    { 
      if (--timeout == 0)
     a3c:	fe042783          	lw	a5,-32(s0)
     a40:	fff78793          	add	a5,a5,-1
     a44:	fef42023          	sw	a5,-32(s0)
     a48:	fe042783          	lw	a5,-32(s0)
     a4c:	00078c63          	beqz	a5,a64 <optional_irq_callback+0xf8>
    while (alt_avalon_i2c_is_busy(i2c_dev)) 
     a50:	fe442503          	lw	a0,-28(s0)
     a54:	730000ef          	jal	1184 <alt_avalon_i2c_is_busy>
     a58:	00050793          	mv	a5,a0
     a5c:	fe0790e3          	bnez	a5,a3c <optional_irq_callback+0xd0>
     a60:	0080006f          	j	a68 <optional_irq_callback+0xfc>
      {
         break;
     a64:	00000013          	nop
      }
    }

    /*disable the ip.  The ip is disabled and enabled for each transaction.*/
    alt_avalon_i2c_disable(i2c_dev);
     a68:	fe442503          	lw	a0,-28(s0)
     a6c:	36c000ef          	jal	dd8 <alt_avalon_i2c_disable>

    irq->irq_busy=0;
     a70:	fe842783          	lw	a5,-24(s0)
     a74:	0007a423          	sw	zero,8(a5)
}
     a78:	0000b7b7          	lui	a5,0xb
     a7c:	fec42703          	lw	a4,-20(s0)
     a80:	7b87a783          	lw	a5,1976(a5) # b7b8 <__stack_chk_guard>
     a84:	00f747b3          	xor	a5,a4,a5
     a88:	00000713          	li	a4,0
     a8c:	00078463          	beqz	a5,a94 <optional_irq_callback+0x128>
     a90:	764040ef          	jal	51f4 <__stack_chk_fail>
     a94:	03c12083          	lw	ra,60(sp)
     a98:	03812403          	lw	s0,56(sp)
     a9c:	04010113          	add	sp,sp,64
     aa0:	00008067          	ret

00000aa4 <alt_avalon_i2c_register_optional_irq_handler>:

void alt_avalon_i2c_register_optional_irq_handler(ALT_AVALON_I2C_DEV_t *i2c_dev,IRQ_DATA_t * irq_data)
{
     aa4:	fe010113          	add	sp,sp,-32
     aa8:	00112e23          	sw	ra,28(sp)
     aac:	00812c23          	sw	s0,24(sp)
     ab0:	02010413          	add	s0,sp,32
     ab4:	fea42623          	sw	a0,-20(s0)
     ab8:	feb42423          	sw	a1,-24(s0)
   irq_data->irq_busy=0;
     abc:	fe842783          	lw	a5,-24(s0)
     ac0:	0007a423          	sw	zero,8(a5)
   alt_avalon_i2c_register_callback(i2c_dev,optional_irq_callback,0,irq_data);
     ac4:	fe842683          	lw	a3,-24(s0)
     ac8:	00000613          	li	a2,0
     acc:	000017b7          	lui	a5,0x1
     ad0:	96c78593          	add	a1,a5,-1684 # 96c <optional_irq_callback>
     ad4:	fec42503          	lw	a0,-20(s0)
     ad8:	0ac000ef          	jal	b84 <alt_avalon_i2c_register_callback>
}
     adc:	00000013          	nop
     ae0:	01c12083          	lw	ra,28(sp)
     ae4:	01812403          	lw	s0,24(sp)
     ae8:	02010113          	add	sp,sp,32
     aec:	00008067          	ret

00000af0 <alt_avalon_i2c_irq>:
ALT_LLIST_HEAD(alt_avalon_i2c_list);

/* Interrupt handler for the AVALON_I2C module. */
/* Interrupts are not re-enabled in this handler */
static void alt_avalon_i2c_irq(void *context)
{
     af0:	fd010113          	add	sp,sp,-48
     af4:	02112623          	sw	ra,44(sp)
     af8:	02812423          	sw	s0,40(sp)
     afc:	03010413          	add	s0,sp,48
     b00:	fca42e23          	sw	a0,-36(s0)
    ALT_AVALON_I2C_DEV_t *dev = (ALT_AVALON_I2C_DEV_t *) context;
     b04:	fdc42783          	lw	a5,-36(s0)
     b08:	fef42023          	sw	a5,-32(s0)
    alt_irq_context cpu_sr;
     
    /*disable i2c interrupts*/
    alt_avalon_i2c_int_disable(dev,ALT_AVALON_I2C_ISR_ALLINTS_MSK);
     b0c:	01f00593          	li	a1,31
     b10:	fe042503          	lw	a0,-32(s0)
     b14:	291010ef          	jal	25a4 <alt_avalon_i2c_int_disable>
    
    /* clear irq status */
    alt_avalon_i2c_int_clear(dev,ALT_AVALON_I2C_ISR_ALL_CLEARABLE_INTS_MSK);
     b18:	01c00593          	li	a1,28
     b1c:	fe042503          	lw	a0,-32(s0)
     b20:	245010ef          	jal	2564 <alt_avalon_i2c_int_clear>
    * Other interrupts are explicitly disabled if callbacks
    * are registered because there is no guarantee that they are 
    * pre-emption-safe. This allows the driver to support 
    * interrupt pre-emption.
    */
    if(dev->callback) 
     b24:	fe042783          	lw	a5,-32(s0)
     b28:	0187a783          	lw	a5,24(a5)
     b2c:	04078263          	beqz	a5,b70 <alt_avalon_i2c_irq+0x80>
    NIOSV_READ_AND_CLR_CSR(NIOSV_MSTATUS_CSR, context, NIOSV_MSTATUS_MIE_MASK);
     b30:	00800793          	li	a5,8
     b34:	3007b7f3          	csrrc	a5,mstatus,a5
     b38:	fef42623          	sw	a5,-20(s0)
    return context;
     b3c:	fec42783          	lw	a5,-20(s0)
    {
        cpu_sr = alt_irq_disable_all();
     b40:	fef42223          	sw	a5,-28(s0)
        dev->callback(dev);
     b44:	fe042783          	lw	a5,-32(s0)
     b48:	0187a783          	lw	a5,24(a5)
     b4c:	fe042503          	lw	a0,-32(s0)
     b50:	000780e7          	jalr	a5
     b54:	fe442783          	lw	a5,-28(s0)
     b58:	fef42423          	sw	a5,-24(s0)
    NIOSV_SET_CSR(NIOSV_MSTATUS_CSR, context & NIOSV_MSTATUS_MIE_MASK);
     b5c:	fe842783          	lw	a5,-24(s0)
     b60:	0087f793          	and	a5,a5,8
     b64:	3007a073          	csrs	mstatus,a5
}
     b68:	00000013          	nop
        alt_irq_enable_all(cpu_sr);
    }

    return;
     b6c:	00000013          	nop
     b70:	00000013          	nop
}
     b74:	02c12083          	lw	ra,44(sp)
     b78:	02812403          	lw	s0,40(sp)
     b7c:	03010113          	add	sp,sp,48
     b80:	00008067          	ret

00000b84 <alt_avalon_i2c_register_callback>:
void alt_avalon_i2c_register_callback(
    ALT_AVALON_I2C_DEV_t *dev,
    alt_avalon_i2c_callback callback,
    alt_u32 control,
    void *context)
{
     b84:	fe010113          	add	sp,sp,-32
     b88:	00812e23          	sw	s0,28(sp)
     b8c:	02010413          	add	s0,sp,32
     b90:	fea42623          	sw	a0,-20(s0)
     b94:	feb42423          	sw	a1,-24(s0)
     b98:	fec42223          	sw	a2,-28(s0)
     b9c:	fed42023          	sw	a3,-32(s0)
    dev->callback         = callback;
     ba0:	fec42783          	lw	a5,-20(s0)
     ba4:	fe842703          	lw	a4,-24(s0)
     ba8:	00e7ac23          	sw	a4,24(a5)
    dev->callback_context = context;
     bac:	fec42783          	lw	a5,-20(s0)
     bb0:	fe042703          	lw	a4,-32(s0)
     bb4:	00e7ae23          	sw	a4,28(a5)
    dev->control          = control;
     bb8:	fec42783          	lw	a5,-20(s0)
     bbc:	fe442703          	lw	a4,-28(s0)
     bc0:	02e7a023          	sw	a4,32(a5)

    return ;
     bc4:	00000013          	nop
}
     bc8:	01c12403          	lw	s0,28(sp)
     bcc:	02010113          	add	sp,sp,32
     bd0:	00008067          	ret

00000bd4 <alt_avalon_i2c_init>:

 /* Initializes the I2C Module. This routine is called
 * from the ALT_AVALON_I2C_INIT macro and is called automatically
 * by alt_sys_init.c */
void alt_avalon_i2c_init (ALT_AVALON_I2C_DEV_t *dev)
{
     bd4:	fc010113          	add	sp,sp,-64
     bd8:	02112e23          	sw	ra,60(sp)
     bdc:	02812c23          	sw	s0,56(sp)
     be0:	04010413          	add	s0,sp,64
     be4:	fca42623          	sw	a0,-52(s0)
     be8:	0000b7b7          	lui	a5,0xb
     bec:	7b87a703          	lw	a4,1976(a5) # b7b8 <__stack_chk_guard>
     bf0:	fee42623          	sw	a4,-20(s0)
     bf4:	00000713          	li	a4,0
    extern alt_llist alt_avalon_i2c_list;
    ALT_AVALON_I2C_MASTER_CONFIG_t cfg;
    int error;

    /* disable ip */
    alt_avalon_i2c_disable(dev);
     bf8:	fcc42503          	lw	a0,-52(s0)
     bfc:	1dc000ef          	jal	dd8 <alt_avalon_i2c_disable>

    /* Disable interrupts */
    alt_avalon_i2c_int_disable(dev,ALT_AVALON_I2C_ISR_ALLINTS_MSK);
     c00:	01f00593          	li	a1,31
     c04:	fcc42503          	lw	a0,-52(s0)
     c08:	19d010ef          	jal	25a4 <alt_avalon_i2c_int_disable>

    /* clear ISR register content */
    alt_avalon_i2c_int_clear(dev,ALT_AVALON_I2C_ISR_ALL_CLEARABLE_INTS_MSK);
     c0c:	01c00593          	li	a1,28
     c10:	fcc42503          	lw	a0,-52(s0)
     c14:	151010ef          	jal	2564 <alt_avalon_i2c_int_clear>
    
    /* set the cmd fifo threshold */
    alt_avalon_i2c_tfr_cmd_fifo_threshold_set(dev,ALT_AVALON_I2C_TFR_CMD_FIFO_NOT_FULL);
     c18:	00300593          	li	a1,3
     c1c:	fcc42503          	lw	a0,-52(s0)
     c20:	401010ef          	jal	2820 <alt_avalon_i2c_tfr_cmd_fifo_threshold_set>
    
    /* set the tx fifo threshold */
    alt_avalon_i2c_rx_fifo_threshold_set(dev,ALT_AVALON_I2C_RX_DATA_FIFO_FULL);
     c24:	00300593          	li	a1,3
     c28:	fcc42503          	lw	a0,-52(s0)
     c2c:	341010ef          	jal	276c <alt_avalon_i2c_rx_fifo_threshold_set>
    
    /* set the default bus speed */
    cfg.speed_mode = ALT_AVALON_I2C_SPEED_STANDARD;
     c30:	fe042023          	sw	zero,-32(s0)
    
    /*set the address mode */
    cfg.addr_mode = ALT_AVALON_I2C_ADDR_MODE_7_BIT;
     c34:	fc042e23          	sw	zero,-36(s0)
    
    /* set the bus speed */
    alt_avalon_i2c_master_config_speed_set(dev,&cfg,ALT_AVALON_I2C_SS_MAX_HZ);
     c38:	fdc40713          	add	a4,s0,-36
     c3c:	000187b7          	lui	a5,0x18
     c40:	6a078613          	add	a2,a5,1696 # 186a0 <__alt_heap_start+0xcb60>
     c44:	00070593          	mv	a1,a4
     c48:	fcc42503          	lw	a0,-52(s0)
     c4c:	420000ef          	jal	106c <alt_avalon_i2c_master_config_speed_set>
    
    /* write the cfg information */
    alt_avalon_i2c_master_config_set(dev,&cfg);
     c50:	fdc40793          	add	a5,s0,-36
     c54:	00078593          	mv	a1,a5
     c58:	fcc42503          	lw	a0,-52(s0)
     c5c:	2a4000ef          	jal	f00 <alt_avalon_i2c_master_config_set>
    
    /* Register this instance of the i2c controller with HAL */
    alt_dev_llist_insert((alt_dev_llist*) dev, &alt_avalon_i2c_list);
     c60:	0000a7b7          	lui	a5,0xa
     c64:	f6878593          	add	a1,a5,-152 # 9f68 <alt_avalon_i2c_list>
     c68:	fcc42503          	lw	a0,-52(s0)
     c6c:	1cd020ef          	jal	3638 <alt_dev_llist_insert>
 * HAL.
 */

static ALT_INLINE int ALT_ALWAYS_INLINE alt_no_error (void)
{
  return 0;
     c70:	00000793          	li	a5,0

    /*
     * Creating semaphores used to protect access to the registers 
     * when running in a multi-threaded environment.
     */
    error = ALT_SEM_CREATE (&dev->regs_lock, 1);
     c74:	fcf42c23          	sw	a5,-40(s0)

    if (!error)
     c78:	fd842783          	lw	a5,-40(s0)
     c7c:	02079663          	bnez	a5,ca8 <alt_avalon_i2c_init+0xd4>
    {        
        /* Install IRQ handler */
        alt_ic_isr_register(dev->irq_controller_ID, dev->irq_ID, alt_avalon_i2c_irq, dev, 0x0);
     c80:	fcc42783          	lw	a5,-52(s0)
     c84:	0107a503          	lw	a0,16(a5)
     c88:	fcc42783          	lw	a5,-52(s0)
     c8c:	0147a583          	lw	a1,20(a5)
     c90:	00000713          	li	a4,0
     c94:	fcc42683          	lw	a3,-52(s0)
     c98:	000017b7          	lui	a5,0x1
     c9c:	af078613          	add	a2,a5,-1296 # af0 <alt_avalon_i2c_irq>
     ca0:	43d020ef          	jal	38dc <alt_ic_isr_register>
    else
    {
        alt_printf("failed to create semaphores\n");
    }

    return;
     ca4:	0140006f          	j	cb8 <alt_avalon_i2c_init+0xe4>
        alt_printf("failed to create semaphores\n");
     ca8:	000087b7          	lui	a5,0x8
     cac:	79078513          	add	a0,a5,1936 # 8790 <__fini_array_end+0x40>
     cb0:	7d5020ef          	jal	3c84 <alt_printf>
    return;
     cb4:	00000013          	nop

}
     cb8:	0000b7b7          	lui	a5,0xb
     cbc:	fec42703          	lw	a4,-20(s0)
     cc0:	7b87a783          	lw	a5,1976(a5) # b7b8 <__stack_chk_guard>
     cc4:	00f747b3          	xor	a5,a4,a5
     cc8:	00000713          	li	a4,0
     ccc:	00078463          	beqz	a5,cd4 <alt_avalon_i2c_init+0x100>
     cd0:	524040ef          	jal	51f4 <__stack_chk_fail>
     cd4:	03c12083          	lw	ra,60(sp)
     cd8:	03812403          	lw	s0,56(sp)
     cdc:	04010113          	add	sp,sp,64
     ce0:	00008067          	ret

00000ce4 <alt_avalon_i2c_open>:

/*  Retrieve a pointer to the i2c instance */
ALT_AVALON_I2C_DEV_t* alt_avalon_i2c_open(const char* name)
{
     ce4:	fd010113          	add	sp,sp,-48
     ce8:	02112623          	sw	ra,44(sp)
     cec:	02812423          	sw	s0,40(sp)
     cf0:	03010413          	add	s0,sp,48
     cf4:	fca42e23          	sw	a0,-36(s0)
    ALT_AVALON_I2C_DEV_t* dev = NULL;
     cf8:	fe042623          	sw	zero,-20(s0)

    dev = (ALT_AVALON_I2C_DEV_t*) alt_find_dev (name, &alt_avalon_i2c_list);
     cfc:	0000a7b7          	lui	a5,0xa
     d00:	f6878593          	add	a1,a5,-152 # 9f68 <alt_avalon_i2c_list>
     d04:	fdc42503          	lw	a0,-36(s0)
     d08:	299020ef          	jal	37a0 <alt_find_dev>
     d0c:	fea42623          	sw	a0,-20(s0)

    return dev;
     d10:	fec42783          	lw	a5,-20(s0)
}
     d14:	00078513          	mv	a0,a5
     d18:	02c12083          	lw	ra,44(sp)
     d1c:	02812403          	lw	s0,40(sp)
     d20:	03010113          	add	sp,sp,48
     d24:	00008067          	ret

00000d28 <alt_avalon_i2c_enable>:

/* enable the avalon i2c ip */
ALT_AVALON_I2C_STATUS_CODE alt_avalon_i2c_enable(ALT_AVALON_I2C_DEV_t *i2c_dev)
{
     d28:	fc010113          	add	sp,sp,-64
     d2c:	02812e23          	sw	s0,60(sp)
     d30:	04010413          	add	s0,sp,64
     d34:	fca42623          	sw	a0,-52(s0)
   IRQ_DATA_t *irq_data = i2c_dev->callback_context;
     d38:	fcc42783          	lw	a5,-52(s0)
     d3c:	01c7a783          	lw	a5,28(a5)
     d40:	fcf42e23          	sw	a5,-36(s0)
   alt_u32 enable_status;
       
   /*if the ip is already enabled, return a busy status*/
   enable_status = (IORD_ALT_AVALON_I2C_CTRL(i2c_dev->i2c_base) & ALT_AVALON_I2C_CTRL_EN_MSK) >> ALT_AVALON_I2C_CTRL_EN_OFST;
     d44:	fcc42783          	lw	a5,-52(s0)
     d48:	00c7a783          	lw	a5,12(a5)
     d4c:	00878793          	add	a5,a5,8
     d50:	0007a783          	lw	a5,0(a5)
     d54:	fef42023          	sw	a5,-32(s0)
     d58:	fe042783          	lw	a5,-32(s0)
     d5c:	0017f793          	and	a5,a5,1
     d60:	fef42223          	sw	a5,-28(s0)
   if (enable_status)
     d64:	fe442783          	lw	a5,-28(s0)
     d68:	00078663          	beqz	a5,d74 <alt_avalon_i2c_enable+0x4c>
   {
     return ALT_AVALON_I2C_BUSY;
     d6c:	ff900793          	li	a5,-7
     d70:	0580006f          	j	dc8 <alt_avalon_i2c_enable+0xa0>
   }
   
   /*if the optional irq callback is registered ensure irq_busy is 0*/
   if (i2c_dev->callback == optional_irq_callback)
     d74:	fcc42783          	lw	a5,-52(s0)
     d78:	0187a703          	lw	a4,24(a5)
     d7c:	000017b7          	lui	a5,0x1
     d80:	96c78793          	add	a5,a5,-1684 # 96c <optional_irq_callback>
     d84:	00f71663          	bne	a4,a5,d90 <alt_avalon_i2c_enable+0x68>
   {
     irq_data->irq_busy=0;
     d88:	fdc42783          	lw	a5,-36(s0)
     d8c:	0007a423          	sw	zero,8(a5)
   }
   
   /* enable ip */
   IORMW_ALT_AVALON_I2C_CTRL(i2c_dev->i2c_base,ALT_AVALON_I2C_CTRL_EN_MSK,ALT_AVALON_I2C_CTRL_EN_MSK);
     d90:	fcc42783          	lw	a5,-52(s0)
     d94:	00c7a783          	lw	a5,12(a5)
     d98:	00878793          	add	a5,a5,8
     d9c:	0007a783          	lw	a5,0(a5)
     da0:	fef42423          	sw	a5,-24(s0)
     da4:	fe842783          	lw	a5,-24(s0)
     da8:	0017e793          	or	a5,a5,1
     dac:	fef42623          	sw	a5,-20(s0)
     db0:	fcc42783          	lw	a5,-52(s0)
     db4:	00c7a783          	lw	a5,12(a5)
     db8:	00878793          	add	a5,a5,8
     dbc:	fec42703          	lw	a4,-20(s0)
     dc0:	00e7a023          	sw	a4,0(a5)

   return ALT_AVALON_I2C_SUCCESS;
     dc4:	00000793          	li	a5,0
}
     dc8:	00078513          	mv	a0,a5
     dcc:	03c12403          	lw	s0,60(sp)
     dd0:	04010113          	add	sp,sp,64
     dd4:	00008067          	ret

00000dd8 <alt_avalon_i2c_disable>:

/* disable the avalon i2c ip */
void alt_avalon_i2c_disable(ALT_AVALON_I2C_DEV_t *i2c_dev)
{
     dd8:	fd010113          	add	sp,sp,-48
     ddc:	02812623          	sw	s0,44(sp)
     de0:	03010413          	add	s0,sp,48
     de4:	fca42e23          	sw	a0,-36(s0)
   /* disable ip */
   IORMW_ALT_AVALON_I2C_CTRL(i2c_dev->i2c_base,0,ALT_AVALON_I2C_CTRL_EN_MSK);
     de8:	fdc42783          	lw	a5,-36(s0)
     dec:	00c7a783          	lw	a5,12(a5)
     df0:	00878793          	add	a5,a5,8
     df4:	0007a783          	lw	a5,0(a5)
     df8:	fef42423          	sw	a5,-24(s0)
     dfc:	fe842783          	lw	a5,-24(s0)
     e00:	ffe7f793          	and	a5,a5,-2
     e04:	fef42623          	sw	a5,-20(s0)
     e08:	fdc42783          	lw	a5,-36(s0)
     e0c:	00c7a783          	lw	a5,12(a5)
     e10:	00878793          	add	a5,a5,8
     e14:	fec42703          	lw	a4,-20(s0)
     e18:	00e7a023          	sw	a4,0(a5)

}
     e1c:	00000013          	nop
     e20:	02c12403          	lw	s0,44(sp)
     e24:	03010113          	add	sp,sp,48
     e28:	00008067          	ret

00000e2c <alt_avalon_i2c_master_config_get>:

/* populate the the master config structure from the register values */
void alt_avalon_i2c_master_config_get(ALT_AVALON_I2C_DEV_t *i2c_dev,
                                          ALT_AVALON_I2C_MASTER_CONFIG_t* cfg)
{
     e2c:	fd010113          	add	sp,sp,-48
     e30:	02812623          	sw	s0,44(sp)
     e34:	03010413          	add	s0,sp,48
     e38:	fca42e23          	sw	a0,-36(s0)
     e3c:	fcb42c23          	sw	a1,-40(s0)

    cfg->addr_mode = i2c_dev->address_mode;
     e40:	fdc42783          	lw	a5,-36(s0)
     e44:	0347a703          	lw	a4,52(a5)
     e48:	fd842783          	lw	a5,-40(s0)
     e4c:	00e7a023          	sw	a4,0(a5)
    cfg->speed_mode = (IORD_ALT_AVALON_I2C_CTRL(i2c_dev->i2c_base) & ALT_AVALON_I2C_CTRL_BUS_SPEED_MSK) >> ALT_AVALON_I2C_CTRL_BUS_SPEED_OFST;    
     e50:	fdc42783          	lw	a5,-36(s0)
     e54:	00c7a783          	lw	a5,12(a5)
     e58:	00878793          	add	a5,a5,8
     e5c:	0007a783          	lw	a5,0(a5)
     e60:	fef42023          	sw	a5,-32(s0)
     e64:	fe042783          	lw	a5,-32(s0)
     e68:	0017d793          	srl	a5,a5,0x1
     e6c:	0017f713          	and	a4,a5,1
     e70:	fd842783          	lw	a5,-40(s0)
     e74:	00e7a223          	sw	a4,4(a5)

    cfg->scl_hcnt = (IORD_ALT_AVALON_I2C_SCL_HIGH(i2c_dev->i2c_base) & ALT_AVALON_I2C_SCL_HIGH_COUNT_PERIOD_MSK) >> ALT_AVALON_I2C_SCL_HIGH_COUNT_PERIOD_OFST;    
     e78:	fdc42783          	lw	a5,-36(s0)
     e7c:	00c7a783          	lw	a5,12(a5)
     e80:	02478793          	add	a5,a5,36
     e84:	0007a783          	lw	a5,0(a5)
     e88:	fef42223          	sw	a5,-28(s0)
     e8c:	fe442783          	lw	a5,-28(s0)
     e90:	01079713          	sll	a4,a5,0x10
     e94:	01075713          	srl	a4,a4,0x10
     e98:	fd842783          	lw	a5,-40(s0)
     e9c:	00e79423          	sh	a4,8(a5)
    cfg->scl_lcnt = (IORD_ALT_AVALON_I2C_SCL_LOW(i2c_dev->i2c_base) & ALT_AVALON_I2C_SCL_LOW_COUNT_PERIOD_MSK) >> ALT_AVALON_I2C_SCL_LOW_COUNT_PERIOD_OFST;    
     ea0:	fdc42783          	lw	a5,-36(s0)
     ea4:	00c7a783          	lw	a5,12(a5)
     ea8:	02078793          	add	a5,a5,32
     eac:	0007a783          	lw	a5,0(a5)
     eb0:	fef42423          	sw	a5,-24(s0)
     eb4:	fe842783          	lw	a5,-24(s0)
     eb8:	01079713          	sll	a4,a5,0x10
     ebc:	01075713          	srl	a4,a4,0x10
     ec0:	fd842783          	lw	a5,-40(s0)
     ec4:	00e79523          	sh	a4,10(a5)
    cfg->sda_cnt = (IORD_ALT_AVALON_I2C_SDA_HOLD(i2c_dev->i2c_base) & ALT_AVALON_I2C_SDA_HOLD_COUNT_PERIOD_MSK) >> ALT_AVALON_I2C_SDA_HOLD_COUNT_PERIOD_OFST;    
     ec8:	fdc42783          	lw	a5,-36(s0)
     ecc:	00c7a783          	lw	a5,12(a5)
     ed0:	02878793          	add	a5,a5,40
     ed4:	0007a783          	lw	a5,0(a5)
     ed8:	fef42623          	sw	a5,-20(s0)
     edc:	fec42783          	lw	a5,-20(s0)
     ee0:	01079713          	sll	a4,a5,0x10
     ee4:	01075713          	srl	a4,a4,0x10
     ee8:	fd842783          	lw	a5,-40(s0)
     eec:	00e79623          	sh	a4,12(a5)
}
     ef0:	00000013          	nop
     ef4:	02c12403          	lw	s0,44(sp)
     ef8:	03010113          	add	sp,sp,48
     efc:	00008067          	ret

00000f00 <alt_avalon_i2c_master_config_set>:

/* set the registers from the master config structure */
void alt_avalon_i2c_master_config_set(ALT_AVALON_I2C_DEV_t *i2c_dev,
                                          const ALT_AVALON_I2C_MASTER_CONFIG_t* cfg)
{
     f00:	fc010113          	add	sp,sp,-64
     f04:	02812e23          	sw	s0,60(sp)
     f08:	04010413          	add	s0,sp,64
     f0c:	fca42623          	sw	a0,-52(s0)
     f10:	fcb42423          	sw	a1,-56(s0)
    i2c_dev->address_mode   =   cfg->addr_mode;
     f14:	fc842783          	lw	a5,-56(s0)
     f18:	0007a703          	lw	a4,0(a5)
     f1c:	fcc42783          	lw	a5,-52(s0)
     f20:	02e7aa23          	sw	a4,52(a5)
    IORMW_ALT_AVALON_I2C_CTRL(i2c_dev->i2c_base,(cfg->speed_mode) << ALT_AVALON_I2C_CTRL_BUS_SPEED_OFST,ALT_AVALON_I2C_CTRL_BUS_SPEED_MSK);
     f24:	fcc42783          	lw	a5,-52(s0)
     f28:	00c7a783          	lw	a5,12(a5)
     f2c:	00878793          	add	a5,a5,8
     f30:	0007a783          	lw	a5,0(a5)
     f34:	fcf42e23          	sw	a5,-36(s0)
     f38:	fdc42783          	lw	a5,-36(s0)
     f3c:	ffd7f713          	and	a4,a5,-3
     f40:	fc842783          	lw	a5,-56(s0)
     f44:	0047a783          	lw	a5,4(a5)
     f48:	00179793          	sll	a5,a5,0x1
     f4c:	0027f793          	and	a5,a5,2
     f50:	00f767b3          	or	a5,a4,a5
     f54:	fef42023          	sw	a5,-32(s0)
     f58:	fcc42783          	lw	a5,-52(s0)
     f5c:	00c7a783          	lw	a5,12(a5)
     f60:	00878793          	add	a5,a5,8
     f64:	fe042703          	lw	a4,-32(s0)
     f68:	00e7a023          	sw	a4,0(a5)

    IOWR_ALT_AVALON_I2C_SCL_HIGH(i2c_dev->i2c_base,cfg->scl_hcnt);
     f6c:	fc842783          	lw	a5,-56(s0)
     f70:	0087d783          	lhu	a5,8(a5)
     f74:	fef42223          	sw	a5,-28(s0)
     f78:	fcc42783          	lw	a5,-52(s0)
     f7c:	00c7a783          	lw	a5,12(a5)
     f80:	02478793          	add	a5,a5,36
     f84:	fe442703          	lw	a4,-28(s0)
     f88:	00e7a023          	sw	a4,0(a5)
    IOWR_ALT_AVALON_I2C_SCL_LOW(i2c_dev->i2c_base,cfg->scl_lcnt);
     f8c:	fc842783          	lw	a5,-56(s0)
     f90:	00a7d783          	lhu	a5,10(a5)
     f94:	fef42423          	sw	a5,-24(s0)
     f98:	fcc42783          	lw	a5,-52(s0)
     f9c:	00c7a783          	lw	a5,12(a5)
     fa0:	02078793          	add	a5,a5,32
     fa4:	fe842703          	lw	a4,-24(s0)
     fa8:	00e7a023          	sw	a4,0(a5)
    IOWR_ALT_AVALON_I2C_SDA_HOLD(i2c_dev->i2c_base,cfg->sda_cnt);
     fac:	fc842783          	lw	a5,-56(s0)
     fb0:	00c7d783          	lhu	a5,12(a5)
     fb4:	fef42623          	sw	a5,-20(s0)
     fb8:	fcc42783          	lw	a5,-52(s0)
     fbc:	00c7a783          	lw	a5,12(a5)
     fc0:	02878793          	add	a5,a5,40
     fc4:	fec42703          	lw	a4,-20(s0)
     fc8:	00e7a023          	sw	a4,0(a5)
}
     fcc:	00000013          	nop
     fd0:	03c12403          	lw	s0,60(sp)
     fd4:	04010113          	add	sp,sp,64
     fd8:	00008067          	ret

00000fdc <alt_avalon_i2c_master_config_speed_get>:
 * I2C master configuration.
*/
ALT_AVALON_I2C_STATUS_CODE alt_avalon_i2c_master_config_speed_get(ALT_AVALON_I2C_DEV_t *i2c_dev,
                                                const ALT_AVALON_I2C_MASTER_CONFIG_t* cfg,
                                                alt_u32 * speed_in_hz)
{
     fdc:	fe010113          	add	sp,sp,-32
     fe0:	00112e23          	sw	ra,28(sp)
     fe4:	00812c23          	sw	s0,24(sp)
     fe8:	02010413          	add	s0,sp,32
     fec:	fea42623          	sw	a0,-20(s0)
     ff0:	feb42423          	sw	a1,-24(s0)
     ff4:	fec42223          	sw	a2,-28(s0)

   if ((cfg->scl_lcnt == 0) || (cfg->scl_hcnt == 0))
     ff8:	fe842783          	lw	a5,-24(s0)
     ffc:	00a7d783          	lhu	a5,10(a5)
    1000:	00078863          	beqz	a5,1010 <alt_avalon_i2c_master_config_speed_get+0x34>
    1004:	fe842783          	lw	a5,-24(s0)
    1008:	0087d783          	lhu	a5,8(a5)
    100c:	00079663          	bnez	a5,1018 <alt_avalon_i2c_master_config_speed_get+0x3c>
   {
       return ALT_AVALON_I2C_BAD_ARG;
    1010:	ffd00793          	li	a5,-3
    1014:	0440006f          	j	1058 <alt_avalon_i2c_master_config_speed_get+0x7c>
   }
    
   *speed_in_hz = (i2c_dev->ip_freq_in_hz) / (cfg->scl_lcnt + cfg->scl_hcnt);
    1018:	fec42783          	lw	a5,-20(s0)
    101c:	0307a703          	lw	a4,48(a5)
    1020:	fe842783          	lw	a5,-24(s0)
    1024:	00a7d783          	lhu	a5,10(a5)
    1028:	00078693          	mv	a3,a5
    102c:	fe842783          	lw	a5,-24(s0)
    1030:	0087d783          	lhu	a5,8(a5)
    1034:	00f687b3          	add	a5,a3,a5
    1038:	00078593          	mv	a1,a5
    103c:	00070513          	mv	a0,a4
    1040:	055060ef          	jal	7894 <__hidden___udivsi3>
    1044:	00050793          	mv	a5,a0
    1048:	00078713          	mv	a4,a5
    104c:	fe442783          	lw	a5,-28(s0)
    1050:	00e7a023          	sw	a4,0(a5)

   return ALT_AVALON_I2C_SUCCESS;
    1054:	00000793          	li	a5,0
}
    1058:	00078513          	mv	a0,a5
    105c:	01c12083          	lw	ra,28(sp)
    1060:	01812403          	lw	s0,24(sp)
    1064:	02010113          	add	sp,sp,32
    1068:	00008067          	ret

0000106c <alt_avalon_i2c_master_config_speed_set>:
/*This is a utility function that computes parameters for the I2C master
 * configuration that best matches the speed requested. */
 ALT_AVALON_I2C_STATUS_CODE alt_avalon_i2c_master_config_speed_set(ALT_AVALON_I2C_DEV_t *i2c_dev,
                                                ALT_AVALON_I2C_MASTER_CONFIG_t * cfg,
                                                alt_u32 speed_in_hz)
{
    106c:	fd010113          	add	sp,sp,-48
    1070:	02112623          	sw	ra,44(sp)
    1074:	02812423          	sw	s0,40(sp)
    1078:	03010413          	add	s0,sp,48
    107c:	fca42e23          	sw	a0,-36(s0)
    1080:	fcb42c23          	sw	a1,-40(s0)
    1084:	fcc42a23          	sw	a2,-44(s0)
    alt_u32 scl_lcnt,scl_hcnt;

    /* If speed is not standard or fast return range error */
    if ((speed_in_hz > ALT_AVALON_I2C_FS_MAX_HZ) || (speed_in_hz < ALT_AVALON_I2C_SS_MIN_HZ) || (speed_in_hz == 0))
    1088:	fd442703          	lw	a4,-44(s0)
    108c:	000627b7          	lui	a5,0x62
    1090:	a8078793          	add	a5,a5,-1408 # 61a80 <__alt_data_end+0x41a80>
    1094:	00e7ea63          	bltu	a5,a4,10a8 <alt_avalon_i2c_master_config_speed_set+0x3c>
    1098:	fd442783          	lw	a5,-44(s0)
    109c:	00078663          	beqz	a5,10a8 <alt_avalon_i2c_master_config_speed_set+0x3c>
    10a0:	fd442783          	lw	a5,-44(s0)
    10a4:	00079663          	bnez	a5,10b0 <alt_avalon_i2c_master_config_speed_set+0x44>
    {
        return ALT_AVALON_I2C_RANGE;
    10a8:	ffc00793          	li	a5,-4
    10ac:	0c40006f          	j	1170 <alt_avalon_i2c_master_config_speed_set+0x104>
    }

     /* <lcount> = <internal clock> / 2 * <speed, Hz> */
    scl_lcnt = (i2c_dev->ip_freq_in_hz) / (speed_in_hz << 1);
    10b0:	fdc42783          	lw	a5,-36(s0)
    10b4:	0307a703          	lw	a4,48(a5)
    10b8:	fd442783          	lw	a5,-44(s0)
    10bc:	00179793          	sll	a5,a5,0x1
    10c0:	00078593          	mv	a1,a5
    10c4:	00070513          	mv	a0,a4
    10c8:	7cc060ef          	jal	7894 <__hidden___udivsi3>
    10cc:	00050793          	mv	a5,a0
    10d0:	fef42423          	sw	a5,-24(s0)

    /* adjust h/l by predetermined amount */
    scl_hcnt = scl_lcnt + ALT_AVALON_I2C_DIFF_LCNT_HCNT;
    10d4:	fe842783          	lw	a5,-24(s0)
    10d8:	03c78793          	add	a5,a5,60
    10dc:	fef42623          	sw	a5,-20(s0)
    scl_lcnt = scl_lcnt - ALT_AVALON_I2C_DIFF_LCNT_HCNT;
    10e0:	fe842783          	lw	a5,-24(s0)
    10e4:	fc478793          	add	a5,a5,-60
    10e8:	fef42423          	sw	a5,-24(s0)

    if (speed_in_hz > ALT_AVALON_I2C_FS_MIN_HZ)
    10ec:	fd442703          	lw	a4,-44(s0)
    10f0:	000187b7          	lui	a5,0x18
    10f4:	6a078793          	add	a5,a5,1696 # 186a0 <__alt_heap_start+0xcb60>
    10f8:	00e7fa63          	bgeu	a5,a4,110c <alt_avalon_i2c_master_config_speed_set+0xa0>
    {
       cfg->speed_mode = ALT_AVALON_I2C_SPEED_FAST;
    10fc:	fd842783          	lw	a5,-40(s0)
    1100:	00100713          	li	a4,1
    1104:	00e7a223          	sw	a4,4(a5)
    1108:	00c0006f          	j	1114 <alt_avalon_i2c_master_config_speed_set+0xa8>
    }
    else 
    {
       cfg->speed_mode = ALT_AVALON_I2C_SPEED_STANDARD;    
    110c:	fd842783          	lw	a5,-40(s0)
    1110:	0007a223          	sw	zero,4(a5)
    }

    cfg->scl_lcnt = scl_lcnt;
    1114:	fe842783          	lw	a5,-24(s0)
    1118:	01079713          	sll	a4,a5,0x10
    111c:	01075713          	srl	a4,a4,0x10
    1120:	fd842783          	lw	a5,-40(s0)
    1124:	00e79523          	sh	a4,10(a5)
    cfg->scl_hcnt = scl_hcnt;
    1128:	fec42783          	lw	a5,-20(s0)
    112c:	01079713          	sll	a4,a5,0x10
    1130:	01075713          	srl	a4,a4,0x10
    1134:	fd842783          	lw	a5,-40(s0)
    1138:	00e79423          	sh	a4,8(a5)
    cfg->sda_cnt  = scl_lcnt - (scl_lcnt / 2);
    113c:	fe842783          	lw	a5,-24(s0)
    1140:	01079713          	sll	a4,a5,0x10
    1144:	01075713          	srl	a4,a4,0x10
    1148:	fe842783          	lw	a5,-24(s0)
    114c:	0017d793          	srl	a5,a5,0x1
    1150:	01079793          	sll	a5,a5,0x10
    1154:	0107d793          	srl	a5,a5,0x10
    1158:	40f707b3          	sub	a5,a4,a5
    115c:	01079713          	sll	a4,a5,0x10
    1160:	01075713          	srl	a4,a4,0x10
    1164:	fd842783          	lw	a5,-40(s0)
    1168:	00e79623          	sh	a4,12(a5)

    return ALT_AVALON_I2C_SUCCESS;
    116c:	00000793          	li	a5,0

}
    1170:	00078513          	mv	a0,a5
    1174:	02c12083          	lw	ra,44(sp)
    1178:	02812403          	lw	s0,40(sp)
    117c:	03010113          	add	sp,sp,48
    1180:	00008067          	ret

00001184 <alt_avalon_i2c_is_busy>:

/*Returns ALT_AVALON_I2C_TRUE if the I2C controller is busy. The I2C controller is busy if
 * not in the IDLE state */
ALT_AVALON_I2C_STATUS_CODE alt_avalon_i2c_is_busy(ALT_AVALON_I2C_DEV_t *i2c_dev)
{
    1184:	fd010113          	add	sp,sp,-48
    1188:	02812623          	sw	s0,44(sp)
    118c:	03010413          	add	s0,sp,48
    1190:	fca42e23          	sw	a0,-36(s0)

    if (IORD_ALT_AVALON_I2C_STATUS(i2c_dev->i2c_base) & ALT_AVALON_I2C_STATUS_CORE_STATUS_MSK)
    1194:	fdc42783          	lw	a5,-36(s0)
    1198:	00c7a783          	lw	a5,12(a5)
    119c:	01478793          	add	a5,a5,20
    11a0:	0007a783          	lw	a5,0(a5)
    11a4:	fef42623          	sw	a5,-20(s0)
    11a8:	fec42783          	lw	a5,-20(s0)
    11ac:	0017f793          	and	a5,a5,1
    11b0:	00078663          	beqz	a5,11bc <alt_avalon_i2c_is_busy+0x38>
    {
       return ALT_AVALON_I2C_TRUE;
    11b4:	00100793          	li	a5,1
    11b8:	0080006f          	j	11c0 <alt_avalon_i2c_is_busy+0x3c>
    }

    return ALT_AVALON_I2C_FALSE;
    11bc:	00000793          	li	a5,0
}
    11c0:	00078513          	mv	a0,a5
    11c4:	02c12403          	lw	s0,44(sp)
    11c8:	03010113          	add	sp,sp,48
    11cc:	00008067          	ret

000011d0 <alt_avalon_i2c_rx_read_available>:

/*Read all available bytes from the receive FIFO up to max_bytes_to_read.  If max_bytes_to_read = 0 then read all available */
void alt_avalon_i2c_rx_read_available(ALT_AVALON_I2C_DEV_t *i2c_dev, alt_u8 *buffer, alt_u32 max_bytes_to_read, alt_u32 *bytes_read)
{
    11d0:	fd010113          	add	sp,sp,-48
    11d4:	02812623          	sw	s0,44(sp)
    11d8:	03010413          	add	s0,sp,48
    11dc:	fca42e23          	sw	a0,-36(s0)
    11e0:	fcb42c23          	sw	a1,-40(s0)
    11e4:	fcc42a23          	sw	a2,-44(s0)
    11e8:	fcd42823          	sw	a3,-48(s0)
    *bytes_read = 0;
    11ec:	fd042783          	lw	a5,-48(s0)
    11f0:	0007a023          	sw	zero,0(a5)
    
    while (IORD_ALT_AVALON_I2C_RX_DATA_FIFO_LVL(i2c_dev->i2c_base))
    11f4:	0600006f          	j	1254 <alt_avalon_i2c_rx_read_available+0x84>
    {
       buffer[*bytes_read] = (alt_u8)IORD_ALT_AVALON_I2C_RX_DATA(i2c_dev->i2c_base);
    11f8:	fdc42783          	lw	a5,-36(s0)
    11fc:	00c7a783          	lw	a5,12(a5)
    1200:	00478793          	add	a5,a5,4
    1204:	0007a783          	lw	a5,0(a5)
    1208:	fef42623          	sw	a5,-20(s0)
    120c:	fec42683          	lw	a3,-20(s0)
    1210:	fd042783          	lw	a5,-48(s0)
    1214:	0007a783          	lw	a5,0(a5)
    1218:	fd842703          	lw	a4,-40(s0)
    121c:	00f707b3          	add	a5,a4,a5
    1220:	0ff6f713          	zext.b	a4,a3
    1224:	00e78023          	sb	a4,0(a5)
       *bytes_read+=1; 
    1228:	fd042783          	lw	a5,-48(s0)
    122c:	0007a783          	lw	a5,0(a5)
    1230:	00178713          	add	a4,a5,1
    1234:	fd042783          	lw	a5,-48(s0)
    1238:	00e7a023          	sw	a4,0(a5)
       if ((*bytes_read == max_bytes_to_read) && (max_bytes_to_read != 0)) break;       
    123c:	fd042783          	lw	a5,-48(s0)
    1240:	0007a783          	lw	a5,0(a5)
    1244:	fd442703          	lw	a4,-44(s0)
    1248:	00f71663          	bne	a4,a5,1254 <alt_avalon_i2c_rx_read_available+0x84>
    124c:	fd442783          	lw	a5,-44(s0)
    1250:	02079263          	bnez	a5,1274 <alt_avalon_i2c_rx_read_available+0xa4>
    while (IORD_ALT_AVALON_I2C_RX_DATA_FIFO_LVL(i2c_dev->i2c_base))
    1254:	fdc42783          	lw	a5,-36(s0)
    1258:	00c7a783          	lw	a5,12(a5)
    125c:	01c78793          	add	a5,a5,28
    1260:	0007a783          	lw	a5,0(a5)
    1264:	fef42423          	sw	a5,-24(s0)
    1268:	fe842783          	lw	a5,-24(s0)
    126c:	f80796e3          	bnez	a5,11f8 <alt_avalon_i2c_rx_read_available+0x28>
    }
}
    1270:	0080006f          	j	1278 <alt_avalon_i2c_rx_read_available+0xa8>
       if ((*bytes_read == max_bytes_to_read) && (max_bytes_to_read != 0)) break;       
    1274:	00000013          	nop
}
    1278:	00000013          	nop
    127c:	02c12403          	lw	s0,44(sp)
    1280:	03010113          	add	sp,sp,48
    1284:	00008067          	ret

00001288 <alt_avalon_i2c_rx_read>:

/*when a byte is available, reads a single data byte from the receive FIFO. */
ALT_AVALON_I2C_STATUS_CODE alt_avalon_i2c_rx_read(ALT_AVALON_I2C_DEV_t *i2c_dev, alt_u8 *val)
{
    1288:	fd010113          	add	sp,sp,-48
    128c:	02112623          	sw	ra,44(sp)
    1290:	02812423          	sw	s0,40(sp)
    1294:	03010413          	add	s0,sp,48
    1298:	fca42e23          	sw	a0,-36(s0)
    129c:	fcb42c23          	sw	a1,-40(s0)
    alt_u32 status = ALT_AVALON_I2C_SUCCESS;
    12a0:	fe042023          	sw	zero,-32(s0)
    alt_u32 timeout = 100000;
    12a4:	000187b7          	lui	a5,0x18
    12a8:	6a078793          	add	a5,a5,1696 # 186a0 <__alt_heap_start+0xcb60>
    12ac:	fef42223          	sw	a5,-28(s0)


    while (IORD_ALT_AVALON_I2C_RX_DATA_FIFO_LVL(i2c_dev->i2c_base) == 0)
    12b0:	03c0006f          	j	12ec <alt_avalon_i2c_rx_read+0x64>
    {
      if (timeout<10) alt_busy_sleep(10000);
    12b4:	fe442703          	lw	a4,-28(s0)
    12b8:	00900793          	li	a5,9
    12bc:	00e7e863          	bltu	a5,a4,12cc <alt_avalon_i2c_rx_read+0x44>
    12c0:	000027b7          	lui	a5,0x2
    12c4:	71078513          	add	a0,a5,1808 # 2710 <alt_avalon_i2c_enabled_ints_get+0x38>
    12c8:	224020ef          	jal	34ec <alt_busy_sleep>
      if (--timeout == 0)
    12cc:	fe442783          	lw	a5,-28(s0)
    12d0:	fff78793          	add	a5,a5,-1
    12d4:	fef42223          	sw	a5,-28(s0)
    12d8:	fe442783          	lw	a5,-28(s0)
    12dc:	00079863          	bnez	a5,12ec <alt_avalon_i2c_rx_read+0x64>
      {
        status = ALT_AVALON_I2C_TIMEOUT;
    12e0:	ffe00793          	li	a5,-2
    12e4:	fef42023          	sw	a5,-32(s0)
        break;
    12e8:	0200006f          	j	1308 <alt_avalon_i2c_rx_read+0x80>
    while (IORD_ALT_AVALON_I2C_RX_DATA_FIFO_LVL(i2c_dev->i2c_base) == 0)
    12ec:	fdc42783          	lw	a5,-36(s0)
    12f0:	00c7a783          	lw	a5,12(a5)
    12f4:	01c78793          	add	a5,a5,28
    12f8:	0007a783          	lw	a5,0(a5)
    12fc:	fef42423          	sw	a5,-24(s0)
    1300:	fe842783          	lw	a5,-24(s0)
    1304:	fa0788e3          	beqz	a5,12b4 <alt_avalon_i2c_rx_read+0x2c>
      }
    }

    *val = (alt_u8)IORD_ALT_AVALON_I2C_RX_DATA(i2c_dev->i2c_base);
    1308:	fdc42783          	lw	a5,-36(s0)
    130c:	00c7a783          	lw	a5,12(a5)
    1310:	00478793          	add	a5,a5,4
    1314:	0007a783          	lw	a5,0(a5)
    1318:	fef42623          	sw	a5,-20(s0)
    131c:	fec42783          	lw	a5,-20(s0)
    1320:	0ff7f713          	zext.b	a4,a5
    1324:	fd842783          	lw	a5,-40(s0)
    1328:	00e78023          	sb	a4,0(a5)
        
    return status;
    132c:	fe042783          	lw	a5,-32(s0)
}
    1330:	00078513          	mv	a0,a5
    1334:	02c12083          	lw	ra,44(sp)
    1338:	02812403          	lw	s0,40(sp)
    133c:	03010113          	add	sp,sp,48
    1340:	00008067          	ret

00001344 <alt_avalon_i2c_cmd_write>:
/* When space is available, writes the Transfer Command FIFO. */
ALT_AVALON_I2C_STATUS_CODE alt_avalon_i2c_cmd_write(ALT_AVALON_I2C_DEV_t *i2c_dev, 
                                                      alt_u8 val,
                                                      alt_u8 issue_restart,
                                                      alt_u8 issue_stop)
{
    1344:	fc010113          	add	sp,sp,-64
    1348:	02112e23          	sw	ra,60(sp)
    134c:	02812c23          	sw	s0,56(sp)
    1350:	04010413          	add	s0,sp,64
    1354:	fca42623          	sw	a0,-52(s0)
    1358:	00058793          	mv	a5,a1
    135c:	00068713          	mv	a4,a3
    1360:	fcf405a3          	sb	a5,-53(s0)
    1364:	00060793          	mv	a5,a2
    1368:	fcf40523          	sb	a5,-54(s0)
    136c:	00070793          	mv	a5,a4
    1370:	fcf404a3          	sb	a5,-55(s0)
    1374:	0000b7b7          	lui	a5,0xb
    1378:	7b87a703          	lw	a4,1976(a5) # b7b8 <__stack_chk_guard>
    137c:	fee42623          	sw	a4,-20(s0)
    1380:	00000713          	li	a4,0
    alt_u32 timeout = 10000;
    1384:	000027b7          	lui	a5,0x2
    1388:	71078793          	add	a5,a5,1808 # 2710 <alt_avalon_i2c_enabled_ints_get+0x38>
    138c:	fef42023          	sw	a5,-32(s0)
    ALT_AVALON_I2C_STATUS_CODE status = ALT_AVALON_I2C_SUCCESS;
    1390:	fc042e23          	sw	zero,-36(s0)


    while ((IORD_ALT_AVALON_I2C_ISR(i2c_dev->i2c_base) & ALT_AVALON_I2C_ISR_TX_READY_MSK)==0) 
    1394:	0380006f          	j	13cc <alt_avalon_i2c_cmd_write+0x88>
    {
      if (timeout<10) alt_busy_sleep(10000);    
    1398:	fe042703          	lw	a4,-32(s0)
    139c:	00900793          	li	a5,9
    13a0:	00e7e863          	bltu	a5,a4,13b0 <alt_avalon_i2c_cmd_write+0x6c>
    13a4:	000027b7          	lui	a5,0x2
    13a8:	71078513          	add	a0,a5,1808 # 2710 <alt_avalon_i2c_enabled_ints_get+0x38>
    13ac:	140020ef          	jal	34ec <alt_busy_sleep>
      if (--timeout == 0)
    13b0:	fe042783          	lw	a5,-32(s0)
    13b4:	fff78793          	add	a5,a5,-1
    13b8:	fef42023          	sw	a5,-32(s0)
    13bc:	fe042783          	lw	a5,-32(s0)
    13c0:	00079663          	bnez	a5,13cc <alt_avalon_i2c_cmd_write+0x88>
      {
        return ALT_AVALON_I2C_TIMEOUT;
    13c4:	ffe00793          	li	a5,-2
    13c8:	0780006f          	j	1440 <alt_avalon_i2c_cmd_write+0xfc>
    while ((IORD_ALT_AVALON_I2C_ISR(i2c_dev->i2c_base) & ALT_AVALON_I2C_ISR_TX_READY_MSK)==0) 
    13cc:	fcc42783          	lw	a5,-52(s0)
    13d0:	00c7a783          	lw	a5,12(a5)
    13d4:	01078793          	add	a5,a5,16
    13d8:	0007a783          	lw	a5,0(a5)
    13dc:	fef42223          	sw	a5,-28(s0)
    13e0:	fe442783          	lw	a5,-28(s0)
    13e4:	0017f793          	and	a5,a5,1
    13e8:	fa0788e3          	beqz	a5,1398 <alt_avalon_i2c_cmd_write+0x54>
      }
    }

    IOWR_ALT_AVALON_I2C_TFR_CMD(i2c_dev->i2c_base,val |
    13ec:	fcb44703          	lbu	a4,-53(s0)
    13f0:	fca44783          	lbu	a5,-54(s0)
    13f4:	00979793          	sll	a5,a5,0x9
    13f8:	00f76733          	or	a4,a4,a5
    13fc:	fc944783          	lbu	a5,-55(s0)
    1400:	00879793          	sll	a5,a5,0x8
    1404:	00f767b3          	or	a5,a4,a5
    1408:	fef42423          	sw	a5,-24(s0)
    140c:	fcc42783          	lw	a5,-52(s0)
    1410:	00c7a783          	lw	a5,12(a5)
    1414:	fe842703          	lw	a4,-24(s0)
    1418:	00e7a023          	sw	a4,0(a5)
                                     (issue_restart << ALT_AVALON_I2C_TFR_CMD_STA_OFST) |
                                     (issue_stop << ALT_AVALON_I2C_TFR_CMD_STO_OFST));


    /*check for nack error*/
    alt_avalon_i2c_check_nack(i2c_dev,&status);
    141c:	fdc40793          	add	a5,s0,-36
    1420:	00078593          	mv	a1,a5
    1424:	fcc42503          	lw	a0,-52(s0)
    1428:	1ac000ef          	jal	15d4 <alt_avalon_i2c_check_nack>
    
    /*check for arb lost*/
    alt_avalon_i2c_check_arblost(i2c_dev,&status);
    142c:	fdc40793          	add	a5,s0,-36
    1430:	00078593          	mv	a1,a5
    1434:	fcc42503          	lw	a0,-52(s0)
    1438:	1ec000ef          	jal	1624 <alt_avalon_i2c_check_arblost>
    
    return status;
    143c:	fdc42783          	lw	a5,-36(s0)
}
    1440:	00078713          	mv	a4,a5
    1444:	0000b7b7          	lui	a5,0xb
    1448:	fec42683          	lw	a3,-20(s0)
    144c:	7b87a783          	lw	a5,1976(a5) # b7b8 <__stack_chk_guard>
    1450:	00f6c7b3          	xor	a5,a3,a5
    1454:	00000693          	li	a3,0
    1458:	00078463          	beqz	a5,1460 <alt_avalon_i2c_cmd_write+0x11c>
    145c:	599030ef          	jal	51f4 <__stack_chk_fail>
    1460:	00070513          	mv	a0,a4
    1464:	03c12083          	lw	ra,60(sp)
    1468:	03812403          	lw	s0,56(sp)
    146c:	04010113          	add	sp,sp,64
    1470:	00008067          	ret

00001474 <alt_avalon_i2c_send_address>:

/*send 7 or 10 bit i2c address to cmd fifo*/
ALT_AVALON_I2C_STATUS_CODE alt_avalon_i2c_send_address(ALT_AVALON_I2C_DEV_t *i2c_dev,
                                                       const alt_u32 rw_bit,
                                                       const alt_u8 issue_restart)
{
    1474:	fd010113          	add	sp,sp,-48
    1478:	02112623          	sw	ra,44(sp)
    147c:	02812423          	sw	s0,40(sp)
    1480:	03010413          	add	s0,sp,48
    1484:	fca42e23          	sw	a0,-36(s0)
    1488:	fcb42c23          	sw	a1,-40(s0)
    148c:	00060793          	mv	a5,a2
    1490:	fcf40ba3          	sb	a5,-41(s0)
    alt_u32 status;
        
    if (i2c_dev->address_mode == ALT_AVALON_I2C_ADDR_MODE_10_BIT)
    1494:	fdc42783          	lw	a5,-36(s0)
    1498:	0347a703          	lw	a4,52(a5)
    149c:	00100793          	li	a5,1
    14a0:	06f71c63          	bne	a4,a5,1518 <alt_avalon_i2c_send_address+0xa4>
    {
       status = alt_avalon_i2c_cmd_write(i2c_dev,(((i2c_dev->master_target_address | TARGET_ADDR_MASK_10BIT) >> 7) & 0xfe) | rw_bit,issue_restart,ALT_AVALON_I2C_NO_STOP);
    14a4:	fdc42783          	lw	a5,-36(s0)
    14a8:	0247a783          	lw	a5,36(a5)
    14ac:	0077d793          	srl	a5,a5,0x7
    14b0:	0ff7f793          	zext.b	a5,a5
    14b4:	00e7f793          	and	a5,a5,14
    14b8:	0ff7f713          	zext.b	a4,a5
    14bc:	fd842783          	lw	a5,-40(s0)
    14c0:	0ff7f793          	zext.b	a5,a5
    14c4:	00f767b3          	or	a5,a4,a5
    14c8:	0ff7f793          	zext.b	a5,a5
    14cc:	ff07e793          	or	a5,a5,-16
    14d0:	0ff7f793          	zext.b	a5,a5
    14d4:	fd744703          	lbu	a4,-41(s0)
    14d8:	00000693          	li	a3,0
    14dc:	00070613          	mv	a2,a4
    14e0:	00078593          	mv	a1,a5
    14e4:	fdc42503          	lw	a0,-36(s0)
    14e8:	e5dff0ef          	jal	1344 <alt_avalon_i2c_cmd_write>
    14ec:	fea42623          	sw	a0,-20(s0)
       status = alt_avalon_i2c_cmd_write(i2c_dev,i2c_dev->master_target_address & 0xff,ALT_AVALON_I2C_NO_RESTART,ALT_AVALON_I2C_NO_STOP);      
    14f0:	fdc42783          	lw	a5,-36(s0)
    14f4:	0247a783          	lw	a5,36(a5)
    14f8:	0ff7f793          	zext.b	a5,a5
    14fc:	00000693          	li	a3,0
    1500:	00000613          	li	a2,0
    1504:	00078593          	mv	a1,a5
    1508:	fdc42503          	lw	a0,-36(s0)
    150c:	e39ff0ef          	jal	1344 <alt_avalon_i2c_cmd_write>
    1510:	fea42623          	sw	a0,-20(s0)
    1514:	0440006f          	j	1558 <alt_avalon_i2c_send_address+0xe4>
    }
    else
    {
       status = alt_avalon_i2c_cmd_write(i2c_dev,(i2c_dev->master_target_address << 1) | rw_bit,issue_restart,ALT_AVALON_I2C_NO_STOP);
    1518:	fdc42783          	lw	a5,-36(s0)
    151c:	0247a783          	lw	a5,36(a5)
    1520:	0ff7f793          	zext.b	a5,a5
    1524:	00179793          	sll	a5,a5,0x1
    1528:	0ff7f713          	zext.b	a4,a5
    152c:	fd842783          	lw	a5,-40(s0)
    1530:	0ff7f793          	zext.b	a5,a5
    1534:	00f767b3          	or	a5,a4,a5
    1538:	0ff7f793          	zext.b	a5,a5
    153c:	fd744703          	lbu	a4,-41(s0)
    1540:	00000693          	li	a3,0
    1544:	00070613          	mv	a2,a4
    1548:	00078593          	mv	a1,a5
    154c:	fdc42503          	lw	a0,-36(s0)
    1550:	df5ff0ef          	jal	1344 <alt_avalon_i2c_cmd_write>
    1554:	fea42623          	sw	a0,-20(s0)
    }
    
    return status;
    1558:	fec42783          	lw	a5,-20(s0)
}
    155c:	00078513          	mv	a0,a5
    1560:	02c12083          	lw	ra,44(sp)
    1564:	02812403          	lw	s0,40(sp)
    1568:	03010113          	add	sp,sp,48
    156c:	00008067          	ret

00001570 <alt_avalon_i2c_master_target_get>:

/* This function returns the current target address. */
void alt_avalon_i2c_master_target_get(ALT_AVALON_I2C_DEV_t * i2c_dev, alt_u32 * target_addr)
{
    1570:	fe010113          	add	sp,sp,-32
    1574:	00812e23          	sw	s0,28(sp)
    1578:	02010413          	add	s0,sp,32
    157c:	fea42623          	sw	a0,-20(s0)
    1580:	feb42423          	sw	a1,-24(s0)
    *target_addr=i2c_dev->master_target_address;
    1584:	fec42783          	lw	a5,-20(s0)
    1588:	0247a703          	lw	a4,36(a5)
    158c:	fe842783          	lw	a5,-24(s0)
    1590:	00e7a023          	sw	a4,0(a5)
}
    1594:	00000013          	nop
    1598:	01c12403          	lw	s0,28(sp)
    159c:	02010113          	add	sp,sp,32
    15a0:	00008067          	ret

000015a4 <alt_avalon_i2c_master_target_set>:

/* This function updates the target address for any upcoming I2C bus IO. */
void alt_avalon_i2c_master_target_set(ALT_AVALON_I2C_DEV_t * i2c_dev, alt_u32 target_addr)
{
    15a4:	fe010113          	add	sp,sp,-32
    15a8:	00812e23          	sw	s0,28(sp)
    15ac:	02010413          	add	s0,sp,32
    15b0:	fea42623          	sw	a0,-20(s0)
    15b4:	feb42423          	sw	a1,-24(s0)
    i2c_dev->master_target_address=target_addr;
    15b8:	fec42783          	lw	a5,-20(s0)
    15bc:	fe842703          	lw	a4,-24(s0)
    15c0:	02e7a223          	sw	a4,36(a5)
}
    15c4:	00000013          	nop
    15c8:	01c12403          	lw	s0,28(sp)
    15cc:	02010113          	add	sp,sp,32
    15d0:	00008067          	ret

000015d4 <alt_avalon_i2c_check_nack>:

/*if nack detected, status is set to ALT_AVALON_I2C_NACK_ERR*/
void alt_avalon_i2c_check_nack(ALT_AVALON_I2C_DEV_t *i2c_dev,ALT_AVALON_I2C_STATUS_CODE * status)
{    
    15d4:	fd010113          	add	sp,sp,-48
    15d8:	02812623          	sw	s0,44(sp)
    15dc:	03010413          	add	s0,sp,48
    15e0:	fca42e23          	sw	a0,-36(s0)
    15e4:	fcb42c23          	sw	a1,-40(s0)
    if (IORD_ALT_AVALON_I2C_ISR(i2c_dev->i2c_base) & ALT_AVALON_I2C_ISR_NACK_DET_MSK)
    15e8:	fdc42783          	lw	a5,-36(s0)
    15ec:	00c7a783          	lw	a5,12(a5)
    15f0:	01078793          	add	a5,a5,16
    15f4:	0007a783          	lw	a5,0(a5)
    15f8:	fef42623          	sw	a5,-20(s0)
    15fc:	fec42783          	lw	a5,-20(s0)
    1600:	0047f793          	and	a5,a5,4
    1604:	00078863          	beqz	a5,1614 <alt_avalon_i2c_check_nack+0x40>
    {
      *status=ALT_AVALON_I2C_NACK_ERR;
    1608:	fd842783          	lw	a5,-40(s0)
    160c:	ffb00713          	li	a4,-5
    1610:	00e7a023          	sw	a4,0(a5)
    }
}
    1614:	00000013          	nop
    1618:	02c12403          	lw	s0,44(sp)
    161c:	03010113          	add	sp,sp,48
    1620:	00008067          	ret

00001624 <alt_avalon_i2c_check_arblost>:

/*if arb lost is detected, status is set to ALT_AVALON_I2C_ARB_LOST_ERR*/
void alt_avalon_i2c_check_arblost(ALT_AVALON_I2C_DEV_t *i2c_dev,ALT_AVALON_I2C_STATUS_CODE * status)
{      
    1624:	fd010113          	add	sp,sp,-48
    1628:	02812623          	sw	s0,44(sp)
    162c:	03010413          	add	s0,sp,48
    1630:	fca42e23          	sw	a0,-36(s0)
    1634:	fcb42c23          	sw	a1,-40(s0)
    if (IORD_ALT_AVALON_I2C_ISR(i2c_dev->i2c_base) & ALT_AVALON_I2C_ISR_ARBLOST_DET_MSK)
    1638:	fdc42783          	lw	a5,-36(s0)
    163c:	00c7a783          	lw	a5,12(a5)
    1640:	01078793          	add	a5,a5,16
    1644:	0007a783          	lw	a5,0(a5)
    1648:	fef42623          	sw	a5,-20(s0)
    164c:	fec42783          	lw	a5,-20(s0)
    1650:	0087f793          	and	a5,a5,8
    1654:	00078863          	beqz	a5,1664 <alt_avalon_i2c_check_arblost+0x40>
    {
      *status=ALT_AVALON_I2C_ARB_LOST_ERR;
    1658:	fd842783          	lw	a5,-40(s0)
    165c:	ffa00713          	li	a4,-6
    1660:	00e7a023          	sw	a4,0(a5)
    }
}
    1664:	00000013          	nop
    1668:	02c12403          	lw	s0,44(sp)
    166c:	03010113          	add	sp,sp,48
    1670:	00008067          	ret

00001674 <alt_avalon_i2c_interrupt_transaction_status>:

ALT_AVALON_I2C_STATUS_CODE alt_avalon_i2c_interrupt_transaction_status(ALT_AVALON_I2C_DEV_t *i2c_dev)
{
    1674:	fc010113          	add	sp,sp,-64
    1678:	02112e23          	sw	ra,60(sp)
    167c:	02812c23          	sw	s0,56(sp)
    1680:	04010413          	add	s0,sp,64
    1684:	fca42623          	sw	a0,-52(s0)
    1688:	0000b7b7          	lui	a5,0xb
    168c:	7b87a703          	lw	a4,1976(a5) # b7b8 <__stack_chk_guard>
    1690:	fee42623          	sw	a4,-20(s0)
    1694:	00000713          	li	a4,0
    ALT_AVALON_I2C_STATUS_CODE status = ALT_AVALON_I2C_SUCCESS;
    1698:	fc042c23          	sw	zero,-40(s0)
    IRQ_DATA_t *irq_data = i2c_dev->callback_context;
    169c:	fcc42783          	lw	a5,-52(s0)
    16a0:	01c7a783          	lw	a5,28(a5)
    16a4:	fef42423          	sw	a5,-24(s0)
    alt_u32 timeout=10000 * irq_data->size + 10000;
    16a8:	fe842783          	lw	a5,-24(s0)
    16ac:	0047a783          	lw	a5,4(a5)
    16b0:	00178713          	add	a4,a5,1
    16b4:	00070793          	mv	a5,a4
    16b8:	00279793          	sll	a5,a5,0x2
    16bc:	00e787b3          	add	a5,a5,a4
    16c0:	00379793          	sll	a5,a5,0x3
    16c4:	40e787b3          	sub	a5,a5,a4
    16c8:	00479793          	sll	a5,a5,0x4
    16cc:	00e787b3          	add	a5,a5,a4
    16d0:	00479793          	sll	a5,a5,0x4
    16d4:	fef42223          	sw	a5,-28(s0)
    alt_u32 saveints,temp_bytes_read;
    
    /* save current enabled interrupts */
    alt_avalon_i2c_enabled_ints_get(i2c_dev,&saveints);
    16d8:	fdc40793          	add	a5,s0,-36
    16dc:	00078593          	mv	a1,a5
    16e0:	fcc42503          	lw	a0,-52(s0)
    16e4:	7f5000ef          	jal	26d8 <alt_avalon_i2c_enabled_ints_get>
    
    /* disable the enabled interrupts */
    alt_avalon_i2c_int_disable(i2c_dev,saveints);
    16e8:	fdc42783          	lw	a5,-36(s0)
    16ec:	00078593          	mv	a1,a5
    16f0:	fcc42503          	lw	a0,-52(s0)
    16f4:	6b1000ef          	jal	25a4 <alt_avalon_i2c_int_disable>
    
    alt_avalon_i2c_check_nack(i2c_dev,&status);
    16f8:	fd840793          	add	a5,s0,-40
    16fc:	00078593          	mv	a1,a5
    1700:	fcc42503          	lw	a0,-52(s0)
    1704:	ed1ff0ef          	jal	15d4 <alt_avalon_i2c_check_nack>

    if (status!=ALT_AVALON_I2C_SUCCESS)
    1708:	fd842783          	lw	a5,-40(s0)
    170c:	08078a63          	beqz	a5,17a0 <alt_avalon_i2c_interrupt_transaction_status+0x12c>
    {
      if (irq_data->irq_busy)
    1710:	fe842783          	lw	a5,-24(s0)
    1714:	0087a783          	lw	a5,8(a5)
    1718:	08078063          	beqz	a5,1798 <alt_avalon_i2c_interrupt_transaction_status+0x124>
      {
        while (alt_avalon_i2c_is_busy(i2c_dev))
    171c:	03c0006f          	j	1758 <alt_avalon_i2c_interrupt_transaction_status+0xe4>
        {
              if (timeout<10) alt_busy_sleep(10000);
    1720:	fe442703          	lw	a4,-28(s0)
    1724:	00900793          	li	a5,9
    1728:	00e7e863          	bltu	a5,a4,1738 <alt_avalon_i2c_interrupt_transaction_status+0xc4>
    172c:	000027b7          	lui	a5,0x2
    1730:	71078513          	add	a0,a5,1808 # 2710 <alt_avalon_i2c_enabled_ints_get+0x38>
    1734:	5b9010ef          	jal	34ec <alt_busy_sleep>
              if (--timeout == 0)
    1738:	fe442783          	lw	a5,-28(s0)
    173c:	fff78793          	add	a5,a5,-1
    1740:	fef42223          	sw	a5,-28(s0)
    1744:	fe442783          	lw	a5,-28(s0)
    1748:	00079863          	bnez	a5,1758 <alt_avalon_i2c_interrupt_transaction_status+0xe4>
              {
                 status = ALT_AVALON_I2C_TIMEOUT;
    174c:	ffe00793          	li	a5,-2
    1750:	fcf42c23          	sw	a5,-40(s0)
                 break;
    1754:	0140006f          	j	1768 <alt_avalon_i2c_interrupt_transaction_status+0xf4>
        while (alt_avalon_i2c_is_busy(i2c_dev))
    1758:	fcc42503          	lw	a0,-52(s0)
    175c:	a29ff0ef          	jal	1184 <alt_avalon_i2c_is_busy>
    1760:	00050793          	mv	a5,a0
    1764:	fa079ee3          	bnez	a5,1720 <alt_avalon_i2c_interrupt_transaction_status+0xac>
              }
        }
          
        /*clear any rx entries */
        alt_avalon_i2c_rx_read_available(i2c_dev, irq_data->buffer,0,&temp_bytes_read);
    1768:	fe842783          	lw	a5,-24(s0)
    176c:	0007a783          	lw	a5,0(a5)
    1770:	fe040713          	add	a4,s0,-32
    1774:	00070693          	mv	a3,a4
    1778:	00000613          	li	a2,0
    177c:	00078593          	mv	a1,a5
    1780:	fcc42503          	lw	a0,-52(s0)
    1784:	a4dff0ef          	jal	11d0 <alt_avalon_i2c_rx_read_available>
       
        /*disable the ip.  The ip is disabled and enabled for each transaction. */
        alt_avalon_i2c_disable(i2c_dev);
    1788:	fcc42503          	lw	a0,-52(s0)
    178c:	e4cff0ef          	jal	dd8 <alt_avalon_i2c_disable>
          
        /*abort the transaction */
        irq_data->irq_busy=0;
    1790:	fe842783          	lw	a5,-24(s0)
    1794:	0007a423          	sw	zero,8(a5)
      }
      
      /*return nack error so transaction can be retried*/
      return status;
    1798:	fd842783          	lw	a5,-40(s0)
    179c:	02c0006f          	j	17c8 <alt_avalon_i2c_interrupt_transaction_status+0x154>
    }
    
    if (irq_data->irq_busy)
    17a0:	fe842783          	lw	a5,-24(s0)
    17a4:	0087a783          	lw	a5,8(a5)
    17a8:	00078e63          	beqz	a5,17c4 <alt_avalon_i2c_interrupt_transaction_status+0x150>
    {
        /*re-enable the interrupts*/
        alt_avalon_i2c_int_enable(i2c_dev,saveints);
    17ac:	fdc42783          	lw	a5,-36(s0)
    17b0:	00078593          	mv	a1,a5
    17b4:	fcc42503          	lw	a0,-52(s0)
    17b8:	689000ef          	jal	2640 <alt_avalon_i2c_int_enable>
        
        /*return transaction still busy*/
        return ALT_AVALON_I2C_BUSY;
    17bc:	ff900793          	li	a5,-7
    17c0:	0080006f          	j	17c8 <alt_avalon_i2c_interrupt_transaction_status+0x154>
    }
    
    /*return transaction completed status, ok to do another transaction*/
    return ALT_AVALON_I2C_SUCCESS;
    17c4:	00000793          	li	a5,0
}
    17c8:	00078713          	mv	a4,a5
    17cc:	0000b7b7          	lui	a5,0xb
    17d0:	fec42683          	lw	a3,-20(s0)
    17d4:	7b87a783          	lw	a5,1976(a5) # b7b8 <__stack_chk_guard>
    17d8:	00f6c7b3          	xor	a5,a3,a5
    17dc:	00000693          	li	a3,0
    17e0:	00078463          	beqz	a5,17e8 <alt_avalon_i2c_interrupt_transaction_status+0x174>
    17e4:	211030ef          	jal	51f4 <__stack_chk_fail>
    17e8:	00070513          	mv	a0,a4
    17ec:	03c12083          	lw	ra,60(sp)
    17f0:	03812403          	lw	s0,56(sp)
    17f4:	04010113          	add	sp,sp,64
    17f8:	00008067          	ret

000017fc <alt_avalon_i2c_master_tx>:
/*transmit function with retry and optionally interrupts*/
ALT_AVALON_I2C_STATUS_CODE alt_avalon_i2c_master_tx(ALT_AVALON_I2C_DEV_t *i2c_dev,
                                       const alt_u8 * buffer,
                                       const alt_u32 size,
                                       const alt_u8 use_interrupts)
{
    17fc:	fd010113          	add	sp,sp,-48
    1800:	02112623          	sw	ra,44(sp)
    1804:	02812423          	sw	s0,40(sp)
    1808:	03010413          	add	s0,sp,48
    180c:	fca42e23          	sw	a0,-36(s0)
    1810:	fcb42c23          	sw	a1,-40(s0)
    1814:	fcc42a23          	sw	a2,-44(s0)
    1818:	00068793          	mv	a5,a3
    181c:	fcf409a3          	sb	a5,-45(s0)
    ALT_AVALON_I2C_STATUS_CODE status;
    alt_u32 retry=10000;  
    1820:	000027b7          	lui	a5,0x2
    1824:	71078793          	add	a5,a5,1808 # 2710 <alt_avalon_i2c_enabled_ints_get+0x38>
    1828:	fef42623          	sw	a5,-20(s0)
    
    while (retry--)
    182c:	0880006f          	j	18b4 <alt_avalon_i2c_master_tx+0xb8>
    {
      if (retry<10) alt_busy_sleep(10000);
    1830:	fec42703          	lw	a4,-20(s0)
    1834:	00900793          	li	a5,9
    1838:	00e7e863          	bltu	a5,a4,1848 <alt_avalon_i2c_master_tx+0x4c>
    183c:	000027b7          	lui	a5,0x2
    1840:	71078513          	add	a0,a5,1808 # 2710 <alt_avalon_i2c_enabled_ints_get+0x38>
    1844:	4a9010ef          	jal	34ec <alt_busy_sleep>
      if (use_interrupts)
    1848:	fd344783          	lbu	a5,-45(s0)
    184c:	02078263          	beqz	a5,1870 <alt_avalon_i2c_master_tx+0x74>
      {
         status = alt_avalon_i2c_master_transmit_using_interrupts(i2c_dev, buffer, size, ALT_AVALON_I2C_NO_RESTART, ALT_AVALON_I2C_STOP); 
    1850:	00100713          	li	a4,1
    1854:	00000693          	li	a3,0
    1858:	fd442603          	lw	a2,-44(s0)
    185c:	fd842583          	lw	a1,-40(s0)
    1860:	fdc42503          	lw	a0,-36(s0)
    1864:	5b4000ef          	jal	1e18 <alt_avalon_i2c_master_transmit_using_interrupts>
    1868:	fea42423          	sw	a0,-24(s0)
    186c:	0200006f          	j	188c <alt_avalon_i2c_master_tx+0x90>
      }
      else
      {
         status = alt_avalon_i2c_master_transmit(i2c_dev, buffer, size, ALT_AVALON_I2C_NO_RESTART, ALT_AVALON_I2C_STOP);
    1870:	00100713          	li	a4,1
    1874:	00000693          	li	a3,0
    1878:	fd442603          	lw	a2,-44(s0)
    187c:	fd842583          	lw	a1,-40(s0)
    1880:	fdc42503          	lw	a0,-36(s0)
    1884:	37c000ef          	jal	1c00 <alt_avalon_i2c_master_transmit>
    1888:	fea42423          	sw	a0,-24(s0)
      }
      if ((status==ALT_AVALON_I2C_ARB_LOST_ERR) || (status==ALT_AVALON_I2C_NACK_ERR) || (status==ALT_AVALON_I2C_BUSY)) continue;
    188c:	fe842703          	lw	a4,-24(s0)
    1890:	ffa00793          	li	a5,-6
    1894:	00f70e63          	beq	a4,a5,18b0 <alt_avalon_i2c_master_tx+0xb4>
    1898:	fe842703          	lw	a4,-24(s0)
    189c:	ffb00793          	li	a5,-5
    18a0:	00f70863          	beq	a4,a5,18b0 <alt_avalon_i2c_master_tx+0xb4>
    18a4:	fe842703          	lw	a4,-24(s0)
    18a8:	ff900793          	li	a5,-7
    18ac:	00f71e63          	bne	a4,a5,18c8 <alt_avalon_i2c_master_tx+0xcc>
    18b0:	00000013          	nop
    while (retry--)
    18b4:	fec42783          	lw	a5,-20(s0)
    18b8:	fff78713          	add	a4,a5,-1
    18bc:	fee42623          	sw	a4,-20(s0)
    18c0:	f60798e3          	bnez	a5,1830 <alt_avalon_i2c_master_tx+0x34>
    18c4:	0080006f          	j	18cc <alt_avalon_i2c_master_tx+0xd0>
      break;
    18c8:	00000013          	nop
    }

    return status;
    18cc:	fe842783          	lw	a5,-24(s0)
}        
    18d0:	00078513          	mv	a0,a5
    18d4:	02c12083          	lw	ra,44(sp)
    18d8:	02812403          	lw	s0,40(sp)
    18dc:	03010113          	add	sp,sp,48
    18e0:	00008067          	ret

000018e4 <alt_avalon_i2c_master_rx>:
/*receive function with retry and optionally interrupts*/
ALT_AVALON_I2C_STATUS_CODE alt_avalon_i2c_master_rx(ALT_AVALON_I2C_DEV_t *i2c_dev,
                                       alt_u8 * buffer,
                                       const alt_u32 size,
                                       const alt_u8 use_interrupts)
{
    18e4:	fd010113          	add	sp,sp,-48
    18e8:	02112623          	sw	ra,44(sp)
    18ec:	02812423          	sw	s0,40(sp)
    18f0:	03010413          	add	s0,sp,48
    18f4:	fca42e23          	sw	a0,-36(s0)
    18f8:	fcb42c23          	sw	a1,-40(s0)
    18fc:	fcc42a23          	sw	a2,-44(s0)
    1900:	00068793          	mv	a5,a3
    1904:	fcf409a3          	sb	a5,-45(s0)
    ALT_AVALON_I2C_STATUS_CODE status;
    alt_u32 retry=10000;  
    1908:	000027b7          	lui	a5,0x2
    190c:	71078793          	add	a5,a5,1808 # 2710 <alt_avalon_i2c_enabled_ints_get+0x38>
    1910:	fef42623          	sw	a5,-20(s0)
    
    if (use_interrupts) 
    1914:	fd344783          	lbu	a5,-45(s0)
    1918:	0c078a63          	beqz	a5,19ec <alt_avalon_i2c_master_rx+0x108>
    {
      while (retry--) 
    191c:	0600006f          	j	197c <alt_avalon_i2c_master_rx+0x98>
      {
        if (retry<10) alt_busy_sleep(10000);      
    1920:	fec42703          	lw	a4,-20(s0)
    1924:	00900793          	li	a5,9
    1928:	00e7e863          	bltu	a5,a4,1938 <alt_avalon_i2c_master_rx+0x54>
    192c:	000027b7          	lui	a5,0x2
    1930:	71078513          	add	a0,a5,1808 # 2710 <alt_avalon_i2c_enabled_ints_get+0x38>
    1934:	3b9010ef          	jal	34ec <alt_busy_sleep>
        status = alt_avalon_i2c_master_receive_using_interrupts(i2c_dev, buffer, size, ALT_AVALON_I2C_NO_RESTART, ALT_AVALON_I2C_STOP);     
    1938:	00100713          	li	a4,1
    193c:	00000693          	li	a3,0
    1940:	fd442603          	lw	a2,-44(s0)
    1944:	fd842583          	lw	a1,-40(s0)
    1948:	fdc42503          	lw	a0,-36(s0)
    194c:	165000ef          	jal	22b0 <alt_avalon_i2c_master_receive_using_interrupts>
    1950:	fea42423          	sw	a0,-24(s0)
        if ((status==ALT_AVALON_I2C_ARB_LOST_ERR) || (status==ALT_AVALON_I2C_NACK_ERR) || (status==ALT_AVALON_I2C_BUSY)) continue;
    1954:	fe842703          	lw	a4,-24(s0)
    1958:	ffa00793          	li	a5,-6
    195c:	00f70e63          	beq	a4,a5,1978 <alt_avalon_i2c_master_rx+0x94>
    1960:	fe842703          	lw	a4,-24(s0)
    1964:	ffb00793          	li	a5,-5
    1968:	00f70863          	beq	a4,a5,1978 <alt_avalon_i2c_master_rx+0x94>
    196c:	fe842703          	lw	a4,-24(s0)
    1970:	ff900793          	li	a5,-7
    1974:	08f71663          	bne	a4,a5,1a00 <alt_avalon_i2c_master_rx+0x11c>
    1978:	00000013          	nop
      while (retry--) 
    197c:	fec42783          	lw	a5,-20(s0)
    1980:	fff78713          	add	a4,a5,-1
    1984:	fee42623          	sw	a4,-20(s0)
    1988:	f8079ce3          	bnez	a5,1920 <alt_avalon_i2c_master_rx+0x3c>
    198c:	0800006f          	j	1a0c <alt_avalon_i2c_master_rx+0x128>
    }
    else
    {
      while (retry--) 
      {
        if (retry<10) alt_busy_sleep(10000);      
    1990:	fec42703          	lw	a4,-20(s0)
    1994:	00900793          	li	a5,9
    1998:	00e7e863          	bltu	a5,a4,19a8 <alt_avalon_i2c_master_rx+0xc4>
    199c:	000027b7          	lui	a5,0x2
    19a0:	71078513          	add	a0,a5,1808 # 2710 <alt_avalon_i2c_enabled_ints_get+0x38>
    19a4:	349010ef          	jal	34ec <alt_busy_sleep>
        status = alt_avalon_i2c_master_receive(i2c_dev, buffer, size, ALT_AVALON_I2C_NO_RESTART, ALT_AVALON_I2C_STOP);     
    19a8:	00100713          	li	a4,1
    19ac:	00000693          	li	a3,0
    19b0:	fd442603          	lw	a2,-44(s0)
    19b4:	fd842583          	lw	a1,-40(s0)
    19b8:	fdc42503          	lw	a0,-36(s0)
    19bc:	680000ef          	jal	203c <alt_avalon_i2c_master_receive>
    19c0:	fea42423          	sw	a0,-24(s0)
        if ((status==ALT_AVALON_I2C_ARB_LOST_ERR) || (status==ALT_AVALON_I2C_NACK_ERR) || (status==ALT_AVALON_I2C_BUSY)) continue;
    19c4:	fe842703          	lw	a4,-24(s0)
    19c8:	ffa00793          	li	a5,-6
    19cc:	00f70e63          	beq	a4,a5,19e8 <alt_avalon_i2c_master_rx+0x104>
    19d0:	fe842703          	lw	a4,-24(s0)
    19d4:	ffb00793          	li	a5,-5
    19d8:	00f70863          	beq	a4,a5,19e8 <alt_avalon_i2c_master_rx+0x104>
    19dc:	fe842703          	lw	a4,-24(s0)
    19e0:	ff900793          	li	a5,-7
    19e4:	02f71263          	bne	a4,a5,1a08 <alt_avalon_i2c_master_rx+0x124>
    19e8:	00000013          	nop
      while (retry--) 
    19ec:	fec42783          	lw	a5,-20(s0)
    19f0:	fff78713          	add	a4,a5,-1
    19f4:	fee42623          	sw	a4,-20(s0)
    19f8:	f8079ce3          	bnez	a5,1990 <alt_avalon_i2c_master_rx+0xac>
    19fc:	0100006f          	j	1a0c <alt_avalon_i2c_master_rx+0x128>
        break;
    1a00:	00000013          	nop
    1a04:	0080006f          	j	1a0c <alt_avalon_i2c_master_rx+0x128>
        break;
    1a08:	00000013          	nop
      }
    }
    
    return status;
    1a0c:	fe842783          	lw	a5,-24(s0)
}        
    1a10:	00078513          	mv	a0,a5
    1a14:	02c12083          	lw	ra,44(sp)
    1a18:	02812403          	lw	s0,40(sp)
    1a1c:	03010113          	add	sp,sp,48
    1a20:	00008067          	ret

00001a24 <alt_avalon_i2c_master_tx_rx>:
                                       const alt_u8 * txbuffer,
                                       const alt_u32 txsize,
                                       alt_u8 * rxbuffer,
                                       const alt_u32 rxsize,
                                       const alt_u8 use_interrupts)                                       
{
    1a24:	fc010113          	add	sp,sp,-64
    1a28:	02112e23          	sw	ra,60(sp)
    1a2c:	02812c23          	sw	s0,56(sp)
    1a30:	04010413          	add	s0,sp,64
    1a34:	fca42e23          	sw	a0,-36(s0)
    1a38:	fcb42c23          	sw	a1,-40(s0)
    1a3c:	fcc42a23          	sw	a2,-44(s0)
    1a40:	fcd42823          	sw	a3,-48(s0)
    1a44:	fce42623          	sw	a4,-52(s0)
    1a48:	fcf405a3          	sb	a5,-53(s0)
    ALT_AVALON_I2C_STATUS_CODE status;
    alt_u32 retry=10000;  
    1a4c:	000027b7          	lui	a5,0x2
    1a50:	71078793          	add	a5,a5,1808 # 2710 <alt_avalon_i2c_enabled_ints_get+0x38>
    1a54:	fef42623          	sw	a5,-20(s0)
    
    if (use_interrupts)
    1a58:	fcb44783          	lbu	a5,-53(s0)
    1a5c:	16078663          	beqz	a5,1bc8 <alt_avalon_i2c_master_tx_rx+0x1a4>
    {
      while (retry--) 
    1a60:	0ac0006f          	j	1b0c <alt_avalon_i2c_master_tx_rx+0xe8>
      {
        if (retry<10) alt_busy_sleep(10000);      
    1a64:	fec42703          	lw	a4,-20(s0)
    1a68:	00900793          	li	a5,9
    1a6c:	00e7e863          	bltu	a5,a4,1a7c <alt_avalon_i2c_master_tx_rx+0x58>
    1a70:	000027b7          	lui	a5,0x2
    1a74:	71078513          	add	a0,a5,1808 # 2710 <alt_avalon_i2c_enabled_ints_get+0x38>
    1a78:	275010ef          	jal	34ec <alt_busy_sleep>
        status = alt_avalon_i2c_master_transmit_using_interrupts(i2c_dev, txbuffer, txsize, ALT_AVALON_I2C_NO_RESTART, ALT_AVALON_I2C_NO_STOP);     
    1a7c:	00000713          	li	a4,0
    1a80:	00000693          	li	a3,0
    1a84:	fd442603          	lw	a2,-44(s0)
    1a88:	fd842583          	lw	a1,-40(s0)
    1a8c:	fdc42503          	lw	a0,-36(s0)
    1a90:	388000ef          	jal	1e18 <alt_avalon_i2c_master_transmit_using_interrupts>
    1a94:	fea42423          	sw	a0,-24(s0)
        if ((status==ALT_AVALON_I2C_ARB_LOST_ERR) || (status==ALT_AVALON_I2C_NACK_ERR) || (status==ALT_AVALON_I2C_BUSY)) continue;
    1a98:	fe842703          	lw	a4,-24(s0)
    1a9c:	ffa00793          	li	a5,-6
    1aa0:	06f70063          	beq	a4,a5,1b00 <alt_avalon_i2c_master_tx_rx+0xdc>
    1aa4:	fe842703          	lw	a4,-24(s0)
    1aa8:	ffb00793          	li	a5,-5
    1aac:	04f70a63          	beq	a4,a5,1b00 <alt_avalon_i2c_master_tx_rx+0xdc>
    1ab0:	fe842703          	lw	a4,-24(s0)
    1ab4:	ff900793          	li	a5,-7
    1ab8:	04f70463          	beq	a4,a5,1b00 <alt_avalon_i2c_master_tx_rx+0xdc>
  
        status = alt_avalon_i2c_master_receive_using_interrupts(i2c_dev, rxbuffer, rxsize, ALT_AVALON_I2C_RESTART, ALT_AVALON_I2C_STOP);     
    1abc:	00100713          	li	a4,1
    1ac0:	00100693          	li	a3,1
    1ac4:	fcc42603          	lw	a2,-52(s0)
    1ac8:	fd042583          	lw	a1,-48(s0)
    1acc:	fdc42503          	lw	a0,-36(s0)
    1ad0:	7e0000ef          	jal	22b0 <alt_avalon_i2c_master_receive_using_interrupts>
    1ad4:	fea42423          	sw	a0,-24(s0)
        if ((status==ALT_AVALON_I2C_ARB_LOST_ERR) || (status==ALT_AVALON_I2C_NACK_ERR) || (status==ALT_AVALON_I2C_BUSY)) continue;
    1ad8:	fe842703          	lw	a4,-24(s0)
    1adc:	ffa00793          	li	a5,-6
    1ae0:	02f70463          	beq	a4,a5,1b08 <alt_avalon_i2c_master_tx_rx+0xe4>
    1ae4:	fe842703          	lw	a4,-24(s0)
    1ae8:	ffb00793          	li	a5,-5
    1aec:	00f70e63          	beq	a4,a5,1b08 <alt_avalon_i2c_master_tx_rx+0xe4>
    1af0:	fe842703          	lw	a4,-24(s0)
    1af4:	ff900793          	li	a5,-7
    1af8:	0ef71263          	bne	a4,a5,1bdc <alt_avalon_i2c_master_tx_rx+0x1b8>
    1afc:	00c0006f          	j	1b08 <alt_avalon_i2c_master_tx_rx+0xe4>
        if ((status==ALT_AVALON_I2C_ARB_LOST_ERR) || (status==ALT_AVALON_I2C_NACK_ERR) || (status==ALT_AVALON_I2C_BUSY)) continue;
    1b00:	00000013          	nop
    1b04:	0080006f          	j	1b0c <alt_avalon_i2c_master_tx_rx+0xe8>
        if ((status==ALT_AVALON_I2C_ARB_LOST_ERR) || (status==ALT_AVALON_I2C_NACK_ERR) || (status==ALT_AVALON_I2C_BUSY)) continue;
    1b08:	00000013          	nop
      while (retry--) 
    1b0c:	fec42783          	lw	a5,-20(s0)
    1b10:	fff78713          	add	a4,a5,-1
    1b14:	fee42623          	sw	a4,-20(s0)
    1b18:	f40796e3          	bnez	a5,1a64 <alt_avalon_i2c_master_tx_rx+0x40>
    1b1c:	0cc0006f          	j	1be8 <alt_avalon_i2c_master_tx_rx+0x1c4>
    }
    else 
    {
      while (retry--) 
      {
        if (retry<10) alt_busy_sleep(10000);      
    1b20:	fec42703          	lw	a4,-20(s0)
    1b24:	00900793          	li	a5,9
    1b28:	00e7e863          	bltu	a5,a4,1b38 <alt_avalon_i2c_master_tx_rx+0x114>
    1b2c:	000027b7          	lui	a5,0x2
    1b30:	71078513          	add	a0,a5,1808 # 2710 <alt_avalon_i2c_enabled_ints_get+0x38>
    1b34:	1b9010ef          	jal	34ec <alt_busy_sleep>
        status = alt_avalon_i2c_master_transmit(i2c_dev, txbuffer, txsize, ALT_AVALON_I2C_NO_RESTART, ALT_AVALON_I2C_NO_STOP);     
    1b38:	00000713          	li	a4,0
    1b3c:	00000693          	li	a3,0
    1b40:	fd442603          	lw	a2,-44(s0)
    1b44:	fd842583          	lw	a1,-40(s0)
    1b48:	fdc42503          	lw	a0,-36(s0)
    1b4c:	0b4000ef          	jal	1c00 <alt_avalon_i2c_master_transmit>
    1b50:	fea42423          	sw	a0,-24(s0)
        if ((status==ALT_AVALON_I2C_ARB_LOST_ERR) || (status==ALT_AVALON_I2C_NACK_ERR) || (status==ALT_AVALON_I2C_BUSY)) continue;
    1b54:	fe842703          	lw	a4,-24(s0)
    1b58:	ffa00793          	li	a5,-6
    1b5c:	06f70063          	beq	a4,a5,1bbc <alt_avalon_i2c_master_tx_rx+0x198>
    1b60:	fe842703          	lw	a4,-24(s0)
    1b64:	ffb00793          	li	a5,-5
    1b68:	04f70a63          	beq	a4,a5,1bbc <alt_avalon_i2c_master_tx_rx+0x198>
    1b6c:	fe842703          	lw	a4,-24(s0)
    1b70:	ff900793          	li	a5,-7
    1b74:	04f70463          	beq	a4,a5,1bbc <alt_avalon_i2c_master_tx_rx+0x198>

        status = alt_avalon_i2c_master_receive(i2c_dev, rxbuffer, rxsize, ALT_AVALON_I2C_RESTART, ALT_AVALON_I2C_STOP);     
    1b78:	00100713          	li	a4,1
    1b7c:	00100693          	li	a3,1
    1b80:	fcc42603          	lw	a2,-52(s0)
    1b84:	fd042583          	lw	a1,-48(s0)
    1b88:	fdc42503          	lw	a0,-36(s0)
    1b8c:	4b0000ef          	jal	203c <alt_avalon_i2c_master_receive>
    1b90:	fea42423          	sw	a0,-24(s0)
        if ((status==ALT_AVALON_I2C_ARB_LOST_ERR) || (status==ALT_AVALON_I2C_NACK_ERR) || (status==ALT_AVALON_I2C_BUSY)) continue;
    1b94:	fe842703          	lw	a4,-24(s0)
    1b98:	ffa00793          	li	a5,-6
    1b9c:	02f70463          	beq	a4,a5,1bc4 <alt_avalon_i2c_master_tx_rx+0x1a0>
    1ba0:	fe842703          	lw	a4,-24(s0)
    1ba4:	ffb00793          	li	a5,-5
    1ba8:	00f70e63          	beq	a4,a5,1bc4 <alt_avalon_i2c_master_tx_rx+0x1a0>
    1bac:	fe842703          	lw	a4,-24(s0)
    1bb0:	ff900793          	li	a5,-7
    1bb4:	02f71863          	bne	a4,a5,1be4 <alt_avalon_i2c_master_tx_rx+0x1c0>
    1bb8:	00c0006f          	j	1bc4 <alt_avalon_i2c_master_tx_rx+0x1a0>
        if ((status==ALT_AVALON_I2C_ARB_LOST_ERR) || (status==ALT_AVALON_I2C_NACK_ERR) || (status==ALT_AVALON_I2C_BUSY)) continue;
    1bbc:	00000013          	nop
    1bc0:	0080006f          	j	1bc8 <alt_avalon_i2c_master_tx_rx+0x1a4>
        if ((status==ALT_AVALON_I2C_ARB_LOST_ERR) || (status==ALT_AVALON_I2C_NACK_ERR) || (status==ALT_AVALON_I2C_BUSY)) continue;
    1bc4:	00000013          	nop
      while (retry--) 
    1bc8:	fec42783          	lw	a5,-20(s0)
    1bcc:	fff78713          	add	a4,a5,-1
    1bd0:	fee42623          	sw	a4,-20(s0)
    1bd4:	f40796e3          	bnez	a5,1b20 <alt_avalon_i2c_master_tx_rx+0xfc>
    1bd8:	0100006f          	j	1be8 <alt_avalon_i2c_master_tx_rx+0x1c4>
        break;
    1bdc:	00000013          	nop
    1be0:	0080006f          	j	1be8 <alt_avalon_i2c_master_tx_rx+0x1c4>
  
        break;
    1be4:	00000013          	nop
      }
    }
    
    return status;
    1be8:	fe842783          	lw	a5,-24(s0)
}                                       
    1bec:	00078513          	mv	a0,a5
    1bf0:	03c12083          	lw	ra,60(sp)
    1bf4:	03812403          	lw	s0,56(sp)
    1bf8:	04010113          	add	sp,sp,64
    1bfc:	00008067          	ret

00001c00 <alt_avalon_i2c_master_transmit>:
ALT_AVALON_I2C_STATUS_CODE alt_avalon_i2c_master_transmit(ALT_AVALON_I2C_DEV_t *i2c_dev,
                                        const alt_u8 * buffer,
                                        alt_u32 size,
                                        const alt_u8 issue_restart,
                                        const alt_u8 issue_stop)
{
    1c00:	fd010113          	add	sp,sp,-48
    1c04:	02112623          	sw	ra,44(sp)
    1c08:	02812423          	sw	s0,40(sp)
    1c0c:	03010413          	add	s0,sp,48
    1c10:	fca42e23          	sw	a0,-36(s0)
    1c14:	fcb42c23          	sw	a1,-40(s0)
    1c18:	fcc42a23          	sw	a2,-44(s0)
    1c1c:	00068793          	mv	a5,a3
    1c20:	fcf409a3          	sb	a5,-45(s0)
    1c24:	00070793          	mv	a5,a4
    1c28:	fcf40923          	sb	a5,-46(s0)
    1c2c:	0000b7b7          	lui	a5,0xb
    1c30:	7b87a703          	lw	a4,1976(a5) # b7b8 <__stack_chk_guard>
    1c34:	fee42623          	sw	a4,-20(s0)
    1c38:	00000713          	li	a4,0
    ALT_AVALON_I2C_STATUS_CODE status = ALT_AVALON_I2C_SUCCESS;
    1c3c:	fe042223          	sw	zero,-28(s0)
    alt_u32 timeout=size * 10000;
    1c40:	fd442703          	lw	a4,-44(s0)
    1c44:	00070793          	mv	a5,a4
    1c48:	00279793          	sll	a5,a5,0x2
    1c4c:	00e787b3          	add	a5,a5,a4
    1c50:	00379793          	sll	a5,a5,0x3
    1c54:	40e787b3          	sub	a5,a5,a4
    1c58:	00479793          	sll	a5,a5,0x4
    1c5c:	00e787b3          	add	a5,a5,a4
    1c60:	00479793          	sll	a5,a5,0x4
    1c64:	fef42423          	sw	a5,-24(s0)
    
    if (size==0)
    1c68:	fd442783          	lw	a5,-44(s0)
    1c6c:	00079663          	bnez	a5,1c78 <alt_avalon_i2c_master_transmit+0x78>
    {
      return ALT_AVALON_I2C_SUCCESS;
    1c70:	00000793          	li	a5,0
    1c74:	1700006f          	j	1de4 <alt_avalon_i2c_master_transmit+0x1e4>
    }
    
    /*if a new transaction, enable ip and clear int status*/
    if (!issue_restart) 
    1c78:	fd344783          	lbu	a5,-45(s0)
    1c7c:	02079863          	bnez	a5,1cac <alt_avalon_i2c_master_transmit+0xac>
    {
      /*enable the ip.  The ip is disabled and enabled for each transaction.*/
      status = alt_avalon_i2c_enable(i2c_dev);
    1c80:	fdc42503          	lw	a0,-36(s0)
    1c84:	8a4ff0ef          	jal	d28 <alt_avalon_i2c_enable>
    1c88:	00050793          	mv	a5,a0
    1c8c:	fef42223          	sw	a5,-28(s0)
      if (status != ALT_AVALON_I2C_SUCCESS)
    1c90:	fe442783          	lw	a5,-28(s0)
    1c94:	00078663          	beqz	a5,1ca0 <alt_avalon_i2c_master_transmit+0xa0>
      {
        return status;
    1c98:	fe442783          	lw	a5,-28(s0)
    1c9c:	1480006f          	j	1de4 <alt_avalon_i2c_master_transmit+0x1e4>
      }

      /*Clear the ISR reg*/
      alt_avalon_i2c_int_clear(i2c_dev,ALT_AVALON_I2C_ISR_ALL_CLEARABLE_INTS_MSK);
    1ca0:	01c00593          	li	a1,28
    1ca4:	fdc42503          	lw	a0,-36(s0)
    1ca8:	0bd000ef          	jal	2564 <alt_avalon_i2c_int_clear>
    }

    /*Start Write, transmit address. */
    status = alt_avalon_i2c_send_address(i2c_dev,ALT_AVALON_I2C_WRITE,issue_restart);
    1cac:	fd344783          	lbu	a5,-45(s0)
    1cb0:	00078613          	mv	a2,a5
    1cb4:	00000593          	li	a1,0
    1cb8:	fdc42503          	lw	a0,-36(s0)
    1cbc:	fb8ff0ef          	jal	1474 <alt_avalon_i2c_send_address>
    1cc0:	00050793          	mv	a5,a0
    1cc4:	fef42223          	sw	a5,-28(s0)
      
    if (status == ALT_AVALON_I2C_SUCCESS)
    1cc8:	fe442783          	lw	a5,-28(s0)
    1ccc:	0a079063          	bnez	a5,1d6c <alt_avalon_i2c_master_transmit+0x16c>
    {
        while ((size > 1) && (status == ALT_AVALON_I2C_SUCCESS))
    1cd0:	0400006f          	j	1d10 <alt_avalon_i2c_master_transmit+0x110>
        {
            status = alt_avalon_i2c_cmd_write(i2c_dev, *buffer, ALT_AVALON_I2C_NO_RESTART, ALT_AVALON_I2C_NO_STOP);
    1cd4:	fd842783          	lw	a5,-40(s0)
    1cd8:	0007c783          	lbu	a5,0(a5)
    1cdc:	00000693          	li	a3,0
    1ce0:	00000613          	li	a2,0
    1ce4:	00078593          	mv	a1,a5
    1ce8:	fdc42503          	lw	a0,-36(s0)
    1cec:	e58ff0ef          	jal	1344 <alt_avalon_i2c_cmd_write>
    1cf0:	00050793          	mv	a5,a0
    1cf4:	fef42223          	sw	a5,-28(s0)
            
            ++buffer;
    1cf8:	fd842783          	lw	a5,-40(s0)
    1cfc:	00178793          	add	a5,a5,1
    1d00:	fcf42c23          	sw	a5,-40(s0)
            --size;
    1d04:	fd442783          	lw	a5,-44(s0)
    1d08:	fff78793          	add	a5,a5,-1
    1d0c:	fcf42a23          	sw	a5,-44(s0)
        while ((size > 1) && (status == ALT_AVALON_I2C_SUCCESS))
    1d10:	fd442703          	lw	a4,-44(s0)
    1d14:	00100793          	li	a5,1
    1d18:	00e7f663          	bgeu	a5,a4,1d24 <alt_avalon_i2c_master_transmit+0x124>
    1d1c:	fe442783          	lw	a5,-28(s0)
    1d20:	fa078ae3          	beqz	a5,1cd4 <alt_avalon_i2c_master_transmit+0xd4>
        }

        /* Last byte */
        if (status == ALT_AVALON_I2C_SUCCESS)
    1d24:	fe442783          	lw	a5,-28(s0)
    1d28:	04079263          	bnez	a5,1d6c <alt_avalon_i2c_master_transmit+0x16c>
        {
            status = alt_avalon_i2c_cmd_write(i2c_dev, *buffer, ALT_AVALON_I2C_NO_RESTART, issue_stop);
    1d2c:	fd842783          	lw	a5,-40(s0)
    1d30:	0007c783          	lbu	a5,0(a5)
    1d34:	fd244703          	lbu	a4,-46(s0)
    1d38:	00070693          	mv	a3,a4
    1d3c:	00000613          	li	a2,0
    1d40:	00078593          	mv	a1,a5
    1d44:	fdc42503          	lw	a0,-36(s0)
    1d48:	dfcff0ef          	jal	1344 <alt_avalon_i2c_cmd_write>
    1d4c:	00050793          	mv	a5,a0
    1d50:	fef42223          	sw	a5,-28(s0)

            ++buffer;
    1d54:	fd842783          	lw	a5,-40(s0)
    1d58:	00178793          	add	a5,a5,1
    1d5c:	fcf42c23          	sw	a5,-40(s0)
            --size;
    1d60:	fd442783          	lw	a5,-44(s0)
    1d64:	fff78793          	add	a5,a5,-1
    1d68:	fcf42a23          	sw	a5,-44(s0)
        }
    }
    
    /*if end of transaction, wait until the ip is idle then disable the ip*/
    if ((issue_stop) || (status != ALT_AVALON_I2C_SUCCESS)) 
    1d6c:	fd244783          	lbu	a5,-46(s0)
    1d70:	04079463          	bnez	a5,1db8 <alt_avalon_i2c_master_transmit+0x1b8>
    1d74:	fe442783          	lw	a5,-28(s0)
    1d78:	06078463          	beqz	a5,1de0 <alt_avalon_i2c_master_transmit+0x1e0>
    {

        while (alt_avalon_i2c_is_busy(i2c_dev))
    1d7c:	03c0006f          	j	1db8 <alt_avalon_i2c_master_transmit+0x1b8>
        {
            if (timeout<10) alt_busy_sleep(10000);
    1d80:	fe842703          	lw	a4,-24(s0)
    1d84:	00900793          	li	a5,9
    1d88:	00e7e863          	bltu	a5,a4,1d98 <alt_avalon_i2c_master_transmit+0x198>
    1d8c:	000027b7          	lui	a5,0x2
    1d90:	71078513          	add	a0,a5,1808 # 2710 <alt_avalon_i2c_enabled_ints_get+0x38>
    1d94:	758010ef          	jal	34ec <alt_busy_sleep>
            if (--timeout == 0)
    1d98:	fe842783          	lw	a5,-24(s0)
    1d9c:	fff78793          	add	a5,a5,-1
    1da0:	fef42423          	sw	a5,-24(s0)
    1da4:	fe842783          	lw	a5,-24(s0)
    1da8:	00079863          	bnez	a5,1db8 <alt_avalon_i2c_master_transmit+0x1b8>
            {
               status = ALT_AVALON_I2C_TIMEOUT;
    1dac:	ffe00793          	li	a5,-2
    1db0:	fef42223          	sw	a5,-28(s0)
               break;
    1db4:	0140006f          	j	1dc8 <alt_avalon_i2c_master_transmit+0x1c8>
        while (alt_avalon_i2c_is_busy(i2c_dev))
    1db8:	fdc42503          	lw	a0,-36(s0)
    1dbc:	bc8ff0ef          	jal	1184 <alt_avalon_i2c_is_busy>
    1dc0:	00050793          	mv	a5,a0
    1dc4:	fa079ee3          	bnez	a5,1d80 <alt_avalon_i2c_master_transmit+0x180>
            }
        }
     
        /*check for a nack error*/
        alt_avalon_i2c_check_nack(i2c_dev,&status);
    1dc8:	fe440793          	add	a5,s0,-28
    1dcc:	00078593          	mv	a1,a5
    1dd0:	fdc42503          	lw	a0,-36(s0)
    1dd4:	801ff0ef          	jal	15d4 <alt_avalon_i2c_check_nack>
        
        /*disable the ip.  The ip is disabled and enabled for each transaction.*/
        alt_avalon_i2c_disable(i2c_dev);
    1dd8:	fdc42503          	lw	a0,-36(s0)
    1ddc:	ffdfe0ef          	jal	dd8 <alt_avalon_i2c_disable>
    }


    return status;
    1de0:	fe442783          	lw	a5,-28(s0)
}
    1de4:	00078713          	mv	a4,a5
    1de8:	0000b7b7          	lui	a5,0xb
    1dec:	fec42683          	lw	a3,-20(s0)
    1df0:	7b87a783          	lw	a5,1976(a5) # b7b8 <__stack_chk_guard>
    1df4:	00f6c7b3          	xor	a5,a3,a5
    1df8:	00000693          	li	a3,0
    1dfc:	00078463          	beqz	a5,1e04 <alt_avalon_i2c_master_transmit+0x204>
    1e00:	3f4030ef          	jal	51f4 <__stack_chk_fail>
    1e04:	00070513          	mv	a0,a4
    1e08:	02c12083          	lw	ra,44(sp)
    1e0c:	02812403          	lw	s0,40(sp)
    1e10:	03010113          	add	sp,sp,48
    1e14:	00008067          	ret

00001e18 <alt_avalon_i2c_master_transmit_using_interrupts>:
ALT_AVALON_I2C_STATUS_CODE alt_avalon_i2c_master_transmit_using_interrupts(ALT_AVALON_I2C_DEV_t *i2c_dev,
                                        const alt_u8 * buffer,
                                        alt_u32 size,
                                        const alt_u8 issue_restart,
                                        const alt_u8 issue_stop)
{
    1e18:	fd010113          	add	sp,sp,-48
    1e1c:	02112623          	sw	ra,44(sp)
    1e20:	02812423          	sw	s0,40(sp)
    1e24:	03010413          	add	s0,sp,48
    1e28:	fca42e23          	sw	a0,-36(s0)
    1e2c:	fcb42c23          	sw	a1,-40(s0)
    1e30:	fcc42a23          	sw	a2,-44(s0)
    1e34:	00068793          	mv	a5,a3
    1e38:	fcf409a3          	sb	a5,-45(s0)
    1e3c:	00070793          	mv	a5,a4
    1e40:	fcf40923          	sb	a5,-46(s0)
    ALT_AVALON_I2C_STATUS_CODE status = ALT_AVALON_I2C_SUCCESS;
    1e44:	fe042223          	sw	zero,-28(s0)
    alt_u32 timeout=size*10000;
    1e48:	fd442703          	lw	a4,-44(s0)
    1e4c:	00070793          	mv	a5,a4
    1e50:	00279793          	sll	a5,a5,0x2
    1e54:	00e787b3          	add	a5,a5,a4
    1e58:	00379793          	sll	a5,a5,0x3
    1e5c:	40e787b3          	sub	a5,a5,a4
    1e60:	00479793          	sll	a5,a5,0x4
    1e64:	00e787b3          	add	a5,a5,a4
    1e68:	00479793          	sll	a5,a5,0x4
    1e6c:	fef42423          	sw	a5,-24(s0)
    IRQ_DATA_t *irq_data = i2c_dev->callback_context;    
    1e70:	fdc42783          	lw	a5,-36(s0)
    1e74:	01c7a783          	lw	a5,28(a5)
    1e78:	fef42623          	sw	a5,-20(s0)
    
    if (size==0)
    1e7c:	fd442783          	lw	a5,-44(s0)
    1e80:	00079663          	bnez	a5,1e8c <alt_avalon_i2c_master_transmit_using_interrupts+0x74>
    {
      return ALT_AVALON_I2C_SUCCESS;
    1e84:	00000793          	li	a5,0
    1e88:	1a00006f          	j	2028 <alt_avalon_i2c_master_transmit_using_interrupts+0x210>
    }
    
    /*IS the optional interrupt handler registered??*/
    if (i2c_dev->callback != optional_irq_callback)
    1e8c:	fdc42783          	lw	a5,-36(s0)
    1e90:	0187a703          	lw	a4,24(a5)
    1e94:	000017b7          	lui	a5,0x1
    1e98:	96c78793          	add	a5,a5,-1684 # 96c <optional_irq_callback>
    1e9c:	00f70663          	beq	a4,a5,1ea8 <alt_avalon_i2c_master_transmit_using_interrupts+0x90>
    {
       return ALT_AVALON_I2C_BAD_ARG;    
    1ea0:	ffd00793          	li	a5,-3
    1ea4:	1840006f          	j	2028 <alt_avalon_i2c_master_transmit_using_interrupts+0x210>
    }
    
    /*if a new transaction, enable ip and clear int status*/
    if (!issue_restart) 
    1ea8:	fd344783          	lbu	a5,-45(s0)
    1eac:	02079663          	bnez	a5,1ed8 <alt_avalon_i2c_master_transmit_using_interrupts+0xc0>
    {
      /*enable the ip.  The ip is disabled and enabled for each transaction.*/
      status = alt_avalon_i2c_enable(i2c_dev);
    1eb0:	fdc42503          	lw	a0,-36(s0)
    1eb4:	e75fe0ef          	jal	d28 <alt_avalon_i2c_enable>
    1eb8:	fea42223          	sw	a0,-28(s0)
      if (status != ALT_AVALON_I2C_SUCCESS)
    1ebc:	fe442783          	lw	a5,-28(s0)
    1ec0:	00078663          	beqz	a5,1ecc <alt_avalon_i2c_master_transmit_using_interrupts+0xb4>
      {
        return status;
    1ec4:	fe442783          	lw	a5,-28(s0)
    1ec8:	1600006f          	j	2028 <alt_avalon_i2c_master_transmit_using_interrupts+0x210>
      }

      /*Clear the ISR reg*/
      alt_avalon_i2c_int_clear(i2c_dev,ALT_AVALON_I2C_ISR_ALL_CLEARABLE_INTS_MSK);
    1ecc:	01c00593          	li	a1,28
    1ed0:	fdc42503          	lw	a0,-36(s0)
    1ed4:	690000ef          	jal	2564 <alt_avalon_i2c_int_clear>
    }

    /*Start Write, transmit address. */
    status = alt_avalon_i2c_send_address(i2c_dev,ALT_AVALON_I2C_WRITE,issue_restart);
    1ed8:	fd344783          	lbu	a5,-45(s0)
    1edc:	00078613          	mv	a2,a5
    1ee0:	00000593          	li	a1,0
    1ee4:	fdc42503          	lw	a0,-36(s0)
    1ee8:	d8cff0ef          	jal	1474 <alt_avalon_i2c_send_address>
    1eec:	fea42223          	sw	a0,-28(s0)
        
    if (status == ALT_AVALON_I2C_SUCCESS)
    1ef0:	fe442783          	lw	a5,-28(s0)
    1ef4:	08079c63          	bnez	a5,1f8c <alt_avalon_i2c_master_transmit_using_interrupts+0x174>
    {
        while ((size > 1) && (status == ALT_AVALON_I2C_SUCCESS))
    1ef8:	03c0006f          	j	1f34 <alt_avalon_i2c_master_transmit_using_interrupts+0x11c>
        {
            status = alt_avalon_i2c_cmd_write(i2c_dev, *buffer, ALT_AVALON_I2C_NO_RESTART, ALT_AVALON_I2C_NO_STOP);
    1efc:	fd842783          	lw	a5,-40(s0)
    1f00:	0007c783          	lbu	a5,0(a5)
    1f04:	00000693          	li	a3,0
    1f08:	00000613          	li	a2,0
    1f0c:	00078593          	mv	a1,a5
    1f10:	fdc42503          	lw	a0,-36(s0)
    1f14:	c30ff0ef          	jal	1344 <alt_avalon_i2c_cmd_write>
    1f18:	fea42223          	sw	a0,-28(s0)
            
            ++buffer;
    1f1c:	fd842783          	lw	a5,-40(s0)
    1f20:	00178793          	add	a5,a5,1
    1f24:	fcf42c23          	sw	a5,-40(s0)
            --size;
    1f28:	fd442783          	lw	a5,-44(s0)
    1f2c:	fff78793          	add	a5,a5,-1
    1f30:	fcf42a23          	sw	a5,-44(s0)
        while ((size > 1) && (status == ALT_AVALON_I2C_SUCCESS))
    1f34:	fd442703          	lw	a4,-44(s0)
    1f38:	00100793          	li	a5,1
    1f3c:	00e7f663          	bgeu	a5,a4,1f48 <alt_avalon_i2c_master_transmit_using_interrupts+0x130>
    1f40:	fe442783          	lw	a5,-28(s0)
    1f44:	fa078ce3          	beqz	a5,1efc <alt_avalon_i2c_master_transmit_using_interrupts+0xe4>
        }

        /* Last byte */
        if (status == ALT_AVALON_I2C_SUCCESS)
    1f48:	fe442783          	lw	a5,-28(s0)
    1f4c:	04079063          	bnez	a5,1f8c <alt_avalon_i2c_master_transmit_using_interrupts+0x174>
        {
            status = alt_avalon_i2c_cmd_write(i2c_dev, *buffer, ALT_AVALON_I2C_NO_RESTART, issue_stop);
    1f50:	fd842783          	lw	a5,-40(s0)
    1f54:	0007c783          	lbu	a5,0(a5)
    1f58:	fd244703          	lbu	a4,-46(s0)
    1f5c:	00070693          	mv	a3,a4
    1f60:	00000613          	li	a2,0
    1f64:	00078593          	mv	a1,a5
    1f68:	fdc42503          	lw	a0,-36(s0)
    1f6c:	bd8ff0ef          	jal	1344 <alt_avalon_i2c_cmd_write>
    1f70:	fea42223          	sw	a0,-28(s0)

            ++buffer;
    1f74:	fd842783          	lw	a5,-40(s0)
    1f78:	00178793          	add	a5,a5,1
    1f7c:	fcf42c23          	sw	a5,-40(s0)
            --size;
    1f80:	fd442783          	lw	a5,-44(s0)
    1f84:	fff78793          	add	a5,a5,-1
    1f88:	fcf42a23          	sw	a5,-44(s0)
        }
    }
    
    /*if error, wait until the ip is idle then disable the ip*/
    if (status != ALT_AVALON_I2C_SUCCESS) 
    1f8c:	fe442783          	lw	a5,-28(s0)
    1f90:	04078e63          	beqz	a5,1fec <alt_avalon_i2c_master_transmit_using_interrupts+0x1d4>
    {

        while (alt_avalon_i2c_is_busy(i2c_dev))
    1f94:	03c0006f          	j	1fd0 <alt_avalon_i2c_master_transmit_using_interrupts+0x1b8>
        {
            if (timeout<10) alt_busy_sleep(10000);        
    1f98:	fe842703          	lw	a4,-24(s0)
    1f9c:	00900793          	li	a5,9
    1fa0:	00e7e863          	bltu	a5,a4,1fb0 <alt_avalon_i2c_master_transmit_using_interrupts+0x198>
    1fa4:	000027b7          	lui	a5,0x2
    1fa8:	71078513          	add	a0,a5,1808 # 2710 <alt_avalon_i2c_enabled_ints_get+0x38>
    1fac:	540010ef          	jal	34ec <alt_busy_sleep>
            if (--timeout == 0)
    1fb0:	fe842783          	lw	a5,-24(s0)
    1fb4:	fff78793          	add	a5,a5,-1
    1fb8:	fef42423          	sw	a5,-24(s0)
    1fbc:	fe842783          	lw	a5,-24(s0)
    1fc0:	00079863          	bnez	a5,1fd0 <alt_avalon_i2c_master_transmit_using_interrupts+0x1b8>
            {
               status = ALT_AVALON_I2C_TIMEOUT;
    1fc4:	ffe00793          	li	a5,-2
    1fc8:	fef42223          	sw	a5,-28(s0)
               break;
    1fcc:	0140006f          	j	1fe0 <alt_avalon_i2c_master_transmit_using_interrupts+0x1c8>
        while (alt_avalon_i2c_is_busy(i2c_dev))
    1fd0:	fdc42503          	lw	a0,-36(s0)
    1fd4:	9b0ff0ef          	jal	1184 <alt_avalon_i2c_is_busy>
    1fd8:	00050793          	mv	a5,a0
    1fdc:	fa079ee3          	bnez	a5,1f98 <alt_avalon_i2c_master_transmit_using_interrupts+0x180>
            }
        }
     
        /*disable the ip.  The ip is disabled and enabled for each transaction.*/
        alt_avalon_i2c_disable(i2c_dev);
    1fe0:	fdc42503          	lw	a0,-36(s0)
    1fe4:	df5fe0ef          	jal	dd8 <alt_avalon_i2c_disable>
    1fe8:	03c0006f          	j	2024 <alt_avalon_i2c_master_transmit_using_interrupts+0x20c>
    }
    else
    {
       if (issue_stop)
    1fec:	fd244783          	lbu	a5,-46(s0)
    1ff0:	02078a63          	beqz	a5,2024 <alt_avalon_i2c_master_transmit_using_interrupts+0x20c>
       {
         /* clear ISR register content */
         alt_avalon_i2c_int_clear(i2c_dev,ALT_AVALON_I2C_ISR_ALL_CLEARABLE_INTS_MSK);
    1ff4:	01c00593          	li	a1,28
    1ff8:	fdc42503          	lw	a0,-36(s0)
    1ffc:	568000ef          	jal	2564 <alt_avalon_i2c_int_clear>
         /* set the cmd fifo threshold */
         alt_avalon_i2c_tfr_cmd_fifo_threshold_set(i2c_dev,ALT_AVALON_I2C_TFR_CMD_FIFO_EMPTY);
    2000:	00000593          	li	a1,0
    2004:	fdc42503          	lw	a0,-36(s0)
    2008:	019000ef          	jal	2820 <alt_avalon_i2c_tfr_cmd_fifo_threshold_set>
         /* set the interrupt transaction busy bit */
         irq_data->irq_busy=1;
    200c:	fec42783          	lw	a5,-20(s0)
    2010:	00100713          	li	a4,1
    2014:	00e7a423          	sw	a4,8(a5)
         /* enable the TX_READY interrupt */
         alt_avalon_i2c_int_enable(i2c_dev,ALT_AVALON_I2C_ISER_TX_READY_EN_MSK);
    2018:	00100593          	li	a1,1
    201c:	fdc42503          	lw	a0,-36(s0)
    2020:	620000ef          	jal	2640 <alt_avalon_i2c_int_enable>
       }
    }
    
    return status;
    2024:	fe442783          	lw	a5,-28(s0)
}
    2028:	00078513          	mv	a0,a5
    202c:	02c12083          	lw	ra,44(sp)
    2030:	02812403          	lw	s0,40(sp)
    2034:	03010113          	add	sp,sp,48
    2038:	00008067          	ret

0000203c <alt_avalon_i2c_master_receive>:
ALT_AVALON_I2C_STATUS_CODE alt_avalon_i2c_master_receive(ALT_AVALON_I2C_DEV_t *i2c_dev,
                                       alt_u8 * buffer,
                                       const alt_u32 size,
                                       const alt_u8 issue_restart,
                                       const alt_u8 issue_stop)
{
    203c:	fc010113          	add	sp,sp,-64
    2040:	02112e23          	sw	ra,60(sp)
    2044:	02812c23          	sw	s0,56(sp)
    2048:	04010413          	add	s0,sp,64
    204c:	fca42623          	sw	a0,-52(s0)
    2050:	fcb42423          	sw	a1,-56(s0)
    2054:	fcc42223          	sw	a2,-60(s0)
    2058:	00068793          	mv	a5,a3
    205c:	fcf401a3          	sb	a5,-61(s0)
    2060:	00070793          	mv	a5,a4
    2064:	fcf40123          	sb	a5,-62(s0)
    2068:	0000b7b7          	lui	a5,0xb
    206c:	7b87a703          	lw	a4,1976(a5) # b7b8 <__stack_chk_guard>
    2070:	fee42623          	sw	a4,-20(s0)
    2074:	00000713          	li	a4,0
    ALT_AVALON_I2C_STATUS_CODE status = ALT_AVALON_I2C_SUCCESS;
    2078:	fc042c23          	sw	zero,-40(s0)
    alt_u32 timeout;
    alt_u32 bytes_read=0;
    207c:	fe042223          	sw	zero,-28(s0)
    alt_u32 bytes_written=0;
    2080:	fe042423          	sw	zero,-24(s0)
    alt_u32 temp_bytes_read;
    
    if (size==0)
    2084:	fc442783          	lw	a5,-60(s0)
    2088:	00079663          	bnez	a5,2094 <alt_avalon_i2c_master_receive+0x58>
    {
      return ALT_AVALON_I2C_SUCCESS;
    208c:	00000793          	li	a5,0
    2090:	1ec0006f          	j	227c <alt_avalon_i2c_master_receive+0x240>
    }
    
    /*if a new transaction, enable ip and clear int status*/
    if (!issue_restart) 
    2094:	fc344783          	lbu	a5,-61(s0)
    2098:	02079863          	bnez	a5,20c8 <alt_avalon_i2c_master_receive+0x8c>
    {
       /*enable the ip.  The ip is disabled and enabled for each transaction.*/
      status = alt_avalon_i2c_enable(i2c_dev);
    209c:	fcc42503          	lw	a0,-52(s0)
    20a0:	c89fe0ef          	jal	d28 <alt_avalon_i2c_enable>
    20a4:	00050793          	mv	a5,a0
    20a8:	fcf42c23          	sw	a5,-40(s0)
      if (status != ALT_AVALON_I2C_SUCCESS)
    20ac:	fd842783          	lw	a5,-40(s0)
    20b0:	00078663          	beqz	a5,20bc <alt_avalon_i2c_master_receive+0x80>
      {
        return status;
    20b4:	fd842783          	lw	a5,-40(s0)
    20b8:	1c40006f          	j	227c <alt_avalon_i2c_master_receive+0x240>
      }

      /*Clear the ISR reg*/
      alt_avalon_i2c_int_clear(i2c_dev,ALT_AVALON_I2C_ISR_ALL_CLEARABLE_INTS_MSK);
    20bc:	01c00593          	li	a1,28
    20c0:	fcc42503          	lw	a0,-52(s0)
    20c4:	4a0000ef          	jal	2564 <alt_avalon_i2c_int_clear>
    }

    /*Start Write, transmit address. */
    status = alt_avalon_i2c_send_address(i2c_dev,ALT_AVALON_I2C_READ,issue_restart);
    20c8:	fc344783          	lbu	a5,-61(s0)
    20cc:	00078613          	mv	a2,a5
    20d0:	00100593          	li	a1,1
    20d4:	fcc42503          	lw	a0,-52(s0)
    20d8:	b9cff0ef          	jal	1474 <alt_avalon_i2c_send_address>
    20dc:	00050793          	mv	a5,a0
    20e0:	fcf42c23          	sw	a5,-40(s0)

    if (status == ALT_AVALON_I2C_SUCCESS)
    20e4:	fd842783          	lw	a5,-40(s0)
    20e8:	0e079063          	bnez	a5,21c8 <alt_avalon_i2c_master_receive+0x18c>
    {
        while ((bytes_written < (size-1)) && (status == ALT_AVALON_I2C_SUCCESS))
    20ec:	06c0006f          	j	2158 <alt_avalon_i2c_master_receive+0x11c>
        {
            status = alt_avalon_i2c_cmd_write(i2c_dev, 0, ALT_AVALON_I2C_NO_RESTART, ALT_AVALON_I2C_NO_STOP);
    20f0:	00000693          	li	a3,0
    20f4:	00000613          	li	a2,0
    20f8:	00000593          	li	a1,0
    20fc:	fcc42503          	lw	a0,-52(s0)
    2100:	a44ff0ef          	jal	1344 <alt_avalon_i2c_cmd_write>
    2104:	00050793          	mv	a5,a0
    2108:	fcf42c23          	sw	a5,-40(s0)
            bytes_written++;
    210c:	fe842783          	lw	a5,-24(s0)
    2110:	00178793          	add	a5,a5,1
    2114:	fef42423          	sw	a5,-24(s0)
            if (status == ALT_AVALON_I2C_SUCCESS)
    2118:	fd842783          	lw	a5,-40(s0)
    211c:	02079e63          	bnez	a5,2158 <alt_avalon_i2c_master_receive+0x11c>
            {
               alt_avalon_i2c_rx_read_available(i2c_dev, buffer,0,&temp_bytes_read);
    2120:	fdc40793          	add	a5,s0,-36
    2124:	00078693          	mv	a3,a5
    2128:	00000613          	li	a2,0
    212c:	fc842583          	lw	a1,-56(s0)
    2130:	fcc42503          	lw	a0,-52(s0)
    2134:	89cff0ef          	jal	11d0 <alt_avalon_i2c_rx_read_available>
               buffer+=temp_bytes_read;
    2138:	fdc42783          	lw	a5,-36(s0)
    213c:	fc842703          	lw	a4,-56(s0)
    2140:	00f707b3          	add	a5,a4,a5
    2144:	fcf42423          	sw	a5,-56(s0)
               bytes_read+=temp_bytes_read;
    2148:	fdc42783          	lw	a5,-36(s0)
    214c:	fe442703          	lw	a4,-28(s0)
    2150:	00f707b3          	add	a5,a4,a5
    2154:	fef42223          	sw	a5,-28(s0)
        while ((bytes_written < (size-1)) && (status == ALT_AVALON_I2C_SUCCESS))
    2158:	fc442783          	lw	a5,-60(s0)
    215c:	fff78793          	add	a5,a5,-1
    2160:	fe842703          	lw	a4,-24(s0)
    2164:	00f77663          	bgeu	a4,a5,2170 <alt_avalon_i2c_master_receive+0x134>
    2168:	fd842783          	lw	a5,-40(s0)
    216c:	f80782e3          	beqz	a5,20f0 <alt_avalon_i2c_master_receive+0xb4>
            }
        }

        /* Last byte */
        if (status == ALT_AVALON_I2C_SUCCESS)
    2170:	fd842783          	lw	a5,-40(s0)
    2174:	04079a63          	bnez	a5,21c8 <alt_avalon_i2c_master_receive+0x18c>
        {
            status = alt_avalon_i2c_cmd_write(i2c_dev, 0, ALT_AVALON_I2C_NO_RESTART, issue_stop);
    2178:	fc244783          	lbu	a5,-62(s0)
    217c:	00078693          	mv	a3,a5
    2180:	00000613          	li	a2,0
    2184:	00000593          	li	a1,0
    2188:	fcc42503          	lw	a0,-52(s0)
    218c:	9b8ff0ef          	jal	1344 <alt_avalon_i2c_cmd_write>
    2190:	00050793          	mv	a5,a0
    2194:	fcf42c23          	sw	a5,-40(s0)
        }
    }
    
    while ((bytes_read < size) && (status==ALT_AVALON_I2C_SUCCESS)) 
    2198:	0300006f          	j	21c8 <alt_avalon_i2c_master_receive+0x18c>
    {
        status=alt_avalon_i2c_rx_read(i2c_dev, buffer);
    219c:	fc842583          	lw	a1,-56(s0)
    21a0:	fcc42503          	lw	a0,-52(s0)
    21a4:	8e4ff0ef          	jal	1288 <alt_avalon_i2c_rx_read>
    21a8:	00050793          	mv	a5,a0
    21ac:	fcf42c23          	sw	a5,-40(s0)
        buffer++;
    21b0:	fc842783          	lw	a5,-56(s0)
    21b4:	00178793          	add	a5,a5,1
    21b8:	fcf42423          	sw	a5,-56(s0)
        bytes_read++;
    21bc:	fe442783          	lw	a5,-28(s0)
    21c0:	00178793          	add	a5,a5,1
    21c4:	fef42223          	sw	a5,-28(s0)
    while ((bytes_read < size) && (status==ALT_AVALON_I2C_SUCCESS)) 
    21c8:	fe442703          	lw	a4,-28(s0)
    21cc:	fc442783          	lw	a5,-60(s0)
    21d0:	00f77663          	bgeu	a4,a5,21dc <alt_avalon_i2c_master_receive+0x1a0>
    21d4:	fd842783          	lw	a5,-40(s0)
    21d8:	fc0782e3          	beqz	a5,219c <alt_avalon_i2c_master_receive+0x160>
    }

    /*if end of transaction, wait until the ip is idle then disable the ip*/
    if ((issue_stop) || (status != ALT_AVALON_I2C_SUCCESS)) 
    21dc:	fc244783          	lbu	a5,-62(s0)
    21e0:	00079663          	bnez	a5,21ec <alt_avalon_i2c_master_receive+0x1b0>
    21e4:	fd842783          	lw	a5,-40(s0)
    21e8:	08078863          	beqz	a5,2278 <alt_avalon_i2c_master_receive+0x23c>
    {
        timeout=10000 * size;
    21ec:	fc442703          	lw	a4,-60(s0)
    21f0:	00070793          	mv	a5,a4
    21f4:	00279793          	sll	a5,a5,0x2
    21f8:	00e787b3          	add	a5,a5,a4
    21fc:	00379793          	sll	a5,a5,0x3
    2200:	40e787b3          	sub	a5,a5,a4
    2204:	00479793          	sll	a5,a5,0x4
    2208:	00e787b3          	add	a5,a5,a4
    220c:	00479793          	sll	a5,a5,0x4
    2210:	fef42023          	sw	a5,-32(s0)
        while (alt_avalon_i2c_is_busy(i2c_dev))
    2214:	03c0006f          	j	2250 <alt_avalon_i2c_master_receive+0x214>
        {
            if (timeout<10) alt_busy_sleep(10000);
    2218:	fe042703          	lw	a4,-32(s0)
    221c:	00900793          	li	a5,9
    2220:	00e7e863          	bltu	a5,a4,2230 <alt_avalon_i2c_master_receive+0x1f4>
    2224:	000027b7          	lui	a5,0x2
    2228:	71078513          	add	a0,a5,1808 # 2710 <alt_avalon_i2c_enabled_ints_get+0x38>
    222c:	2c0010ef          	jal	34ec <alt_busy_sleep>
            if (--timeout == 0)
    2230:	fe042783          	lw	a5,-32(s0)
    2234:	fff78793          	add	a5,a5,-1
    2238:	fef42023          	sw	a5,-32(s0)
    223c:	fe042783          	lw	a5,-32(s0)
    2240:	00079863          	bnez	a5,2250 <alt_avalon_i2c_master_receive+0x214>
            {
               status = ALT_AVALON_I2C_TIMEOUT;
    2244:	ffe00793          	li	a5,-2
    2248:	fcf42c23          	sw	a5,-40(s0)
               break;
    224c:	0140006f          	j	2260 <alt_avalon_i2c_master_receive+0x224>
        while (alt_avalon_i2c_is_busy(i2c_dev))
    2250:	fcc42503          	lw	a0,-52(s0)
    2254:	f31fe0ef          	jal	1184 <alt_avalon_i2c_is_busy>
    2258:	00050793          	mv	a5,a0
    225c:	fa079ee3          	bnez	a5,2218 <alt_avalon_i2c_master_receive+0x1dc>
            }
        }

        /*check for nack error*/
        alt_avalon_i2c_check_nack(i2c_dev,&status);    
    2260:	fd840793          	add	a5,s0,-40
    2264:	00078593          	mv	a1,a5
    2268:	fcc42503          	lw	a0,-52(s0)
    226c:	b68ff0ef          	jal	15d4 <alt_avalon_i2c_check_nack>
        
        /*disable the ip.  The ip is disabled and enabled for each transaction.*/
        alt_avalon_i2c_disable(i2c_dev);
    2270:	fcc42503          	lw	a0,-52(s0)
    2274:	b65fe0ef          	jal	dd8 <alt_avalon_i2c_disable>
    }

    return status;
    2278:	fd842783          	lw	a5,-40(s0)
}
    227c:	00078713          	mv	a4,a5
    2280:	0000b7b7          	lui	a5,0xb
    2284:	fec42683          	lw	a3,-20(s0)
    2288:	7b87a783          	lw	a5,1976(a5) # b7b8 <__stack_chk_guard>
    228c:	00f6c7b3          	xor	a5,a3,a5
    2290:	00000693          	li	a3,0
    2294:	00078463          	beqz	a5,229c <alt_avalon_i2c_master_receive+0x260>
    2298:	75d020ef          	jal	51f4 <__stack_chk_fail>
    229c:	00070513          	mv	a0,a4
    22a0:	03c12083          	lw	ra,60(sp)
    22a4:	03812403          	lw	s0,56(sp)
    22a8:	04010113          	add	sp,sp,64
    22ac:	00008067          	ret

000022b0 <alt_avalon_i2c_master_receive_using_interrupts>:
ALT_AVALON_I2C_STATUS_CODE alt_avalon_i2c_master_receive_using_interrupts(ALT_AVALON_I2C_DEV_t *i2c_dev,
                                       alt_u8 * buffer,
                                       const alt_u32 size,
                                       const alt_u8 issue_restart,
                                       const alt_u8 issue_stop)
{
    22b0:	fd010113          	add	sp,sp,-48
    22b4:	02112623          	sw	ra,44(sp)
    22b8:	02812423          	sw	s0,40(sp)
    22bc:	03010413          	add	s0,sp,48
    22c0:	fca42e23          	sw	a0,-36(s0)
    22c4:	fcb42c23          	sw	a1,-40(s0)
    22c8:	fcc42a23          	sw	a2,-44(s0)
    22cc:	00068793          	mv	a5,a3
    22d0:	fcf409a3          	sb	a5,-45(s0)
    22d4:	00070793          	mv	a5,a4
    22d8:	fcf40923          	sb	a5,-46(s0)
    ALT_AVALON_I2C_STATUS_CODE status = ALT_AVALON_I2C_SUCCESS;
    22dc:	fe042023          	sw	zero,-32(s0)
    IRQ_DATA_t *irq_data = i2c_dev->callback_context;    
    22e0:	fdc42783          	lw	a5,-36(s0)
    22e4:	01c7a783          	lw	a5,28(a5)
    22e8:	fef42623          	sw	a5,-20(s0)
    alt_u32 timeout;
    alt_u32 bytes_written=0;
    22ec:	fe042423          	sw	zero,-24(s0)
    
    if (size==0)
    22f0:	fd442783          	lw	a5,-44(s0)
    22f4:	00079663          	bnez	a5,2300 <alt_avalon_i2c_master_receive_using_interrupts+0x50>
    {
      return ALT_AVALON_I2C_SUCCESS;
    22f8:	00000793          	li	a5,0
    22fc:	1b00006f          	j	24ac <alt_avalon_i2c_master_receive_using_interrupts+0x1fc>
    }
    
    /*Is the optional interrupt handler registered??*/
    if (i2c_dev->callback != optional_irq_callback)
    2300:	fdc42783          	lw	a5,-36(s0)
    2304:	0187a703          	lw	a4,24(a5)
    2308:	000017b7          	lui	a5,0x1
    230c:	96c78793          	add	a5,a5,-1684 # 96c <optional_irq_callback>
    2310:	00f70663          	beq	a4,a5,231c <alt_avalon_i2c_master_receive_using_interrupts+0x6c>
    {
       return ALT_AVALON_I2C_BAD_ARG;    
    2314:	ffd00793          	li	a5,-3
    2318:	1940006f          	j	24ac <alt_avalon_i2c_master_receive_using_interrupts+0x1fc>
    }
    
    /*if a new transaction, enable ip and clear int status*/
    if (!issue_restart) 
    231c:	fd344783          	lbu	a5,-45(s0)
    2320:	02079663          	bnez	a5,234c <alt_avalon_i2c_master_receive_using_interrupts+0x9c>
    {
      /*enable the ip.  The ip is disabled and enabled for each transaction.*/
      status = alt_avalon_i2c_enable(i2c_dev);
    2324:	fdc42503          	lw	a0,-36(s0)
    2328:	a01fe0ef          	jal	d28 <alt_avalon_i2c_enable>
    232c:	fea42023          	sw	a0,-32(s0)
      if (status != ALT_AVALON_I2C_SUCCESS)
    2330:	fe042783          	lw	a5,-32(s0)
    2334:	00078663          	beqz	a5,2340 <alt_avalon_i2c_master_receive_using_interrupts+0x90>
      {
        return status;
    2338:	fe042783          	lw	a5,-32(s0)
    233c:	1700006f          	j	24ac <alt_avalon_i2c_master_receive_using_interrupts+0x1fc>
      }

      /*Clear the ISR reg*/
      alt_avalon_i2c_int_clear(i2c_dev,ALT_AVALON_I2C_ISR_ALL_CLEARABLE_INTS_MSK);
    2340:	01c00593          	li	a1,28
    2344:	fdc42503          	lw	a0,-36(s0)
    2348:	21c000ef          	jal	2564 <alt_avalon_i2c_int_clear>
      
    }

    /*Start Write, transmit address. */
    status = alt_avalon_i2c_send_address(i2c_dev,ALT_AVALON_I2C_READ,issue_restart);
    234c:	fd344783          	lbu	a5,-45(s0)
    2350:	00078613          	mv	a2,a5
    2354:	00100593          	li	a1,1
    2358:	fdc42503          	lw	a0,-36(s0)
    235c:	918ff0ef          	jal	1474 <alt_avalon_i2c_send_address>
    2360:	fea42023          	sw	a0,-32(s0)

    if (status == ALT_AVALON_I2C_SUCCESS)
    2364:	fe042783          	lw	a5,-32(s0)
    2368:	06079463          	bnez	a5,23d0 <alt_avalon_i2c_master_receive_using_interrupts+0x120>
    {
        while ((bytes_written < (size-1)) && (status == ALT_AVALON_I2C_SUCCESS))
    236c:	0280006f          	j	2394 <alt_avalon_i2c_master_receive_using_interrupts+0xe4>
        {
            status = alt_avalon_i2c_cmd_write(i2c_dev, 0, ALT_AVALON_I2C_NO_RESTART, ALT_AVALON_I2C_NO_STOP);
    2370:	00000693          	li	a3,0
    2374:	00000613          	li	a2,0
    2378:	00000593          	li	a1,0
    237c:	fdc42503          	lw	a0,-36(s0)
    2380:	fc5fe0ef          	jal	1344 <alt_avalon_i2c_cmd_write>
    2384:	fea42023          	sw	a0,-32(s0)
            bytes_written++;
    2388:	fe842783          	lw	a5,-24(s0)
    238c:	00178793          	add	a5,a5,1
    2390:	fef42423          	sw	a5,-24(s0)
        while ((bytes_written < (size-1)) && (status == ALT_AVALON_I2C_SUCCESS))
    2394:	fd442783          	lw	a5,-44(s0)
    2398:	fff78793          	add	a5,a5,-1
    239c:	fe842703          	lw	a4,-24(s0)
    23a0:	00f77663          	bgeu	a4,a5,23ac <alt_avalon_i2c_master_receive_using_interrupts+0xfc>
    23a4:	fe042783          	lw	a5,-32(s0)
    23a8:	fc0784e3          	beqz	a5,2370 <alt_avalon_i2c_master_receive_using_interrupts+0xc0>
        }

        /* Last byte */
        if (status == ALT_AVALON_I2C_SUCCESS)
    23ac:	fe042783          	lw	a5,-32(s0)
    23b0:	02079063          	bnez	a5,23d0 <alt_avalon_i2c_master_receive_using_interrupts+0x120>
        {
            status = alt_avalon_i2c_cmd_write(i2c_dev, 0, ALT_AVALON_I2C_NO_RESTART, issue_stop);
    23b4:	fd244783          	lbu	a5,-46(s0)
    23b8:	00078693          	mv	a3,a5
    23bc:	00000613          	li	a2,0
    23c0:	00000593          	li	a1,0
    23c4:	fdc42503          	lw	a0,-36(s0)
    23c8:	f7dfe0ef          	jal	1344 <alt_avalon_i2c_cmd_write>
    23cc:	fea42023          	sw	a0,-32(s0)
        }
    }
    
    /*if error, wait until the ip is idle then disable the ip*/
    if (status != ALT_AVALON_I2C_SUCCESS) 
    23d0:	fe042783          	lw	a5,-32(s0)
    23d4:	08078263          	beqz	a5,2458 <alt_avalon_i2c_master_receive_using_interrupts+0x1a8>
    {
        timeout=10000 * size;
    23d8:	fd442703          	lw	a4,-44(s0)
    23dc:	00070793          	mv	a5,a4
    23e0:	00279793          	sll	a5,a5,0x2
    23e4:	00e787b3          	add	a5,a5,a4
    23e8:	00379793          	sll	a5,a5,0x3
    23ec:	40e787b3          	sub	a5,a5,a4
    23f0:	00479793          	sll	a5,a5,0x4
    23f4:	00e787b3          	add	a5,a5,a4
    23f8:	00479793          	sll	a5,a5,0x4
    23fc:	fef42223          	sw	a5,-28(s0)
        while (alt_avalon_i2c_is_busy(i2c_dev))
    2400:	03c0006f          	j	243c <alt_avalon_i2c_master_receive_using_interrupts+0x18c>
        {
            if (timeout<10) alt_busy_sleep(10000);
    2404:	fe442703          	lw	a4,-28(s0)
    2408:	00900793          	li	a5,9
    240c:	00e7e863          	bltu	a5,a4,241c <alt_avalon_i2c_master_receive_using_interrupts+0x16c>
    2410:	000027b7          	lui	a5,0x2
    2414:	71078513          	add	a0,a5,1808 # 2710 <alt_avalon_i2c_enabled_ints_get+0x38>
    2418:	0d4010ef          	jal	34ec <alt_busy_sleep>
            if (--timeout == 0)
    241c:	fe442783          	lw	a5,-28(s0)
    2420:	fff78793          	add	a5,a5,-1
    2424:	fef42223          	sw	a5,-28(s0)
    2428:	fe442783          	lw	a5,-28(s0)
    242c:	00079863          	bnez	a5,243c <alt_avalon_i2c_master_receive_using_interrupts+0x18c>
            {
               status = ALT_AVALON_I2C_TIMEOUT;
    2430:	ffe00793          	li	a5,-2
    2434:	fef42023          	sw	a5,-32(s0)
               break;
    2438:	0140006f          	j	244c <alt_avalon_i2c_master_receive_using_interrupts+0x19c>
        while (alt_avalon_i2c_is_busy(i2c_dev))
    243c:	fdc42503          	lw	a0,-36(s0)
    2440:	d45fe0ef          	jal	1184 <alt_avalon_i2c_is_busy>
    2444:	00050793          	mv	a5,a0
    2448:	fa079ee3          	bnez	a5,2404 <alt_avalon_i2c_master_receive_using_interrupts+0x154>
            }
        }
     
        /*disable the ip.  The ip is disabled and enabled for each transaction.*/
        alt_avalon_i2c_disable(i2c_dev);
    244c:	fdc42503          	lw	a0,-36(s0)
    2450:	989fe0ef          	jal	dd8 <alt_avalon_i2c_disable>
    2454:	0540006f          	j	24a8 <alt_avalon_i2c_master_receive_using_interrupts+0x1f8>
    }
    else
    {
       if (issue_stop)
    2458:	fd244783          	lbu	a5,-46(s0)
    245c:	04078663          	beqz	a5,24a8 <alt_avalon_i2c_master_receive_using_interrupts+0x1f8>
       {
         /* clear ISR register content */
         alt_avalon_i2c_int_clear(i2c_dev,ALT_AVALON_I2C_ISR_ALL_CLEARABLE_INTS_MSK);
    2460:	01c00593          	li	a1,28
    2464:	fdc42503          	lw	a0,-36(s0)
    2468:	0fc000ef          	jal	2564 <alt_avalon_i2c_int_clear>
         /* set the cmd fifo threshold */
         alt_avalon_i2c_rx_fifo_threshold_set(i2c_dev,ALT_AVALON_I2C_RX_DATA_FIFO_1_ENTRY);
    246c:	00000593          	li	a1,0
    2470:	fdc42503          	lw	a0,-36(s0)
    2474:	2f8000ef          	jal	276c <alt_avalon_i2c_rx_fifo_threshold_set>
         /* set the interrupt transaction busy bit  2 = receive */
         irq_data->irq_busy=2;
    2478:	fec42783          	lw	a5,-20(s0)
    247c:	00200713          	li	a4,2
    2480:	00e7a423          	sw	a4,8(a5)
         
         irq_data->buffer = buffer;
    2484:	fec42783          	lw	a5,-20(s0)
    2488:	fd842703          	lw	a4,-40(s0)
    248c:	00e7a023          	sw	a4,0(a5)
         irq_data->size = size;
    2490:	fec42783          	lw	a5,-20(s0)
    2494:	fd442703          	lw	a4,-44(s0)
    2498:	00e7a223          	sw	a4,4(a5)
         
         /* enable the RX_READY interrupt */
         alt_avalon_i2c_int_enable(i2c_dev,ALT_AVALON_I2C_ISER_RX_READY_EN_MSK);
    249c:	00200593          	li	a1,2
    24a0:	fdc42503          	lw	a0,-36(s0)
    24a4:	19c000ef          	jal	2640 <alt_avalon_i2c_int_enable>
       }
    }

    return status;
    24a8:	fe042783          	lw	a5,-32(s0)
}
    24ac:	00078513          	mv	a0,a5
    24b0:	02c12083          	lw	ra,44(sp)
    24b4:	02812403          	lw	s0,40(sp)
    24b8:	03010113          	add	sp,sp,48
    24bc:	00008067          	ret

000024c0 <alt_avalon_i2c_int_status_get>:

/* Returns the current I2C controller interrupt status conditions. */
void alt_avalon_i2c_int_status_get(ALT_AVALON_I2C_DEV_t *i2c_dev,
                                       alt_u32 *status)
{
    24c0:	fd010113          	add	sp,sp,-48
    24c4:	02812623          	sw	s0,44(sp)
    24c8:	03010413          	add	s0,sp,48
    24cc:	fca42e23          	sw	a0,-36(s0)
    24d0:	fcb42c23          	sw	a1,-40(s0)
    *status = IORD_ALT_AVALON_I2C_ISR(i2c_dev->i2c_base) & IORD_ALT_AVALON_I2C_ISER(i2c_dev->i2c_base);
    24d4:	fdc42783          	lw	a5,-36(s0)
    24d8:	00c7a783          	lw	a5,12(a5)
    24dc:	01078793          	add	a5,a5,16
    24e0:	0007a783          	lw	a5,0(a5)
    24e4:	fef42423          	sw	a5,-24(s0)
    24e8:	fe842703          	lw	a4,-24(s0)
    24ec:	fdc42783          	lw	a5,-36(s0)
    24f0:	00c7a783          	lw	a5,12(a5)
    24f4:	00c78793          	add	a5,a5,12
    24f8:	0007a783          	lw	a5,0(a5)
    24fc:	fef42623          	sw	a5,-20(s0)
    2500:	fec42783          	lw	a5,-20(s0)
    2504:	00f77733          	and	a4,a4,a5
    2508:	fd842783          	lw	a5,-40(s0)
    250c:	00e7a023          	sw	a4,0(a5)
}
    2510:	00000013          	nop
    2514:	02c12403          	lw	s0,44(sp)
    2518:	03010113          	add	sp,sp,48
    251c:	00008067          	ret

00002520 <alt_avalon_i2c_int_raw_status_get>:

/*Returns the I2C controller raw interrupt status conditions irrespective of
 * the interrupt status condition enablement state. */
void alt_avalon_i2c_int_raw_status_get(ALT_AVALON_I2C_DEV_t *i2c_dev,
                                           alt_u32 *status)
{
    2520:	fd010113          	add	sp,sp,-48
    2524:	02812623          	sw	s0,44(sp)
    2528:	03010413          	add	s0,sp,48
    252c:	fca42e23          	sw	a0,-36(s0)
    2530:	fcb42c23          	sw	a1,-40(s0)
    *status = IORD_ALT_AVALON_I2C_ISR(i2c_dev->i2c_base);
    2534:	fdc42783          	lw	a5,-36(s0)
    2538:	00c7a783          	lw	a5,12(a5)
    253c:	01078793          	add	a5,a5,16
    2540:	0007a783          	lw	a5,0(a5)
    2544:	fef42623          	sw	a5,-20(s0)
    2548:	fec42703          	lw	a4,-20(s0)
    254c:	fd842783          	lw	a5,-40(s0)
    2550:	00e7a023          	sw	a4,0(a5)
}
    2554:	00000013          	nop
    2558:	02c12403          	lw	s0,44(sp)
    255c:	03010113          	add	sp,sp,48
    2560:	00008067          	ret

00002564 <alt_avalon_i2c_int_clear>:

/*Clears the specified I2C controller interrupt status conditions identified
 * in the mask. */
void alt_avalon_i2c_int_clear(ALT_AVALON_I2C_DEV_t *i2c_dev, const alt_u32 mask)
{
    2564:	fd010113          	add	sp,sp,-48
    2568:	02812623          	sw	s0,44(sp)
    256c:	03010413          	add	s0,sp,48
    2570:	fca42e23          	sw	a0,-36(s0)
    2574:	fcb42c23          	sw	a1,-40(s0)
    IOWR_ALT_AVALON_I2C_ISR(i2c_dev->i2c_base,mask);
    2578:	fd842783          	lw	a5,-40(s0)
    257c:	fef42623          	sw	a5,-20(s0)
    2580:	fdc42783          	lw	a5,-36(s0)
    2584:	00c7a783          	lw	a5,12(a5)
    2588:	01078793          	add	a5,a5,16
    258c:	fec42703          	lw	a4,-20(s0)
    2590:	00e7a023          	sw	a4,0(a5)
}
    2594:	00000013          	nop
    2598:	02c12403          	lw	s0,44(sp)
    259c:	03010113          	add	sp,sp,48
    25a0:	00008067          	ret

000025a4 <alt_avalon_i2c_int_disable>:

/*Disable the specified I2C controller interrupt status conditions identified in
 * the mask. */
void alt_avalon_i2c_int_disable(ALT_AVALON_I2C_DEV_t *i2c_dev, const alt_u32 mask)
{
    25a4:	fd010113          	add	sp,sp,-48
    25a8:	02112623          	sw	ra,44(sp)
    25ac:	02812423          	sw	s0,40(sp)
    25b0:	03010413          	add	s0,sp,48
    25b4:	fca42e23          	sw	a0,-36(s0)
    25b8:	fcb42c23          	sw	a1,-40(s0)
    25bc:	0000b7b7          	lui	a5,0xb
    25c0:	7b87a703          	lw	a4,1976(a5) # b7b8 <__stack_chk_guard>
    25c4:	fee42623          	sw	a4,-20(s0)
    25c8:	00000713          	li	a4,0
   alt_u32 enabled_ints;
    
   alt_avalon_i2c_enabled_ints_get(i2c_dev,&enabled_ints);
    25cc:	fe440793          	add	a5,s0,-28
    25d0:	00078593          	mv	a1,a5
    25d4:	fdc42503          	lw	a0,-36(s0)
    25d8:	100000ef          	jal	26d8 <alt_avalon_i2c_enabled_ints_get>
   enabled_ints &=  (~mask);
    25dc:	fd842783          	lw	a5,-40(s0)
    25e0:	fff7c713          	not	a4,a5
    25e4:	fe442783          	lw	a5,-28(s0)
    25e8:	00f777b3          	and	a5,a4,a5
    25ec:	fef42223          	sw	a5,-28(s0)
   IOWR_ALT_AVALON_I2C_ISER(i2c_dev->i2c_base,ALT_AVALON_I2C_ISR_ALLINTS_MSK & enabled_ints);
    25f0:	fe442783          	lw	a5,-28(s0)
    25f4:	01f7f793          	and	a5,a5,31
    25f8:	fef42423          	sw	a5,-24(s0)
    25fc:	fdc42783          	lw	a5,-36(s0)
    2600:	00c7a783          	lw	a5,12(a5)
    2604:	00c78793          	add	a5,a5,12
    2608:	fe842703          	lw	a4,-24(s0)
    260c:	00e7a023          	sw	a4,0(a5)
}
    2610:	00000013          	nop
    2614:	0000b7b7          	lui	a5,0xb
    2618:	fec42703          	lw	a4,-20(s0)
    261c:	7b87a783          	lw	a5,1976(a5) # b7b8 <__stack_chk_guard>
    2620:	00f747b3          	xor	a5,a4,a5
    2624:	00000713          	li	a4,0
    2628:	00078463          	beqz	a5,2630 <alt_avalon_i2c_int_disable+0x8c>
    262c:	3c9020ef          	jal	51f4 <__stack_chk_fail>
    2630:	02c12083          	lw	ra,44(sp)
    2634:	02812403          	lw	s0,40(sp)
    2638:	03010113          	add	sp,sp,48
    263c:	00008067          	ret

00002640 <alt_avalon_i2c_int_enable>:

/*Enable the specified I2C controller interrupt status conditions identified in
 * the mask. */
void alt_avalon_i2c_int_enable(ALT_AVALON_I2C_DEV_t *i2c_dev, const alt_u32 mask)
{
    2640:	fd010113          	add	sp,sp,-48
    2644:	02112623          	sw	ra,44(sp)
    2648:	02812423          	sw	s0,40(sp)
    264c:	03010413          	add	s0,sp,48
    2650:	fca42e23          	sw	a0,-36(s0)
    2654:	fcb42c23          	sw	a1,-40(s0)
    2658:	0000b7b7          	lui	a5,0xb
    265c:	7b87a703          	lw	a4,1976(a5) # b7b8 <__stack_chk_guard>
    2660:	fee42623          	sw	a4,-20(s0)
    2664:	00000713          	li	a4,0
    alt_u32 enabled_ints;
    
    alt_avalon_i2c_enabled_ints_get(i2c_dev,&enabled_ints);
    2668:	fe440793          	add	a5,s0,-28
    266c:	00078593          	mv	a1,a5
    2670:	fdc42503          	lw	a0,-36(s0)
    2674:	064000ef          	jal	26d8 <alt_avalon_i2c_enabled_ints_get>
    enabled_ints |= mask;
    2678:	fe442703          	lw	a4,-28(s0)
    267c:	fd842783          	lw	a5,-40(s0)
    2680:	00f767b3          	or	a5,a4,a5
    2684:	fef42223          	sw	a5,-28(s0)
    IOWR_ALT_AVALON_I2C_ISER(i2c_dev->i2c_base,ALT_AVALON_I2C_ISR_ALLINTS_MSK & enabled_ints);
    2688:	fe442783          	lw	a5,-28(s0)
    268c:	01f7f793          	and	a5,a5,31
    2690:	fef42423          	sw	a5,-24(s0)
    2694:	fdc42783          	lw	a5,-36(s0)
    2698:	00c7a783          	lw	a5,12(a5)
    269c:	00c78793          	add	a5,a5,12
    26a0:	fe842703          	lw	a4,-24(s0)
    26a4:	00e7a023          	sw	a4,0(a5)
}
    26a8:	00000013          	nop
    26ac:	0000b7b7          	lui	a5,0xb
    26b0:	fec42703          	lw	a4,-20(s0)
    26b4:	7b87a783          	lw	a5,1976(a5) # b7b8 <__stack_chk_guard>
    26b8:	00f747b3          	xor	a5,a4,a5
    26bc:	00000713          	li	a4,0
    26c0:	00078463          	beqz	a5,26c8 <alt_avalon_i2c_int_enable+0x88>
    26c4:	331020ef          	jal	51f4 <__stack_chk_fail>
    26c8:	02c12083          	lw	ra,44(sp)
    26cc:	02812403          	lw	s0,40(sp)
    26d0:	03010113          	add	sp,sp,48
    26d4:	00008067          	ret

000026d8 <alt_avalon_i2c_enabled_ints_get>:

/*gets the enabled i2c interrupts. */
void alt_avalon_i2c_enabled_ints_get(ALT_AVALON_I2C_DEV_t *i2c_dev, alt_u32 * enabled_ints)
{
    26d8:	fd010113          	add	sp,sp,-48
    26dc:	02812623          	sw	s0,44(sp)
    26e0:	03010413          	add	s0,sp,48
    26e4:	fca42e23          	sw	a0,-36(s0)
    26e8:	fcb42c23          	sw	a1,-40(s0)
    *enabled_ints=IORD_ALT_AVALON_I2C_ISER(i2c_dev->i2c_base) & ALT_AVALON_I2C_ISR_ALLINTS_MSK;
    26ec:	fdc42783          	lw	a5,-36(s0)
    26f0:	00c7a783          	lw	a5,12(a5)
    26f4:	00c78793          	add	a5,a5,12
    26f8:	0007a783          	lw	a5,0(a5)
    26fc:	fef42623          	sw	a5,-20(s0)
    2700:	fec42783          	lw	a5,-20(s0)
    2704:	01f7f713          	and	a4,a5,31
    2708:	fd842783          	lw	a5,-40(s0)
    270c:	00e7a023          	sw	a4,0(a5)
}
    2710:	00000013          	nop
    2714:	02c12403          	lw	s0,44(sp)
    2718:	03010113          	add	sp,sp,48
    271c:	00008067          	ret

00002720 <alt_avalon_i2c_rx_fifo_threshold_get>:

/*Gets the current receive FIFO threshold level value. */
void alt_avalon_i2c_rx_fifo_threshold_get(ALT_AVALON_I2C_DEV_t *i2c_dev,
                                              ALT_AVALON_I2C_RX_DATA_FIFO_THRESHOLD_t *threshold)
{
    2720:	fd010113          	add	sp,sp,-48
    2724:	02812623          	sw	s0,44(sp)
    2728:	03010413          	add	s0,sp,48
    272c:	fca42e23          	sw	a0,-36(s0)
    2730:	fcb42c23          	sw	a1,-40(s0)
    *threshold = (IORD_ALT_AVALON_I2C_CTRL(i2c_dev->i2c_base) & ALT_AVALON_I2C_CTRL_RX_DATA_FIFO_THD_MSK) >>  ALT_AVALON_I2C_CTRL_RX_DATA_FIFO_THD_OFST;
    2734:	fdc42783          	lw	a5,-36(s0)
    2738:	00c7a783          	lw	a5,12(a5)
    273c:	00878793          	add	a5,a5,8
    2740:	0007a783          	lw	a5,0(a5)
    2744:	fef42623          	sw	a5,-20(s0)
    2748:	fec42783          	lw	a5,-20(s0)
    274c:	0047d793          	srl	a5,a5,0x4
    2750:	0037f713          	and	a4,a5,3
    2754:	fd842783          	lw	a5,-40(s0)
    2758:	00e7a023          	sw	a4,0(a5)
}
    275c:	00000013          	nop
    2760:	02c12403          	lw	s0,44(sp)
    2764:	03010113          	add	sp,sp,48
    2768:	00008067          	ret

0000276c <alt_avalon_i2c_rx_fifo_threshold_set>:

/*sets the current receive FIFO threshold level value. */
void alt_avalon_i2c_rx_fifo_threshold_set(ALT_AVALON_I2C_DEV_t *i2c_dev,
                                              const ALT_AVALON_I2C_RX_DATA_FIFO_THRESHOLD_t threshold)
{
    276c:	fd010113          	add	sp,sp,-48
    2770:	02812623          	sw	s0,44(sp)
    2774:	03010413          	add	s0,sp,48
    2778:	fca42e23          	sw	a0,-36(s0)
    277c:	fcb42c23          	sw	a1,-40(s0)
    IORMW_ALT_AVALON_I2C_CTRL(i2c_dev->i2c_base,threshold << ALT_AVALON_I2C_CTRL_RX_DATA_FIFO_THD_OFST,ALT_AVALON_I2C_CTRL_RX_DATA_FIFO_THD_MSK);
    2780:	fdc42783          	lw	a5,-36(s0)
    2784:	00c7a783          	lw	a5,12(a5)
    2788:	00878793          	add	a5,a5,8
    278c:	0007a783          	lw	a5,0(a5)
    2790:	fef42423          	sw	a5,-24(s0)
    2794:	fe842783          	lw	a5,-24(s0)
    2798:	fcf7f713          	and	a4,a5,-49
    279c:	fd842783          	lw	a5,-40(s0)
    27a0:	00479793          	sll	a5,a5,0x4
    27a4:	0307f793          	and	a5,a5,48
    27a8:	00f767b3          	or	a5,a4,a5
    27ac:	fef42623          	sw	a5,-20(s0)
    27b0:	fdc42783          	lw	a5,-36(s0)
    27b4:	00c7a783          	lw	a5,12(a5)
    27b8:	00878793          	add	a5,a5,8
    27bc:	fec42703          	lw	a4,-20(s0)
    27c0:	00e7a023          	sw	a4,0(a5)
}
    27c4:	00000013          	nop
    27c8:	02c12403          	lw	s0,44(sp)
    27cc:	03010113          	add	sp,sp,48
    27d0:	00008067          	ret

000027d4 <alt_avalon_i2c_tfr_cmd_fifo_threshold_get>:

/*Gets the current Transfer Command FIFO threshold level value.*/
void alt_avalon_i2c_tfr_cmd_fifo_threshold_get(ALT_AVALON_I2C_DEV_t *i2c_dev,
                                              ALT_AVALON_I2C_TFR_CMD_FIFO_THRESHOLD_t *threshold)
{
    27d4:	fd010113          	add	sp,sp,-48
    27d8:	02812623          	sw	s0,44(sp)
    27dc:	03010413          	add	s0,sp,48
    27e0:	fca42e23          	sw	a0,-36(s0)
    27e4:	fcb42c23          	sw	a1,-40(s0)
    *threshold = (IORD_ALT_AVALON_I2C_CTRL(i2c_dev->i2c_base) & ALT_AVALON_I2C_CTRL_TFR_CMD_FIFO_THD_MSK) >> ALT_AVALON_I2C_CTRL_TFR_CMD_FIFO_THD_OFST;
    27e8:	fdc42783          	lw	a5,-36(s0)
    27ec:	00c7a783          	lw	a5,12(a5)
    27f0:	00878793          	add	a5,a5,8
    27f4:	0007a783          	lw	a5,0(a5)
    27f8:	fef42623          	sw	a5,-20(s0)
    27fc:	fec42783          	lw	a5,-20(s0)
    2800:	0027d793          	srl	a5,a5,0x2
    2804:	0037f713          	and	a4,a5,3
    2808:	fd842783          	lw	a5,-40(s0)
    280c:	00e7a023          	sw	a4,0(a5)
}
    2810:	00000013          	nop
    2814:	02c12403          	lw	s0,44(sp)
    2818:	03010113          	add	sp,sp,48
    281c:	00008067          	ret

00002820 <alt_avalon_i2c_tfr_cmd_fifo_threshold_set>:

/*Sets the current Transfer Command FIFO threshold level value.*/
void alt_avalon_i2c_tfr_cmd_fifo_threshold_set(ALT_AVALON_I2C_DEV_t *i2c_dev,
                                              const ALT_AVALON_I2C_TFR_CMD_FIFO_THRESHOLD_t threshold)
{
    2820:	fd010113          	add	sp,sp,-48
    2824:	02812623          	sw	s0,44(sp)
    2828:	03010413          	add	s0,sp,48
    282c:	fca42e23          	sw	a0,-36(s0)
    2830:	fcb42c23          	sw	a1,-40(s0)
  IORMW_ALT_AVALON_I2C_CTRL(i2c_dev->i2c_base,threshold << ALT_AVALON_I2C_CTRL_TFR_CMD_FIFO_THD_OFST,ALT_AVALON_I2C_CTRL_TFR_CMD_FIFO_THD_MSK);
    2834:	fdc42783          	lw	a5,-36(s0)
    2838:	00c7a783          	lw	a5,12(a5)
    283c:	00878793          	add	a5,a5,8
    2840:	0007a783          	lw	a5,0(a5)
    2844:	fef42423          	sw	a5,-24(s0)
    2848:	fe842783          	lw	a5,-24(s0)
    284c:	ff37f713          	and	a4,a5,-13
    2850:	fd842783          	lw	a5,-40(s0)
    2854:	00279793          	sll	a5,a5,0x2
    2858:	00c7f793          	and	a5,a5,12
    285c:	00f767b3          	or	a5,a4,a5
    2860:	fef42623          	sw	a5,-20(s0)
    2864:	fdc42783          	lw	a5,-36(s0)
    2868:	00c7a783          	lw	a5,12(a5)
    286c:	00878793          	add	a5,a5,8
    2870:	fec42703          	lw	a4,-20(s0)
    2874:	00e7a023          	sw	a4,0(a5)
}
    2878:	00000013          	nop
    287c:	02c12403          	lw	s0,44(sp)
    2880:	03010113          	add	sp,sp,48
    2884:	00008067          	ret

00002888 <altera_avalon_jtag_uart_read_fd>:
 *
 */

int 
altera_avalon_jtag_uart_read_fd(alt_fd* fd, char* buffer, int space)
{
    2888:	fd010113          	add	sp,sp,-48
    288c:	02112623          	sw	ra,44(sp)
    2890:	02812423          	sw	s0,40(sp)
    2894:	03010413          	add	s0,sp,48
    2898:	fca42e23          	sw	a0,-36(s0)
    289c:	fcb42c23          	sw	a1,-40(s0)
    28a0:	fcc42a23          	sw	a2,-44(s0)
    altera_avalon_jtag_uart_dev* dev = (altera_avalon_jtag_uart_dev*) fd->dev; 
    28a4:	fdc42783          	lw	a5,-36(s0)
    28a8:	0007a783          	lw	a5,0(a5)
    28ac:	fef42623          	sw	a5,-20(s0)

    return altera_avalon_jtag_uart_read(&dev->state, buffer, space,
    28b0:	fec42783          	lw	a5,-20(s0)
    28b4:	02878713          	add	a4,a5,40
    28b8:	fdc42783          	lw	a5,-36(s0)
    28bc:	0087a783          	lw	a5,8(a5)
    28c0:	00078693          	mv	a3,a5
    28c4:	fd442603          	lw	a2,-44(s0)
    28c8:	fd842583          	lw	a1,-40(s0)
    28cc:	00070513          	mv	a0,a4
    28d0:	64c000ef          	jal	2f1c <altera_avalon_jtag_uart_read>
    28d4:	00050793          	mv	a5,a0
      fd->fd_flags);
}
    28d8:	00078513          	mv	a0,a5
    28dc:	02c12083          	lw	ra,44(sp)
    28e0:	02812403          	lw	s0,40(sp)
    28e4:	03010113          	add	sp,sp,48
    28e8:	00008067          	ret

000028ec <altera_avalon_jtag_uart_write_fd>:

int 
altera_avalon_jtag_uart_write_fd(alt_fd* fd, const char* buffer, int space)
{
    28ec:	fd010113          	add	sp,sp,-48
    28f0:	02112623          	sw	ra,44(sp)
    28f4:	02812423          	sw	s0,40(sp)
    28f8:	03010413          	add	s0,sp,48
    28fc:	fca42e23          	sw	a0,-36(s0)
    2900:	fcb42c23          	sw	a1,-40(s0)
    2904:	fcc42a23          	sw	a2,-44(s0)
    altera_avalon_jtag_uart_dev* dev = (altera_avalon_jtag_uart_dev*) fd->dev; 
    2908:	fdc42783          	lw	a5,-36(s0)
    290c:	0007a783          	lw	a5,0(a5)
    2910:	fef42623          	sw	a5,-20(s0)

    return altera_avalon_jtag_uart_write(&dev->state, buffer, space,
    2914:	fec42783          	lw	a5,-20(s0)
    2918:	02878713          	add	a4,a5,40
    291c:	fdc42783          	lw	a5,-36(s0)
    2920:	0087a783          	lw	a5,8(a5)
    2924:	00078693          	mv	a3,a5
    2928:	fd442603          	lw	a2,-44(s0)
    292c:	fd842583          	lw	a1,-40(s0)
    2930:	00070513          	mv	a0,a4
    2934:	015000ef          	jal	3148 <altera_avalon_jtag_uart_write>
    2938:	00050793          	mv	a5,a0
      fd->fd_flags);
}
    293c:	00078513          	mv	a0,a5
    2940:	02c12083          	lw	ra,44(sp)
    2944:	02812403          	lw	s0,40(sp)
    2948:	03010113          	add	sp,sp,48
    294c:	00008067          	ret

00002950 <altera_avalon_jtag_uart_close_fd>:

#ifndef ALTERA_AVALON_JTAG_UART_SMALL

int 
altera_avalon_jtag_uart_close_fd(alt_fd* fd)
{
    2950:	fd010113          	add	sp,sp,-48
    2954:	02112623          	sw	ra,44(sp)
    2958:	02812423          	sw	s0,40(sp)
    295c:	03010413          	add	s0,sp,48
    2960:	fca42e23          	sw	a0,-36(s0)
    altera_avalon_jtag_uart_dev* dev = (altera_avalon_jtag_uart_dev*) fd->dev; 
    2964:	fdc42783          	lw	a5,-36(s0)
    2968:	0007a783          	lw	a5,0(a5)
    296c:	fef42623          	sw	a5,-20(s0)

    return altera_avalon_jtag_uart_close(&dev->state, fd->fd_flags);
    2970:	fec42783          	lw	a5,-20(s0)
    2974:	02878713          	add	a4,a5,40
    2978:	fdc42783          	lw	a5,-36(s0)
    297c:	0087a783          	lw	a5,8(a5)
    2980:	00078593          	mv	a1,a5
    2984:	00070513          	mv	a0,a4
    2988:	428000ef          	jal	2db0 <altera_avalon_jtag_uart_close>
    298c:	00050793          	mv	a5,a0
}
    2990:	00078513          	mv	a0,a5
    2994:	02c12083          	lw	ra,44(sp)
    2998:	02812403          	lw	s0,40(sp)
    299c:	03010113          	add	sp,sp,48
    29a0:	00008067          	ret

000029a4 <altera_avalon_jtag_uart_ioctl_fd>:

int 
altera_avalon_jtag_uart_ioctl_fd(alt_fd* fd, int req, void* arg)
{
    29a4:	fd010113          	add	sp,sp,-48
    29a8:	02112623          	sw	ra,44(sp)
    29ac:	02812423          	sw	s0,40(sp)
    29b0:	03010413          	add	s0,sp,48
    29b4:	fca42e23          	sw	a0,-36(s0)
    29b8:	fcb42c23          	sw	a1,-40(s0)
    29bc:	fcc42a23          	sw	a2,-44(s0)
    altera_avalon_jtag_uart_dev* dev = (altera_avalon_jtag_uart_dev*) fd->dev;
    29c0:	fdc42783          	lw	a5,-36(s0)
    29c4:	0007a783          	lw	a5,0(a5)
    29c8:	fef42623          	sw	a5,-20(s0)

    return altera_avalon_jtag_uart_ioctl(&dev->state, req, arg);
    29cc:	fec42783          	lw	a5,-20(s0)
    29d0:	02878793          	add	a5,a5,40
    29d4:	fd442603          	lw	a2,-44(s0)
    29d8:	fd842583          	lw	a1,-40(s0)
    29dc:	00078513          	mv	a0,a5
    29e0:	43c000ef          	jal	2e1c <altera_avalon_jtag_uart_ioctl>
    29e4:	00050793          	mv	a5,a0
}
    29e8:	00078513          	mv	a0,a5
    29ec:	02c12083          	lw	ra,44(sp)
    29f0:	02812403          	lw	s0,40(sp)
    29f4:	03010113          	add	sp,sp,48
    29f8:	00008067          	ret

000029fc <altera_avalon_jtag_uart_init>:
 * Return 1 on sucessful IRQ register and 0 on failure.
 */

void altera_avalon_jtag_uart_init(altera_avalon_jtag_uart_state* sp, 
                                  int irq_controller_id, int irq)
{
    29fc:	fd010113          	add	sp,sp,-48
    2a00:	02112623          	sw	ra,44(sp)
    2a04:	02812423          	sw	s0,40(sp)
    2a08:	03010413          	add	s0,sp,48
    2a0c:	fca42e23          	sw	a0,-36(s0)
    2a10:	fcb42c23          	sw	a1,-40(s0)
    2a14:	fcc42a23          	sw	a2,-44(s0)
  ALT_FLAG_CREATE(&sp->events, 0);
  ALT_SEM_CREATE(&sp->read_lock, 1);
  ALT_SEM_CREATE(&sp->write_lock, 1);

  /* enable read interrupts at the device */
  sp->irq_enable = ALTERA_AVALON_JTAG_UART_CONTROL_RE_MSK;
    2a18:	fdc42783          	lw	a5,-36(s0)
    2a1c:	00100713          	li	a4,1
    2a20:	02e7a023          	sw	a4,32(a5)

  IOWR_ALTERA_AVALON_JTAG_UART_CONTROL(sp->base, sp->irq_enable); 
    2a24:	fdc42783          	lw	a5,-36(s0)
    2a28:	0207a783          	lw	a5,32(a5)
    2a2c:	fef42623          	sw	a5,-20(s0)
    2a30:	fdc42783          	lw	a5,-36(s0)
    2a34:	0007a783          	lw	a5,0(a5)
    2a38:	00478793          	add	a5,a5,4
    2a3c:	00078713          	mv	a4,a5
    2a40:	fec42783          	lw	a5,-20(s0)
    2a44:	00f72023          	sw	a5,0(a4)
  
  /* register the interrupt handler */
#ifdef ALT_ENHANCED_INTERRUPT_API_PRESENT
  alt_ic_isr_register(irq_controller_id, irq, altera_avalon_jtag_uart_irq, 
    2a48:	fd842503          	lw	a0,-40(s0)
    2a4c:	fd442583          	lw	a1,-44(s0)
    2a50:	00000713          	li	a4,0
    2a54:	fdc42683          	lw	a3,-36(s0)
    2a58:	000037b7          	lui	a5,0x3
    2a5c:	abc78613          	add	a2,a5,-1348 # 2abc <altera_avalon_jtag_uart_irq>
    2a60:	67d000ef          	jal	38dc <alt_ic_isr_register>
#else
  alt_irq_register(irq, sp, altera_avalon_jtag_uart_irq);
#endif  

  /* Register an alarm to go off every second to check for presence of host */
  sp->host_inactive = 0;
    2a64:	fdc42783          	lw	a5,-36(s0)
    2a68:	0207a223          	sw	zero,36(a5)

  if (alt_alarm_start(&sp->alarm, alt_ticks_per_second(), 
    2a6c:	fdc42783          	lw	a5,-36(s0)
    2a70:	00878713          	add	a4,a5,8
  return _alt_tick_rate;
    2a74:	0000b7b7          	lui	a5,0xb
    2a78:	7787a583          	lw	a1,1912(a5) # b778 <_alt_tick_rate>
    2a7c:	fdc42683          	lw	a3,-36(s0)
    2a80:	000037b7          	lui	a5,0x3
    2a84:	cf478613          	add	a2,a5,-780 # 2cf4 <altera_avalon_jtag_uart_timeout>
    2a88:	00070513          	mv	a0,a4
    2a8c:	0f9000ef          	jal	3384 <alt_alarm_start>
    2a90:	00050793          	mv	a5,a0
    2a94:	0007da63          	bgez	a5,2aa8 <altera_avalon_jtag_uart_init+0xac>
    &altera_avalon_jtag_uart_timeout, sp) < 0)
  {
    /* If we can't set the alarm then record "don't know if host present" 
     * and behave as though the host is present.
     */
    sp->timeout = INT_MAX;
    2a98:	fdc42783          	lw	a5,-36(s0)
    2a9c:	80000737          	lui	a4,0x80000
    2aa0:	fff70713          	add	a4,a4,-1 # 7fffffff <__alt_data_end+0x7ffdffff>
    2aa4:	00e7a223          	sw	a4,4(a5)
  }

  /* ALT_LOG - see altera_hal/HAL/inc/sys/alt_log_printf.h */ 
  ALT_LOG_JTAG_UART_ALARM_REGISTER(sp, sp->base);
}
    2aa8:	00000013          	nop
    2aac:	02c12083          	lw	ra,44(sp)
    2ab0:	02812403          	lw	s0,40(sp)
    2ab4:	03010113          	add	sp,sp,48
    2ab8:	00008067          	ret

00002abc <altera_avalon_jtag_uart_irq>:
#ifdef ALT_ENHANCED_INTERRUPT_API_PRESENT
static void altera_avalon_jtag_uart_irq(void* context)
#else
static void altera_avalon_jtag_uart_irq(void* context, alt_u32 id)
#endif
{
    2abc:	fa010113          	add	sp,sp,-96
    2ac0:	04812e23          	sw	s0,92(sp)
    2ac4:	06010413          	add	s0,sp,96
    2ac8:	faa42623          	sw	a0,-84(s0)
  altera_avalon_jtag_uart_state* sp = (altera_avalon_jtag_uart_state*) context;
    2acc:	fac42783          	lw	a5,-84(s0)
    2ad0:	fcf42223          	sw	a5,-60(s0)
  unsigned int base = sp->base;
    2ad4:	fc442783          	lw	a5,-60(s0)
    2ad8:	0007a783          	lw	a5,0(a5)
    2adc:	fcf42423          	sw	a5,-56(s0)
  unsigned int postflag=0;
    2ae0:	fa042c23          	sw	zero,-72(s0)
  /* ALT_LOG - see altera_hal/HAL/inc/sys/alt_log_printf.h */ 
  ALT_LOG_JTAG_UART_ISR_FUNCTION(base, sp);

  for ( ; ; )
  {
    unsigned int control = IORD_ALTERA_AVALON_JTAG_UART_CONTROL(base);
    2ae4:	fc842783          	lw	a5,-56(s0)
    2ae8:	00478793          	add	a5,a5,4
    2aec:	0007a783          	lw	a5,0(a5)
    2af0:	fcf42623          	sw	a5,-52(s0)
    2af4:	fcc42783          	lw	a5,-52(s0)
    2af8:	fcf42823          	sw	a5,-48(s0)

    /* Return once nothing more to do */
    if ((control & (ALTERA_AVALON_JTAG_UART_CONTROL_RI_MSK | ALTERA_AVALON_JTAG_UART_CONTROL_WI_MSK)) == 0)
    2afc:	fd042783          	lw	a5,-48(s0)
    2b00:	3007f793          	and	a5,a5,768
    2b04:	1c078e63          	beqz	a5,2ce0 <altera_avalon_jtag_uart_irq+0x224>
      break;

    if (control & ALTERA_AVALON_JTAG_UART_CONTROL_RI_MSK)
    2b08:	fd042783          	lw	a5,-48(s0)
    2b0c:	1007f793          	and	a5,a5,256
    2b10:	0e078663          	beqz	a5,2bfc <altera_avalon_jtag_uart_irq+0x140>
    {
      /* process a read irq.  Start by assuming that there is data in the
       * receive FIFO (otherwise why would we have been interrupted?)
       */
      unsigned int data = 1 << ALTERA_AVALON_JTAG_UART_DATA_RAVAIL_OFST;
    2b14:	000107b7          	lui	a5,0x10
    2b18:	faf42e23          	sw	a5,-68(s0)
      for ( ; ; )
      {
        /* Check whether there is space in the buffer.  If not then we must not
         * read any characters from the buffer as they will be lost.
         */
        unsigned int next = (sp->rx_in + 1) % ALTERA_AVALON_JTAG_UART_BUF_LEN;
    2b1c:	fc442783          	lw	a5,-60(s0)
    2b20:	0287a783          	lw	a5,40(a5) # 10028 <__alt_heap_start+0x44e8>
    2b24:	00178793          	add	a5,a5,1
    2b28:	7ff7f793          	and	a5,a5,2047
    2b2c:	fcf42a23          	sw	a5,-44(s0)
        if (next == sp->rx_out)
    2b30:	fc442783          	lw	a5,-60(s0)
    2b34:	02c7a783          	lw	a5,44(a5)
    2b38:	fd442703          	lw	a4,-44(s0)
    2b3c:	06f70263          	beq	a4,a5,2ba0 <altera_avalon_jtag_uart_irq+0xe4>
          break;

        /* Try to remove a character from the FIFO and find out whether there
         * are any more characters remaining.
         */
        data = IORD_ALTERA_AVALON_JTAG_UART_DATA(base);
    2b40:	fc842783          	lw	a5,-56(s0)
    2b44:	0007a783          	lw	a5,0(a5)
    2b48:	fcf42c23          	sw	a5,-40(s0)
    2b4c:	fd842783          	lw	a5,-40(s0)
    2b50:	faf42e23          	sw	a5,-68(s0)
        
        if ((data & ALTERA_AVALON_JTAG_UART_DATA_RVALID_MSK) == 0)
    2b54:	fbc42703          	lw	a4,-68(s0)
    2b58:	000087b7          	lui	a5,0x8
    2b5c:	00f777b3          	and	a5,a4,a5
    2b60:	04078463          	beqz	a5,2ba8 <altera_avalon_jtag_uart_irq+0xec>
          break;

        sp->rx_buf[sp->rx_in] = (data & ALTERA_AVALON_JTAG_UART_DATA_DATA_MSK) >> ALTERA_AVALON_JTAG_UART_DATA_DATA_OFST;
    2b64:	fc442783          	lw	a5,-60(s0)
    2b68:	0287a783          	lw	a5,40(a5) # 8028 <alt_file_locked+0x80>
    2b6c:	fbc42703          	lw	a4,-68(s0)
    2b70:	0ff77713          	zext.b	a4,a4
    2b74:	fc442683          	lw	a3,-60(s0)
    2b78:	00f687b3          	add	a5,a3,a5
    2b7c:	02e78c23          	sb	a4,56(a5)
        sp->rx_in = (sp->rx_in + 1) % ALTERA_AVALON_JTAG_UART_BUF_LEN;
    2b80:	fc442783          	lw	a5,-60(s0)
    2b84:	0287a783          	lw	a5,40(a5)
    2b88:	00178793          	add	a5,a5,1
    2b8c:	7ff7f713          	and	a4,a5,2047
    2b90:	fc442783          	lw	a5,-60(s0)
    2b94:	02e7a423          	sw	a4,40(a5)
    2b98:	00000013          	nop
      {
    2b9c:	f81ff06f          	j	2b1c <altera_avalon_jtag_uart_irq+0x60>
          break;
    2ba0:	00000013          	nop
    2ba4:	0080006f          	j	2bac <altera_avalon_jtag_uart_irq+0xf0>
          break;
    2ba8:	00000013          	nop

        /* Post an event to notify jtag_uart_read that a character has been read */
        ALT_FLAG_POST (sp->events, ALT_JTAG_UART_READ_RDY, ALT_FLAG_SET);
      }

      if (data & ALTERA_AVALON_JTAG_UART_DATA_RAVAIL_MSK)
    2bac:	fbc42703          	lw	a4,-68(s0)
    2bb0:	000107b7          	lui	a5,0x10
    2bb4:	04f76463          	bltu	a4,a5,2bfc <altera_avalon_jtag_uart_irq+0x140>
      {
        /* If there is still data available here then the buffer is full 
         * so turn off receive interrupts until some space becomes available.
         */
        sp->irq_enable &= ~ALTERA_AVALON_JTAG_UART_CONTROL_RE_MSK;
    2bb8:	fc442783          	lw	a5,-60(s0)
    2bbc:	0207a783          	lw	a5,32(a5) # 10020 <__alt_heap_start+0x44e0>
    2bc0:	ffe7f713          	and	a4,a5,-2
    2bc4:	fc442783          	lw	a5,-60(s0)
    2bc8:	02e7a023          	sw	a4,32(a5)
        IOWR_ALTERA_AVALON_JTAG_UART_CONTROL(base, sp->irq_enable);
    2bcc:	fc442783          	lw	a5,-60(s0)
    2bd0:	0207a783          	lw	a5,32(a5)
    2bd4:	fcf42e23          	sw	a5,-36(s0)
    2bd8:	fc842783          	lw	a5,-56(s0)
    2bdc:	00478793          	add	a5,a5,4
    2be0:	00078713          	mv	a4,a5
    2be4:	fdc42783          	lw	a5,-36(s0)
    2be8:	00f72023          	sw	a5,0(a4)
        
        /* Dummy read to ensure IRQ is cleared prior to ISR completion */
        IORD_ALTERA_AVALON_JTAG_UART_CONTROL(base);
    2bec:	fc842783          	lw	a5,-56(s0)
    2bf0:	00478793          	add	a5,a5,4
    2bf4:	0007a783          	lw	a5,0(a5)
    2bf8:	fef42023          	sw	a5,-32(s0)
      }
    }

    if (control & ALTERA_AVALON_JTAG_UART_CONTROL_WI_MSK)
    2bfc:	fd042783          	lw	a5,-48(s0)
    2c00:	2007f793          	and	a5,a5,512
    2c04:	ee0780e3          	beqz	a5,2ae4 <altera_avalon_jtag_uart_irq+0x28>
    {
      /* process a write irq */
      unsigned int space = (control & ALTERA_AVALON_JTAG_UART_CONTROL_WSPACE_MSK) >> ALTERA_AVALON_JTAG_UART_CONTROL_WSPACE_OFST;
    2c08:	fd042783          	lw	a5,-48(s0)
    2c0c:	0107d793          	srl	a5,a5,0x10
    2c10:	fcf42023          	sw	a5,-64(s0)

      while (space > 0 && sp->tx_out != sp->tx_in)
    2c14:	05c0006f          	j	2c70 <altera_avalon_jtag_uart_irq+0x1b4>
      {
        IOWR_ALTERA_AVALON_JTAG_UART_DATA(base, sp->tx_buf[sp->tx_out]);
    2c18:	fc442783          	lw	a5,-60(s0)
    2c1c:	0347a783          	lw	a5,52(a5)
    2c20:	fc442703          	lw	a4,-60(s0)
    2c24:	00f707b3          	add	a5,a4,a5
    2c28:	00001737          	lui	a4,0x1
    2c2c:	00f707b3          	add	a5,a4,a5
    2c30:	8387c783          	lbu	a5,-1992(a5)
    2c34:	fef42223          	sw	a5,-28(s0)
    2c38:	fc842783          	lw	a5,-56(s0)
    2c3c:	fe442703          	lw	a4,-28(s0)
    2c40:	00e7a023          	sw	a4,0(a5)

        sp->tx_out = (sp->tx_out + 1) % ALTERA_AVALON_JTAG_UART_BUF_LEN;
    2c44:	fc442783          	lw	a5,-60(s0)
    2c48:	0347a783          	lw	a5,52(a5)
    2c4c:	00178793          	add	a5,a5,1
    2c50:	7ff7f713          	and	a4,a5,2047
    2c54:	fc442783          	lw	a5,-60(s0)
    2c58:	02e7aa23          	sw	a4,52(a5)
        
        /* indicate that the ALT_FLAG_POST routine must be called */
        postflag=1;
    2c5c:	00100793          	li	a5,1
    2c60:	faf42c23          	sw	a5,-72(s0)

        space--;
    2c64:	fc042783          	lw	a5,-64(s0)
    2c68:	fff78793          	add	a5,a5,-1
    2c6c:	fcf42023          	sw	a5,-64(s0)
      while (space > 0 && sp->tx_out != sp->tx_in)
    2c70:	fc042783          	lw	a5,-64(s0)
    2c74:	00078c63          	beqz	a5,2c8c <altera_avalon_jtag_uart_irq+0x1d0>
    2c78:	fc442783          	lw	a5,-60(s0)
    2c7c:	0347a703          	lw	a4,52(a5)
    2c80:	fc442783          	lw	a5,-60(s0)
    2c84:	0307a783          	lw	a5,48(a5)
    2c88:	f8f718e3          	bne	a4,a5,2c18 <altera_avalon_jtag_uart_irq+0x15c>
      {
        /* Post an event to notify jtag_uart_write that a character has been written */
        ALT_FLAG_POST (sp->events, ALT_JTAG_UART_WRITE_RDY, ALT_FLAG_SET);
      }

      if (space > 0)
    2c8c:	fc042783          	lw	a5,-64(s0)
    2c90:	e4078ae3          	beqz	a5,2ae4 <altera_avalon_jtag_uart_irq+0x28>
      {
        /* If we don't have any more data available then turn off the TX interrupt */
        sp->irq_enable &= ~ALTERA_AVALON_JTAG_UART_CONTROL_WE_MSK;
    2c94:	fc442783          	lw	a5,-60(s0)
    2c98:	0207a783          	lw	a5,32(a5)
    2c9c:	ffd7f713          	and	a4,a5,-3
    2ca0:	fc442783          	lw	a5,-60(s0)
    2ca4:	02e7a023          	sw	a4,32(a5)
        IOWR_ALTERA_AVALON_JTAG_UART_CONTROL(sp->base, sp->irq_enable);
    2ca8:	fc442783          	lw	a5,-60(s0)
    2cac:	0207a783          	lw	a5,32(a5)
    2cb0:	fef42423          	sw	a5,-24(s0)
    2cb4:	fc442783          	lw	a5,-60(s0)
    2cb8:	0007a783          	lw	a5,0(a5)
    2cbc:	00478793          	add	a5,a5,4
    2cc0:	00078713          	mv	a4,a5
    2cc4:	fe842783          	lw	a5,-24(s0)
    2cc8:	00f72023          	sw	a5,0(a4) # 1000 <alt_avalon_i2c_master_config_speed_get+0x24>
        
        /* Dummy read to ensure IRQ is cleared prior to ISR completion */
        IORD_ALTERA_AVALON_JTAG_UART_CONTROL(base);
    2ccc:	fc842783          	lw	a5,-56(s0)
    2cd0:	00478793          	add	a5,a5,4
    2cd4:	0007a783          	lw	a5,0(a5)
    2cd8:	fef42623          	sw	a5,-20(s0)
  {
    2cdc:	e09ff06f          	j	2ae4 <altera_avalon_jtag_uart_irq+0x28>
      break;
    2ce0:	00000013          	nop
      }
    }
  }
}
    2ce4:	00000013          	nop
    2ce8:	05c12403          	lw	s0,92(sp)
    2cec:	06010113          	add	sp,sp,96
    2cf0:	00008067          	ret

00002cf4 <altera_avalon_jtag_uart_timeout>:
 * Timeout routine is called every second
 */

static alt_u32 
altera_avalon_jtag_uart_timeout(void* context) 
{
    2cf4:	fd010113          	add	sp,sp,-48
    2cf8:	02812623          	sw	s0,44(sp)
    2cfc:	03010413          	add	s0,sp,48
    2d00:	fca42e23          	sw	a0,-36(s0)
  altera_avalon_jtag_uart_state* sp = (altera_avalon_jtag_uart_state *) context;
    2d04:	fdc42783          	lw	a5,-36(s0)
    2d08:	fef42023          	sw	a5,-32(s0)

  unsigned int control = IORD_ALTERA_AVALON_JTAG_UART_CONTROL(sp->base);
    2d0c:	fe042783          	lw	a5,-32(s0)
    2d10:	0007a783          	lw	a5,0(a5)
    2d14:	00478793          	add	a5,a5,4
    2d18:	0007a783          	lw	a5,0(a5)
    2d1c:	fef42223          	sw	a5,-28(s0)
    2d20:	fe442783          	lw	a5,-28(s0)
    2d24:	fef42423          	sw	a5,-24(s0)

  if (control & ALTERA_AVALON_JTAG_UART_CONTROL_AC_MSK)
    2d28:	fe842783          	lw	a5,-24(s0)
    2d2c:	4007f793          	and	a5,a5,1024
    2d30:	02078c63          	beqz	a5,2d68 <altera_avalon_jtag_uart_timeout+0x74>
  {
    IOWR_ALTERA_AVALON_JTAG_UART_CONTROL(sp->base, sp->irq_enable | ALTERA_AVALON_JTAG_UART_CONTROL_AC_MSK);
    2d34:	fe042783          	lw	a5,-32(s0)
    2d38:	0207a783          	lw	a5,32(a5)
    2d3c:	4007e793          	or	a5,a5,1024
    2d40:	fef42623          	sw	a5,-20(s0)
    2d44:	fe042783          	lw	a5,-32(s0)
    2d48:	0007a783          	lw	a5,0(a5)
    2d4c:	00478793          	add	a5,a5,4
    2d50:	00078713          	mv	a4,a5
    2d54:	fec42783          	lw	a5,-20(s0)
    2d58:	00f72023          	sw	a5,0(a4)
    sp->host_inactive = 0;
    2d5c:	fe042783          	lw	a5,-32(s0)
    2d60:	0207a223          	sw	zero,36(a5)
    2d64:	0340006f          	j	2d98 <altera_avalon_jtag_uart_timeout+0xa4>
  }
  else if (sp->host_inactive < INT_MAX - 2) {
    2d68:	fe042783          	lw	a5,-32(s0)
    2d6c:	0247a703          	lw	a4,36(a5)
    2d70:	800007b7          	lui	a5,0x80000
    2d74:	ffc78793          	add	a5,a5,-4 # 7ffffffc <__alt_data_end+0x7ffdfffc>
    2d78:	02e7e063          	bltu	a5,a4,2d98 <altera_avalon_jtag_uart_timeout+0xa4>
    sp->host_inactive++;
    2d7c:	fe042783          	lw	a5,-32(s0)
    2d80:	0247a783          	lw	a5,36(a5)
    2d84:	00178713          	add	a4,a5,1
    2d88:	fe042783          	lw	a5,-32(s0)
    2d8c:	02e7a223          	sw	a4,36(a5)
    
    if (sp->host_inactive >= sp->timeout) {
    2d90:	fe042783          	lw	a5,-32(s0)
    2d94:	0247a783          	lw	a5,36(a5)
    2d98:	0000b7b7          	lui	a5,0xb
    2d9c:	7787a783          	lw	a5,1912(a5) # b778 <_alt_tick_rate>
      ALT_FLAG_POST (sp->events, ALT_JTAG_UART_TIMEOUT, ALT_FLAG_SET);
    }
  }

  return alt_ticks_per_second();
}
    2da0:	00078513          	mv	a0,a5
    2da4:	02c12403          	lw	s0,44(sp)
    2da8:	03010113          	add	sp,sp,48
    2dac:	00008067          	ret

00002db0 <altera_avalon_jtag_uart_close>:
 * The close routine is not implemented for the small driver; instead it will
 * map to null. This is because the small driver simply waits while characters
 * are transmitted; there is no interrupt-serviced buffer to empty 
 */
int altera_avalon_jtag_uart_close(altera_avalon_jtag_uart_state* sp, int flags)
{
    2db0:	fe010113          	add	sp,sp,-32
    2db4:	00812e23          	sw	s0,28(sp)
    2db8:	02010413          	add	s0,sp,32
    2dbc:	fea42623          	sw	a0,-20(s0)
    2dc0:	feb42423          	sw	a1,-24(s0)
  /* 
   * Wait for all transmit data to be emptied by the JTAG UART ISR, or
   * for a host-inactivity timeout, in which case transmit data will be lost
   */
  while ( (sp->tx_out != sp->tx_in) && (sp->host_inactive < sp->timeout) ) {
    2dc4:	01c0006f          	j	2de0 <altera_avalon_jtag_uart_close+0x30>
    if (flags & O_NONBLOCK) {
    2dc8:	fe842703          	lw	a4,-24(s0)
    2dcc:	000047b7          	lui	a5,0x4
    2dd0:	00f777b3          	and	a5,a4,a5
    2dd4:	00078663          	beqz	a5,2de0 <altera_avalon_jtag_uart_close+0x30>
      return -EWOULDBLOCK; 
    2dd8:	ff500793          	li	a5,-11
    2ddc:	0300006f          	j	2e0c <altera_avalon_jtag_uart_close+0x5c>
  while ( (sp->tx_out != sp->tx_in) && (sp->host_inactive < sp->timeout) ) {
    2de0:	fec42783          	lw	a5,-20(s0)
    2de4:	0347a703          	lw	a4,52(a5) # 4034 <alt_tick+0x10>
    2de8:	fec42783          	lw	a5,-20(s0)
    2dec:	0307a783          	lw	a5,48(a5)
    2df0:	00f70c63          	beq	a4,a5,2e08 <altera_avalon_jtag_uart_close+0x58>
    2df4:	fec42783          	lw	a5,-20(s0)
    2df8:	0247a703          	lw	a4,36(a5)
    2dfc:	fec42783          	lw	a5,-20(s0)
    2e00:	0047a783          	lw	a5,4(a5)
    2e04:	fcf762e3          	bltu	a4,a5,2dc8 <altera_avalon_jtag_uart_close+0x18>
    }
  }

  return 0;
    2e08:	00000793          	li	a5,0
}
    2e0c:	00078513          	mv	a0,a5
    2e10:	01c12403          	lw	s0,28(sp)
    2e14:	02010113          	add	sp,sp,32
    2e18:	00008067          	ret

00002e1c <altera_avalon_jtag_uart_ioctl>:
/* ----------------------------------------------------------- */

int 
altera_avalon_jtag_uart_ioctl(altera_avalon_jtag_uart_state* sp, int req,
  void* arg)
{
    2e1c:	fd010113          	add	sp,sp,-48
    2e20:	02812623          	sw	s0,44(sp)
    2e24:	03010413          	add	s0,sp,48
    2e28:	fca42e23          	sw	a0,-36(s0)
    2e2c:	fcb42c23          	sw	a1,-40(s0)
    2e30:	fcc42a23          	sw	a2,-44(s0)
  int rc = -ENOTTY;
    2e34:	fe700793          	li	a5,-25
    2e38:	fef42423          	sw	a5,-24(s0)

  switch (req)
    2e3c:	fd842703          	lw	a4,-40(s0)
    2e40:	000077b7          	lui	a5,0x7
    2e44:	a0178793          	add	a5,a5,-1535 # 6a01 <__smakebuf_r+0x1d>
    2e48:	00f70c63          	beq	a4,a5,2e60 <altera_avalon_jtag_uart_ioctl+0x44>
    2e4c:	fd842703          	lw	a4,-40(s0)
    2e50:	000077b7          	lui	a5,0x7
    2e54:	a0278793          	add	a5,a5,-1534 # 6a02 <__smakebuf_r+0x1e>
    2e58:	06f70263          	beq	a4,a5,2ebc <altera_avalon_jtag_uart_ioctl+0xa0>
      rc = 0;
    }
    break;

  default:
    break;
    2e5c:	0ac0006f          	j	2f08 <altera_avalon_jtag_uart_ioctl+0xec>
    if (sp->timeout != INT_MAX)
    2e60:	fdc42783          	lw	a5,-36(s0)
    2e64:	0047a703          	lw	a4,4(a5)
    2e68:	800007b7          	lui	a5,0x80000
    2e6c:	fff78793          	add	a5,a5,-1 # 7fffffff <__alt_data_end+0x7ffdffff>
    2e70:	08f70663          	beq	a4,a5,2efc <altera_avalon_jtag_uart_ioctl+0xe0>
      int timeout = *((int *)arg);
    2e74:	fd442783          	lw	a5,-44(s0)
    2e78:	0007a783          	lw	a5,0(a5)
    2e7c:	fef42623          	sw	a5,-20(s0)
      sp->timeout = (timeout >= 2 && timeout < INT_MAX) ? timeout : INT_MAX - 1;
    2e80:	fec42703          	lw	a4,-20(s0)
    2e84:	00100793          	li	a5,1
    2e88:	00e7de63          	bge	a5,a4,2ea4 <altera_avalon_jtag_uart_ioctl+0x88>
    2e8c:	fec42703          	lw	a4,-20(s0)
    2e90:	800007b7          	lui	a5,0x80000
    2e94:	fff78793          	add	a5,a5,-1 # 7fffffff <__alt_data_end+0x7ffdffff>
    2e98:	00f70663          	beq	a4,a5,2ea4 <altera_avalon_jtag_uart_ioctl+0x88>
    2e9c:	fec42783          	lw	a5,-20(s0)
    2ea0:	00c0006f          	j	2eac <altera_avalon_jtag_uart_ioctl+0x90>
    2ea4:	800007b7          	lui	a5,0x80000
    2ea8:	ffe78793          	add	a5,a5,-2 # 7ffffffe <__alt_data_end+0x7ffdfffe>
    2eac:	fdc42703          	lw	a4,-36(s0)
    2eb0:	00f72223          	sw	a5,4(a4)
      rc = 0;
    2eb4:	fe042423          	sw	zero,-24(s0)
    break;
    2eb8:	0440006f          	j	2efc <altera_avalon_jtag_uart_ioctl+0xe0>
    if (sp->timeout != INT_MAX)
    2ebc:	fdc42783          	lw	a5,-36(s0)
    2ec0:	0047a703          	lw	a4,4(a5)
    2ec4:	800007b7          	lui	a5,0x80000
    2ec8:	fff78793          	add	a5,a5,-1 # 7fffffff <__alt_data_end+0x7ffdffff>
    2ecc:	02f70c63          	beq	a4,a5,2f04 <altera_avalon_jtag_uart_ioctl+0xe8>
      *((int *)arg) = (sp->host_inactive < sp->timeout) ? 1 : 0;
    2ed0:	fdc42783          	lw	a5,-36(s0)
    2ed4:	0247a703          	lw	a4,36(a5)
    2ed8:	fdc42783          	lw	a5,-36(s0)
    2edc:	0047a783          	lw	a5,4(a5)
    2ee0:	00f737b3          	sltu	a5,a4,a5
    2ee4:	0ff7f793          	zext.b	a5,a5
    2ee8:	00078713          	mv	a4,a5
    2eec:	fd442783          	lw	a5,-44(s0)
    2ef0:	00e7a023          	sw	a4,0(a5)
      rc = 0;
    2ef4:	fe042423          	sw	zero,-24(s0)
    break;
    2ef8:	00c0006f          	j	2f04 <altera_avalon_jtag_uart_ioctl+0xe8>
    break;
    2efc:	00000013          	nop
    2f00:	0080006f          	j	2f08 <altera_avalon_jtag_uart_ioctl+0xec>
    break;
    2f04:	00000013          	nop
  }

  return rc;
    2f08:	fe842783          	lw	a5,-24(s0)
}
    2f0c:	00078513          	mv	a0,a5
    2f10:	02c12403          	lw	s0,44(sp)
    2f14:	03010113          	add	sp,sp,48
    2f18:	00008067          	ret

00002f1c <altera_avalon_jtag_uart_read>:
/* ----------------------------------------------------------- */

int 
altera_avalon_jtag_uart_read(altera_avalon_jtag_uart_state* sp, 
  char * buffer, int space, int flags)
{
    2f1c:	fc010113          	add	sp,sp,-64
    2f20:	02112e23          	sw	ra,60(sp)
    2f24:	02812c23          	sw	s0,56(sp)
    2f28:	04010413          	add	s0,sp,64
    2f2c:	fca42623          	sw	a0,-52(s0)
    2f30:	fcb42423          	sw	a1,-56(s0)
    2f34:	fcc42223          	sw	a2,-60(s0)
    2f38:	fcd42023          	sw	a3,-64(s0)
  char * ptr = buffer;
    2f3c:	fc842783          	lw	a5,-56(s0)
    2f40:	fcf42823          	sw	a5,-48(s0)
   * When running in a multi threaded environment, obtain the "read_lock"
   * semaphore. This ensures that reading from the device is thread-safe.
   */
  ALT_SEM_PEND (sp->read_lock, 0);

  while (space > 0)
    2f44:	1280006f          	j	306c <altera_avalon_jtag_uart_read+0x150>
    unsigned int in, out;

    /* Read as much data as possible */
    do
    {
      in  = sp->rx_in;
    2f48:	fcc42783          	lw	a5,-52(s0)
    2f4c:	0287a783          	lw	a5,40(a5)
    2f50:	fcf42c23          	sw	a5,-40(s0)
      out = sp->rx_out;
    2f54:	fcc42783          	lw	a5,-52(s0)
    2f58:	02c7a783          	lw	a5,44(a5)
    2f5c:	fcf42e23          	sw	a5,-36(s0)

      if (in >= out)
    2f60:	fd842703          	lw	a4,-40(s0)
    2f64:	fdc42783          	lw	a5,-36(s0)
    2f68:	00f76c63          	bltu	a4,a5,2f80 <altera_avalon_jtag_uart_read+0x64>
        n = in - out;
    2f6c:	fd842703          	lw	a4,-40(s0)
    2f70:	fdc42783          	lw	a5,-36(s0)
    2f74:	40f707b3          	sub	a5,a4,a5
    2f78:	fcf42a23          	sw	a5,-44(s0)
    2f7c:	0180006f          	j	2f94 <altera_avalon_jtag_uart_read+0x78>
      else
        n = ALTERA_AVALON_JTAG_UART_BUF_LEN - out;
    2f80:	000017b7          	lui	a5,0x1
    2f84:	80078713          	add	a4,a5,-2048 # 800 <alt_main+0x20>
    2f88:	fdc42783          	lw	a5,-36(s0)
    2f8c:	40f707b3          	sub	a5,a4,a5
    2f90:	fcf42a23          	sw	a5,-44(s0)

      if (n == 0)
    2f94:	fd442783          	lw	a5,-44(s0)
    2f98:	06078e63          	beqz	a5,3014 <altera_avalon_jtag_uart_read+0xf8>
        break; /* No more data available */

      if (n > space)
    2f9c:	fc442783          	lw	a5,-60(s0)
    2fa0:	fd442703          	lw	a4,-44(s0)
    2fa4:	00e7f663          	bgeu	a5,a4,2fb0 <altera_avalon_jtag_uart_read+0x94>
        n = space;
    2fa8:	fc442783          	lw	a5,-60(s0)
    2fac:	fcf42a23          	sw	a5,-44(s0)

      memcpy(ptr, sp->rx_buf + out, n);
    2fb0:	fcc42783          	lw	a5,-52(s0)
    2fb4:	03878713          	add	a4,a5,56
    2fb8:	fdc42783          	lw	a5,-36(s0)
    2fbc:	00f707b3          	add	a5,a4,a5
    2fc0:	fd442603          	lw	a2,-44(s0)
    2fc4:	00078593          	mv	a1,a5
    2fc8:	fd042503          	lw	a0,-48(s0)
    2fcc:	3c4020ef          	jal	5390 <memcpy>
      ptr   += n;
    2fd0:	fd042703          	lw	a4,-48(s0)
    2fd4:	fd442783          	lw	a5,-44(s0)
    2fd8:	00f707b3          	add	a5,a4,a5
    2fdc:	fcf42823          	sw	a5,-48(s0)
      space -= n;
    2fe0:	fc442703          	lw	a4,-60(s0)
    2fe4:	fd442783          	lw	a5,-44(s0)
    2fe8:	40f707b3          	sub	a5,a4,a5
    2fec:	fcf42223          	sw	a5,-60(s0)

      sp->rx_out = (out + n) % ALTERA_AVALON_JTAG_UART_BUF_LEN;
    2ff0:	fdc42703          	lw	a4,-36(s0)
    2ff4:	fd442783          	lw	a5,-44(s0)
    2ff8:	00f707b3          	add	a5,a4,a5
    2ffc:	7ff7f713          	and	a4,a5,2047
    3000:	fcc42783          	lw	a5,-52(s0)
    3004:	02e7a623          	sw	a4,44(a5)
    }
    while (space > 0);
    3008:	fc442783          	lw	a5,-60(s0)
    300c:	f2f04ee3          	bgtz	a5,2f48 <altera_avalon_jtag_uart_read+0x2c>
    3010:	0080006f          	j	3018 <altera_avalon_jtag_uart_read+0xfc>
        break; /* No more data available */
    3014:	00000013          	nop

    /* If we read any data then return it */
    if (ptr != buffer)
    3018:	fd042703          	lw	a4,-48(s0)
    301c:	fc842783          	lw	a5,-56(s0)
    3020:	04f71c63          	bne	a4,a5,3078 <altera_avalon_jtag_uart_read+0x15c>
      break;

    /* If in non-blocking mode then return error */
    if (flags & O_NONBLOCK)
    3024:	fc042703          	lw	a4,-64(s0)
    3028:	000047b7          	lui	a5,0x4
    302c:	00f777b3          	and	a5,a4,a5
    3030:	04079863          	bnez	a5,3080 <altera_avalon_jtag_uart_read+0x164>
      while (in == sp->rx_in && sp->host_inactive < sp->timeout)
        ;
    }
#else
    /* No OS: Always spin */
    while (in == sp->rx_in && sp->host_inactive < sp->timeout)
    3034:	00000013          	nop
    3038:	fcc42783          	lw	a5,-52(s0)
    303c:	0287a783          	lw	a5,40(a5) # 4028 <alt_tick+0x4>
    3040:	fd842703          	lw	a4,-40(s0)
    3044:	00f71c63          	bne	a4,a5,305c <altera_avalon_jtag_uart_read+0x140>
    3048:	fcc42783          	lw	a5,-52(s0)
    304c:	0247a703          	lw	a4,36(a5)
    3050:	fcc42783          	lw	a5,-52(s0)
    3054:	0047a783          	lw	a5,4(a5)
    3058:	fef760e3          	bltu	a4,a5,3038 <altera_avalon_jtag_uart_read+0x11c>
      ;
#endif /* __ucosii__ */

    if (in == sp->rx_in)
    305c:	fcc42783          	lw	a5,-52(s0)
    3060:	0287a783          	lw	a5,40(a5)
    3064:	fd842703          	lw	a4,-40(s0)
    3068:	02f70063          	beq	a4,a5,3088 <altera_avalon_jtag_uart_read+0x16c>
  while (space > 0)
    306c:	fc442783          	lw	a5,-60(s0)
    3070:	ecf04ce3          	bgtz	a5,2f48 <altera_avalon_jtag_uart_read+0x2c>
    3074:	0180006f          	j	308c <altera_avalon_jtag_uart_read+0x170>
      break;
    3078:	00000013          	nop
    307c:	0100006f          	j	308c <altera_avalon_jtag_uart_read+0x170>
      break;
    3080:	00000013          	nop
    3084:	0080006f          	j	308c <altera_avalon_jtag_uart_read+0x170>
      break;
    3088:	00000013          	nop
   * semaphore so that other threads can access the buffer.
   */

  ALT_SEM_POST (sp->read_lock);

  if (ptr != buffer)
    308c:	fd042703          	lw	a4,-48(s0)
    3090:	fc842783          	lw	a5,-56(s0)
    3094:	06f70463          	beq	a4,a5,30fc <altera_avalon_jtag_uart_read+0x1e0>
    NIOSV_READ_AND_CLR_CSR(NIOSV_MSTATUS_CSR, context, NIOSV_MSTATUS_MIE_MASK);
    3098:	00800793          	li	a5,8
    309c:	3007b7f3          	csrrc	a5,mstatus,a5
    30a0:	fef42623          	sw	a5,-20(s0)
    return context;
    30a4:	fec42783          	lw	a5,-20(s0)
  {
    /* If we read any data then there is space in the buffer so enable interrupts */
    context = alt_irq_disable_all();
    30a8:	fef42023          	sw	a5,-32(s0)
    sp->irq_enable |= ALTERA_AVALON_JTAG_UART_CONTROL_RE_MSK;
    30ac:	fcc42783          	lw	a5,-52(s0)
    30b0:	0207a783          	lw	a5,32(a5)
    30b4:	0017e713          	or	a4,a5,1
    30b8:	fcc42783          	lw	a5,-52(s0)
    30bc:	02e7a023          	sw	a4,32(a5)
    IOWR_ALTERA_AVALON_JTAG_UART_CONTROL(sp->base, sp->irq_enable);
    30c0:	fcc42783          	lw	a5,-52(s0)
    30c4:	0207a783          	lw	a5,32(a5)
    30c8:	fef42223          	sw	a5,-28(s0)
    30cc:	fcc42783          	lw	a5,-52(s0)
    30d0:	0007a783          	lw	a5,0(a5)
    30d4:	00478793          	add	a5,a5,4
    30d8:	00078713          	mv	a4,a5
    30dc:	fe442783          	lw	a5,-28(s0)
    30e0:	00f72023          	sw	a5,0(a4)
    30e4:	fe042783          	lw	a5,-32(s0)
    30e8:	fef42423          	sw	a5,-24(s0)
    NIOSV_SET_CSR(NIOSV_MSTATUS_CSR, context & NIOSV_MSTATUS_MIE_MASK);
    30ec:	fe842783          	lw	a5,-24(s0)
    30f0:	0087f793          	and	a5,a5,8
    30f4:	3007a073          	csrs	mstatus,a5
}
    30f8:	00000013          	nop
    alt_irq_enable_all(context);
  }

  if (ptr != buffer)
    30fc:	fd042703          	lw	a4,-48(s0)
    3100:	fc842783          	lw	a5,-56(s0)
    3104:	00f70a63          	beq	a4,a5,3118 <altera_avalon_jtag_uart_read+0x1fc>
    return ptr - buffer;
    3108:	fd042703          	lw	a4,-48(s0)
    310c:	fc842783          	lw	a5,-56(s0)
    3110:	40f707b3          	sub	a5,a4,a5
    3114:	0200006f          	j	3134 <altera_avalon_jtag_uart_read+0x218>
  else if (flags & O_NONBLOCK)
    3118:	fc042703          	lw	a4,-64(s0)
    311c:	000047b7          	lui	a5,0x4
    3120:	00f777b3          	and	a5,a4,a5
    3124:	00078663          	beqz	a5,3130 <altera_avalon_jtag_uart_read+0x214>
    return -EWOULDBLOCK;
    3128:	ff500793          	li	a5,-11
    312c:	0080006f          	j	3134 <altera_avalon_jtag_uart_read+0x218>
  else
    return -EIO;
    3130:	ffb00793          	li	a5,-5
}
    3134:	00078513          	mv	a0,a5
    3138:	03c12083          	lw	ra,60(sp)
    313c:	03812403          	lw	s0,56(sp)
    3140:	04010113          	add	sp,sp,64
    3144:	00008067          	ret

00003148 <altera_avalon_jtag_uart_write>:
/* ----------------------------------------------------------- */

int 
altera_avalon_jtag_uart_write(altera_avalon_jtag_uart_state* sp, 
  const char * ptr, int count, int flags)
{
    3148:	fc010113          	add	sp,sp,-64
    314c:	02112e23          	sw	ra,60(sp)
    3150:	02812c23          	sw	s0,56(sp)
    3154:	04010413          	add	s0,sp,64
    3158:	fca42623          	sw	a0,-52(s0)
    315c:	fcb42423          	sw	a1,-56(s0)
    3160:	fcc42223          	sw	a2,-60(s0)
    3164:	fcd42023          	sw	a3,-64(s0)
  /* Remove warning at optimisation level 03 by seting out to 0 */
  unsigned int in, out=0;
    3168:	fc042823          	sw	zero,-48(s0)
  unsigned int n;
  alt_irq_context context;

  const char * start = ptr;
    316c:	fc842783          	lw	a5,-56(s0)
    3170:	fcf42c23          	sw	a5,-40(s0)
  ALT_SEM_PEND (sp->write_lock, 0);

  do
  {
    /* Copy as much as we can into the transmit buffer */
    while (count > 0)
    3174:	0ec0006f          	j	3260 <altera_avalon_jtag_uart_write+0x118>
    {
      /* We need a stable value of the out pointer to calculate the space available */
      in  = sp->tx_in;
    3178:	fcc42783          	lw	a5,-52(s0)
    317c:	0307a783          	lw	a5,48(a5) # 4030 <alt_tick+0xc>
    3180:	fcf42e23          	sw	a5,-36(s0)
      out = sp->tx_out;
    3184:	fcc42783          	lw	a5,-52(s0)
    3188:	0347a783          	lw	a5,52(a5)
    318c:	fcf42823          	sw	a5,-48(s0)

      if (in < out)
    3190:	fdc42703          	lw	a4,-36(s0)
    3194:	fd042783          	lw	a5,-48(s0)
    3198:	00f77e63          	bgeu	a4,a5,31b4 <altera_avalon_jtag_uart_write+0x6c>
        n = out - 1 - in;
    319c:	fd042703          	lw	a4,-48(s0)
    31a0:	fdc42783          	lw	a5,-36(s0)
    31a4:	40f707b3          	sub	a5,a4,a5
    31a8:	fff78793          	add	a5,a5,-1
    31ac:	fcf42a23          	sw	a5,-44(s0)
    31b0:	0340006f          	j	31e4 <altera_avalon_jtag_uart_write+0x9c>
      else if (out > 0)
    31b4:	fd042783          	lw	a5,-48(s0)
    31b8:	00078e63          	beqz	a5,31d4 <altera_avalon_jtag_uart_write+0x8c>
        n = ALTERA_AVALON_JTAG_UART_BUF_LEN - in;
    31bc:	000017b7          	lui	a5,0x1
    31c0:	80078713          	add	a4,a5,-2048 # 800 <alt_main+0x20>
    31c4:	fdc42783          	lw	a5,-36(s0)
    31c8:	40f707b3          	sub	a5,a4,a5
    31cc:	fcf42a23          	sw	a5,-44(s0)
    31d0:	0140006f          	j	31e4 <altera_avalon_jtag_uart_write+0x9c>
      else
        n = ALTERA_AVALON_JTAG_UART_BUF_LEN - 1 - in;
    31d4:	7ff00713          	li	a4,2047
    31d8:	fdc42783          	lw	a5,-36(s0)
    31dc:	40f707b3          	sub	a5,a4,a5
    31e0:	fcf42a23          	sw	a5,-44(s0)

      if (n == 0)
    31e4:	fd442783          	lw	a5,-44(s0)
    31e8:	08078263          	beqz	a5,326c <altera_avalon_jtag_uart_write+0x124>
        break;

      if (n > count)
    31ec:	fc442783          	lw	a5,-60(s0)
    31f0:	fd442703          	lw	a4,-44(s0)
    31f4:	00e7f663          	bgeu	a5,a4,3200 <altera_avalon_jtag_uart_write+0xb8>
        n = count;
    31f8:	fc442783          	lw	a5,-60(s0)
    31fc:	fcf42a23          	sw	a5,-44(s0)

      memcpy(sp->tx_buf + in, ptr, n);
    3200:	fcc42703          	lw	a4,-52(s0)
    3204:	000017b7          	lui	a5,0x1
    3208:	83878793          	add	a5,a5,-1992 # 838 <alt_main+0x58>
    320c:	00f70733          	add	a4,a4,a5
    3210:	fdc42783          	lw	a5,-36(s0)
    3214:	00f707b3          	add	a5,a4,a5
    3218:	fd442603          	lw	a2,-44(s0)
    321c:	fc842583          	lw	a1,-56(s0)
    3220:	00078513          	mv	a0,a5
    3224:	16c020ef          	jal	5390 <memcpy>
      ptr   += n;
    3228:	fc842703          	lw	a4,-56(s0)
    322c:	fd442783          	lw	a5,-44(s0)
    3230:	00f707b3          	add	a5,a4,a5
    3234:	fcf42423          	sw	a5,-56(s0)
      count -= n;
    3238:	fc442703          	lw	a4,-60(s0)
    323c:	fd442783          	lw	a5,-44(s0)
    3240:	40f707b3          	sub	a5,a4,a5
    3244:	fcf42223          	sw	a5,-60(s0)

      sp->tx_in = (in + n) % ALTERA_AVALON_JTAG_UART_BUF_LEN;
    3248:	fdc42703          	lw	a4,-36(s0)
    324c:	fd442783          	lw	a5,-44(s0)
    3250:	00f707b3          	add	a5,a4,a5
    3254:	7ff7f713          	and	a4,a5,2047
    3258:	fcc42783          	lw	a5,-52(s0)
    325c:	02e7a823          	sw	a4,48(a5)
    while (count > 0)
    3260:	fc442783          	lw	a5,-60(s0)
    3264:	f0f04ae3          	bgtz	a5,3178 <altera_avalon_jtag_uart_write+0x30>
    3268:	0080006f          	j	3270 <altera_avalon_jtag_uart_write+0x128>
        break;
    326c:	00000013          	nop
    NIOSV_READ_AND_CLR_CSR(NIOSV_MSTATUS_CSR, context, NIOSV_MSTATUS_MIE_MASK);
    3270:	00800793          	li	a5,8
    3274:	3007b7f3          	csrrc	a5,mstatus,a5
    3278:	fef42623          	sw	a5,-20(s0)
    return context;
    327c:	fec42783          	lw	a5,-20(s0)
     * to enable interrupts if there is no space left in the FIFO
     *
     * For now kick the interrupt routine every time to make it transmit 
     * the data 
     */
    context = alt_irq_disable_all();
    3280:	fef42023          	sw	a5,-32(s0)
    sp->irq_enable |= ALTERA_AVALON_JTAG_UART_CONTROL_WE_MSK;
    3284:	fcc42783          	lw	a5,-52(s0)
    3288:	0207a783          	lw	a5,32(a5)
    328c:	0027e713          	or	a4,a5,2
    3290:	fcc42783          	lw	a5,-52(s0)
    3294:	02e7a023          	sw	a4,32(a5)
    IOWR_ALTERA_AVALON_JTAG_UART_CONTROL(sp->base, sp->irq_enable);
    3298:	fcc42783          	lw	a5,-52(s0)
    329c:	0207a783          	lw	a5,32(a5)
    32a0:	fef42223          	sw	a5,-28(s0)
    32a4:	fcc42783          	lw	a5,-52(s0)
    32a8:	0007a783          	lw	a5,0(a5)
    32ac:	00478793          	add	a5,a5,4
    32b0:	00078713          	mv	a4,a5
    32b4:	fe442783          	lw	a5,-28(s0)
    32b8:	00f72023          	sw	a5,0(a4)
    32bc:	fe042783          	lw	a5,-32(s0)
    32c0:	fef42423          	sw	a5,-24(s0)
    NIOSV_SET_CSR(NIOSV_MSTATUS_CSR, context & NIOSV_MSTATUS_MIE_MASK);
    32c4:	fe842783          	lw	a5,-24(s0)
    32c8:	0087f793          	and	a5,a5,8
    32cc:	3007a073          	csrs	mstatus,a5
}
    32d0:	00000013          	nop
    /* 
     * If there is any data left then either return now or block until 
     * some has been sent 
     */
    /* consider: test whether there is anything there while doing this and delay for at most 2s. */
    if (count > 0)
    32d4:	fc442783          	lw	a5,-60(s0)
    32d8:	04f05463          	blez	a5,3320 <altera_avalon_jtag_uart_write+0x1d8>
    {
      if (flags & O_NONBLOCK)
    32dc:	fc042703          	lw	a4,-64(s0)
    32e0:	000047b7          	lui	a5,0x4
    32e4:	00f777b3          	and	a5,a4,a5
    32e8:	04079263          	bnez	a5,332c <altera_avalon_jtag_uart_write+0x1e4>
      /*
       * No OS present: Always wait for data to be removed from buffer.  Once
       * the interrupt routine has removed some data then we will be able to
       * insert some more.
       */
      while (out == sp->tx_out && sp->host_inactive < sp->timeout)
    32ec:	00000013          	nop
    32f0:	fcc42783          	lw	a5,-52(s0)
    32f4:	0347a783          	lw	a5,52(a5) # 4034 <alt_tick+0x10>
    32f8:	fd042703          	lw	a4,-48(s0)
    32fc:	00f71c63          	bne	a4,a5,3314 <altera_avalon_jtag_uart_write+0x1cc>
    3300:	fcc42783          	lw	a5,-52(s0)
    3304:	0247a703          	lw	a4,36(a5)
    3308:	fcc42783          	lw	a5,-52(s0)
    330c:	0047a783          	lw	a5,4(a5)
    3310:	fef760e3          	bltu	a4,a5,32f0 <altera_avalon_jtag_uart_write+0x1a8>
        ;
#endif /* __ucosii__ */

      if  (sp->host_inactive)
    3314:	fcc42783          	lw	a5,-52(s0)
    3318:	0247a783          	lw	a5,36(a5)
    331c:	00079c63          	bnez	a5,3334 <altera_avalon_jtag_uart_write+0x1ec>
         break;
    }
  }
  while (count > 0);
    3320:	fc442783          	lw	a5,-60(s0)
    3324:	f2f04ee3          	bgtz	a5,3260 <altera_avalon_jtag_uart_write+0x118>
    3328:	0100006f          	j	3338 <altera_avalon_jtag_uart_write+0x1f0>
        break;
    332c:	00000013          	nop
    3330:	0080006f          	j	3338 <altera_avalon_jtag_uart_write+0x1f0>
         break;
    3334:	00000013          	nop
   * Now that access to the circular buffer is complete, release the write
   * semaphore so that other threads can access the buffer.
   */
  ALT_SEM_POST (sp->write_lock);

  if (ptr != start)
    3338:	fc842703          	lw	a4,-56(s0)
    333c:	fd842783          	lw	a5,-40(s0)
    3340:	00f70a63          	beq	a4,a5,3354 <altera_avalon_jtag_uart_write+0x20c>
    return ptr - start;
    3344:	fc842703          	lw	a4,-56(s0)
    3348:	fd842783          	lw	a5,-40(s0)
    334c:	40f707b3          	sub	a5,a4,a5
    3350:	0200006f          	j	3370 <altera_avalon_jtag_uart_write+0x228>
  else if (flags & O_NONBLOCK)
    3354:	fc042703          	lw	a4,-64(s0)
    3358:	000047b7          	lui	a5,0x4
    335c:	00f777b3          	and	a5,a4,a5
    3360:	00078663          	beqz	a5,336c <altera_avalon_jtag_uart_write+0x224>
    return -EWOULDBLOCK;
    3364:	ff500793          	li	a5,-11
    3368:	0080006f          	j	3370 <altera_avalon_jtag_uart_write+0x228>
    sp->tx_out = sp->tx_in = 0;
    return ptr - start + count;
  }
#endif
  else
    return -EIO; /* Host not connected */
    336c:	ffb00793          	li	a5,-5
}
    3370:	00078513          	mv	a0,a5
    3374:	03c12083          	lw	ra,60(sp)
    3378:	03812403          	lw	s0,56(sp)
    337c:	04010113          	add	sp,sp,64
    3380:	00008067          	ret

00003384 <alt_alarm_start>:
 */ 

int alt_alarm_start (alt_alarm* alarm, alt_u32 nticks,
                     alt_u32 (*callback) (void* context),
                     void* context)
{
    3384:	fc010113          	add	sp,sp,-64
    3388:	02812e23          	sw	s0,60(sp)
    338c:	04010413          	add	s0,sp,64
    3390:	fca42623          	sw	a0,-52(s0)
    3394:	fcb42423          	sw	a1,-56(s0)
    3398:	fcc42223          	sw	a2,-60(s0)
    339c:	fcd42023          	sw	a3,-64(s0)
  alt_irq_context irq_context;
  alt_u64 current_nticks = 0;
    33a0:	00000713          	li	a4,0
    33a4:	00000793          	li	a5,0
    33a8:	fee42423          	sw	a4,-24(s0)
    33ac:	fef42623          	sw	a5,-20(s0)
    33b0:	0000b7b7          	lui	a5,0xb
    33b4:	7787a783          	lw	a5,1912(a5) # b778 <_alt_tick_rate>
  
  if (alt_ticks_per_second ())
    33b8:	12078063          	beqz	a5,34d8 <alt_alarm_start+0x154>
  {
    if (alarm)
    33bc:	fcc42783          	lw	a5,-52(s0)
    33c0:	10078863          	beqz	a5,34d0 <alt_alarm_start+0x14c>
    {
      alarm->callback = callback;
    33c4:	fcc42783          	lw	a5,-52(s0)
    33c8:	fc442703          	lw	a4,-60(s0)
    33cc:	00e7a823          	sw	a4,16(a5)
      alarm->context  = context;
    33d0:	fcc42783          	lw	a5,-52(s0)
    33d4:	fc042703          	lw	a4,-64(s0)
    33d8:	00e7aa23          	sw	a4,20(a5)
    NIOSV_READ_AND_CLR_CSR(NIOSV_MSTATUS_CSR, context, NIOSV_MSTATUS_MIE_MASK);
    33dc:	00800793          	li	a5,8
    33e0:	3007b7f3          	csrrc	a5,mstatus,a5
    33e4:	fef42223          	sw	a5,-28(s0)
    return context;
    33e8:	fe442783          	lw	a5,-28(s0)
 
      irq_context = alt_irq_disable_all ();
    33ec:	fcf42a23          	sw	a5,-44(s0)
 * alt_nticks() returns the elapsed number of system clock ticks since reset.
 */

static ALT_INLINE alt_u64 ALT_ALWAYS_INLINE alt_nticks (void)
{
  return _alt_nticks;
    33f0:	0000b7b7          	lui	a5,0xb
    33f4:	7807a703          	lw	a4,1920(a5) # b780 <_alt_nticks>
    33f8:	7847a783          	lw	a5,1924(a5)
      
      current_nticks = alt_nticks();
    33fc:	fee42423          	sw	a4,-24(s0)
    3400:	fef42623          	sw	a5,-20(s0)
      
      alarm->time = (alt_u64)nticks + current_nticks + 1; 
    3404:	fc842783          	lw	a5,-56(s0)
    3408:	00078813          	mv	a6,a5
    340c:	00000893          	li	a7,0
    3410:	fe842603          	lw	a2,-24(s0)
    3414:	fec42683          	lw	a3,-20(s0)
    3418:	00c80733          	add	a4,a6,a2
    341c:	00070593          	mv	a1,a4
    3420:	0105b5b3          	sltu	a1,a1,a6
    3424:	00d887b3          	add	a5,a7,a3
    3428:	00f586b3          	add	a3,a1,a5
    342c:	00068793          	mv	a5,a3
    3430:	00070613          	mv	a2,a4
    3434:	00078693          	mv	a3,a5
    3438:	00100513          	li	a0,1
    343c:	00000593          	li	a1,0
    3440:	00a60733          	add	a4,a2,a0
    3444:	00070813          	mv	a6,a4
    3448:	00c83833          	sltu	a6,a6,a2
    344c:	00b687b3          	add	a5,a3,a1
    3450:	00f806b3          	add	a3,a6,a5
    3454:	00068793          	mv	a5,a3
    3458:	fcc42683          	lw	a3,-52(s0)
    345c:	00e6a423          	sw	a4,8(a3)
    3460:	00f6a623          	sw	a5,12(a3)
          
      alt_llist_insert (&alt_alarm_list, &alarm->llist);
    3464:	fcc42783          	lw	a5,-52(s0)
    3468:	82018713          	add	a4,gp,-2016 # 9f88 <alt_alarm_list>
    346c:	fce42e23          	sw	a4,-36(s0)
    3470:	fef42023          	sw	a5,-32(s0)
 */

static ALT_INLINE void ALT_ALWAYS_INLINE alt_llist_insert(alt_llist* list, 
                alt_llist* entry)
{
  entry->previous = list;
    3474:	fe042783          	lw	a5,-32(s0)
    3478:	fdc42703          	lw	a4,-36(s0)
    347c:	00e7a223          	sw	a4,4(a5)
  entry->next     = list->next;
    3480:	fdc42783          	lw	a5,-36(s0)
    3484:	0007a703          	lw	a4,0(a5)
    3488:	fe042783          	lw	a5,-32(s0)
    348c:	00e7a023          	sw	a4,0(a5)

  list->next->previous = entry;
    3490:	fdc42783          	lw	a5,-36(s0)
    3494:	0007a783          	lw	a5,0(a5)
    3498:	fe042703          	lw	a4,-32(s0)
    349c:	00e7a223          	sw	a4,4(a5)
  list->next           = entry;
    34a0:	fdc42783          	lw	a5,-36(s0)
    34a4:	fe042703          	lw	a4,-32(s0)
    34a8:	00e7a023          	sw	a4,0(a5)
}
    34ac:	00000013          	nop
    34b0:	fd442783          	lw	a5,-44(s0)
    34b4:	fcf42c23          	sw	a5,-40(s0)
    NIOSV_SET_CSR(NIOSV_MSTATUS_CSR, context & NIOSV_MSTATUS_MIE_MASK);
    34b8:	fd842783          	lw	a5,-40(s0)
    34bc:	0087f793          	and	a5,a5,8
    34c0:	3007a073          	csrs	mstatus,a5
}
    34c4:	00000013          	nop
      alt_irq_enable_all (irq_context);

      return 0;
    34c8:	00000793          	li	a5,0
    34cc:	0100006f          	j	34dc <alt_alarm_start+0x158>
    }
    else
    {
      return -EINVAL;
    34d0:	fea00793          	li	a5,-22
    34d4:	0080006f          	j	34dc <alt_alarm_start+0x158>
    }
  }
  else
  {
    return -ENOTSUP;
    34d8:	f7a00793          	li	a5,-134
  }
}
    34dc:	00078513          	mv	a0,a5
    34e0:	03c12403          	lw	s0,60(sp)
    34e4:	04010113          	add	sp,sp,64
    34e8:	00008067          	ret

000034ec <alt_busy_sleep>:

// For a 50 Mhz clock, this is 1,202,590,842.
#define US_PER_OUTER_LOOP ((alt_u64)CLOCKS_PER_OUTER_LOOP / (alt_u64)CPU_FREQUENCY_MHZ)

unsigned int alt_busy_sleep (unsigned int us)
{
    34ec:	fd010113          	add	sp,sp,-48
    34f0:	02112623          	sw	ra,44(sp)
    34f4:	02812423          	sw	s0,40(sp)
    34f8:	03010413          	add	s0,sp,48
    34fc:	fca42e23          	sw	a0,-36(s0)
 * is connected, use that. If no timer agent is connected, fallback to a low accuracy busy
 * loop. If accurate timing is desired for busy sleep (used by usleep), please be sure to
 * provide a timestamp source, or connect the timer agent.
 */
#if HAL_TIMESTAMP_ENABLED
    alt_timestamp_start();
    3500:	4a1000ef          	jal	41a0 <alt_timestamp_start>
    const alt_timestamp_type end_time = (CPU_FREQUENCY_MHZ * us);
    3504:	fdc42703          	lw	a4,-36(s0)
    3508:	00070793          	mv	a5,a4
    350c:	00179793          	sll	a5,a5,0x1
    3510:	00e787b3          	add	a5,a5,a4
    3514:	00379793          	sll	a5,a5,0x3
    3518:	00e787b3          	add	a5,a5,a4
    351c:	00179793          	sll	a5,a5,0x1
    3520:	fef42423          	sw	a5,-24(s0)
    3524:	fe042623          	sw	zero,-20(s0)
    while (alt_timestamp() < end_time) {
    3528:	00000013          	nop
    352c:	4b5000ef          	jal	41e0 <alt_timestamp>
    3530:	00050713          	mv	a4,a0
    3534:	00058793          	mv	a5,a1
    3538:	fec42683          	lw	a3,-20(s0)
    353c:	00078613          	mv	a2,a5
    3540:	fed666e3          	bltu	a2,a3,352c <alt_busy_sleep+0x40>
    3544:	fec42683          	lw	a3,-20(s0)
    3548:	00078613          	mv	a2,a5
    354c:	00c69863          	bne	a3,a2,355c <alt_busy_sleep+0x70>
    3550:	fe842683          	lw	a3,-24(s0)
    3554:	00070793          	mv	a5,a4
    3558:	fcd7eae3          	bltu	a5,a3,352c <alt_busy_sleep+0x40>
        );
    }
#endif
#endif /* #ifndef ALT_SIM_OPTIMIZE */

  return 0;
    355c:	00000793          	li	a5,0
}
    3560:	00078513          	mv	a0,a5
    3564:	02c12083          	lw	ra,44(sp)
    3568:	02812403          	lw	s0,40(sp)
    356c:	03010113          	add	sp,sp,48
    3570:	00008067          	ret

00003574 <alt_dcache_flush_all>:

/*
 * alt_dcache_flush_all() is called to flush the entire data cache.
 */
void alt_dcache_flush_all (void)
{
    3574:	ff010113          	add	sp,sp,-16
    3578:	00812623          	sw	s0,12(sp)
    357c:	01010413          	add	s0,sp,16
    for (i = (char*)0; i < (char*) ALT_CPU_DCACHE_SIZE; i+= ALT_CPU_DCACHE_LINE_SIZE)
    { 
      DCACHE_CLEAN_BY_INDEX_VAL(i); 
    }
#endif
}
    3580:	00000013          	nop
    3584:	00c12403          	lw	s0,12(sp)
    3588:	01010113          	add	sp,sp,16
    358c:	00008067          	ret

00003590 <alt_dev_null_write>:
 * by the alt_dev_null device. It simple discards all data passed to it, and
 * indicates that the data has been successfully transmitted.
 */

static int alt_dev_null_write (alt_fd* fd, const char* ptr, int len)
{
    3590:	fe010113          	add	sp,sp,-32
    3594:	00812e23          	sw	s0,28(sp)
    3598:	02010413          	add	s0,sp,32
    359c:	fea42623          	sw	a0,-20(s0)
    35a0:	feb42423          	sw	a1,-24(s0)
    35a4:	fec42223          	sw	a2,-28(s0)
  return len;
    35a8:	fe442783          	lw	a5,-28(s0)
}
    35ac:	00078513          	mv	a0,a5
    35b0:	01c12403          	lw	s0,28(sp)
    35b4:	02010113          	add	sp,sp,32
    35b8:	00008067          	ret

000035bc <alt_dev_reg>:
    }
    /* all other elements are set to zero */
  };
  
int alt_dev_reg (alt_dev* dev)
{
    35bc:	fe010113          	add	sp,sp,-32
    35c0:	00112e23          	sw	ra,28(sp)
    35c4:	00812c23          	sw	s0,24(sp)
    35c8:	02010413          	add	s0,sp,32
    35cc:	fea42623          	sw	a0,-20(s0)
    return alt_dev_llist_insert ((alt_dev_llist*) dev, &alt_dev_list);
    35d0:	81018593          	add	a1,gp,-2032 # 9f78 <alt_dev_list>
    35d4:	fec42503          	lw	a0,-20(s0)
    35d8:	060000ef          	jal	3638 <alt_dev_llist_insert>
    35dc:	00050793          	mv	a5,a0
}
    35e0:	00078513          	mv	a0,a5
    35e4:	01c12083          	lw	ra,28(sp)
    35e8:	01812403          	lw	s0,24(sp)
    35ec:	02010113          	add	sp,sp,32
    35f0:	00008067          	ret

000035f4 <alt_get_errno>:
    35f4:	ff010113          	add	sp,sp,-16
    35f8:	00112623          	sw	ra,12(sp)
    35fc:	00812423          	sw	s0,8(sp)
    3600:	01010413          	add	s0,sp,16
    3604:	81c1a783          	lw	a5,-2020(gp) # 9f84 <alt_errno>
    3608:	00078a63          	beqz	a5,361c <alt_get_errno+0x28>
    360c:	81c1a783          	lw	a5,-2020(gp) # 9f84 <alt_errno>
    3610:	000780e7          	jalr	a5
    3614:	00050793          	mv	a5,a0
    3618:	00c0006f          	j	3624 <alt_get_errno+0x30>
    361c:	0000b7b7          	lui	a5,0xb
    3620:	79478793          	add	a5,a5,1940 # b794 <errno>
    3624:	00078513          	mv	a0,a5
    3628:	00c12083          	lw	ra,12(sp)
    362c:	00812403          	lw	s0,8(sp)
    3630:	01010113          	add	sp,sp,16
    3634:	00008067          	ret

00003638 <alt_dev_llist_insert>:
{
    3638:	fd010113          	add	sp,sp,-48
    363c:	02112623          	sw	ra,44(sp)
    3640:	02812423          	sw	s0,40(sp)
    3644:	03010413          	add	s0,sp,48
    3648:	fca42e23          	sw	a0,-36(s0)
    364c:	fcb42c23          	sw	a1,-40(s0)
  if (!dev || !dev->name)
    3650:	fdc42783          	lw	a5,-36(s0)
    3654:	00078863          	beqz	a5,3664 <alt_dev_llist_insert+0x2c>
    3658:	fdc42783          	lw	a5,-36(s0)
    365c:	0087a783          	lw	a5,8(a5)
    3660:	00079e63          	bnez	a5,367c <alt_dev_llist_insert+0x44>
    ALT_ERRNO = EINVAL;
    3664:	f91ff0ef          	jal	35f4 <alt_get_errno>
    3668:	00050713          	mv	a4,a0
    366c:	01600793          	li	a5,22
    3670:	00f72023          	sw	a5,0(a4)
    return -EINVAL;
    3674:	fea00793          	li	a5,-22
    3678:	0540006f          	j	36cc <alt_dev_llist_insert+0x94>
  alt_llist_insert(list, &dev->llist);
    367c:	fdc42783          	lw	a5,-36(s0)
    3680:	fd842703          	lw	a4,-40(s0)
    3684:	fee42423          	sw	a4,-24(s0)
    3688:	fef42623          	sw	a5,-20(s0)
  entry->previous = list;
    368c:	fec42783          	lw	a5,-20(s0)
    3690:	fe842703          	lw	a4,-24(s0)
    3694:	00e7a223          	sw	a4,4(a5)
